
./lib_a-svfprintf.o:     file format elf32-i386


Disassembly of section .text:

00000000 <_svfprintf_r>:
       0:	55                   	push   %ebp
       1:	89 e5                	mov    %esp,%ebp
       3:	57                   	push   %edi
       4:	56                   	push   %esi
       5:	53                   	push   %ebx
       6:	81 ec 1c 01 00 00    	sub    $0x11c,%esp
       c:	8b 45 08             	mov    0x8(%ebp),%eax
       f:	89 04 24             	mov    %eax,(%esp)
      12:	e8 fc ff ff ff       	call   13 <_svfprintf_r+0x13>
      17:	8b 00                	mov    (%eax),%eax
      19:	89 04 24             	mov    %eax,(%esp)
      1c:	89 85 0c ff ff ff    	mov    %eax,-0xf4(%ebp)
      22:	e8 fc ff ff ff       	call   23 <_svfprintf_r+0x23>
      27:	89 85 08 ff ff ff    	mov    %eax,-0xf8(%ebp)
      2d:	8b 45 0c             	mov    0xc(%ebp),%eax
      30:	f6 40 0c 80          	testb  $0x80,0xc(%eax)
      34:	74 0b                	je     41 <_svfprintf_r+0x41>
      36:	8b 40 10             	mov    0x10(%eax),%eax
      39:	85 c0                	test   %eax,%eax
      3b:	0f 84 62 18 00 00    	je     18a3 <_svfprintf_r+0x18a3>
      41:	8d 45 a8             	lea    -0x58(%ebp),%eax
      44:	8d 55 a7             	lea    -0x59(%ebp),%edx
      47:	89 c7                	mov    %eax,%edi
      49:	89 85 74 ff ff ff    	mov    %eax,-0x8c(%ebp)
      4f:	d9 ee                	fldz   
      51:	29 d0                	sub    %edx,%eax
      53:	c7 85 7c ff ff ff 00 	movl   $0x0,-0x84(%ebp)
      5a:	00 00 00 
      5d:	dd 9d 10 ff ff ff    	fstpl  -0xf0(%ebp)
      63:	c7 85 78 ff ff ff 00 	movl   $0x0,-0x88(%ebp)
      6a:	00 00 00 
      6d:	c7 85 1c ff ff ff 00 	movl   $0x0,-0xe4(%ebp)
      74:	00 00 00 
      77:	c7 85 18 ff ff ff 00 	movl   $0x0,-0xe8(%ebp)
      7e:	00 00 00 
      81:	c7 85 04 ff ff ff 00 	movl   $0x0,-0xfc(%ebp)
      88:	00 00 00 
      8b:	c7 85 34 ff ff ff 00 	movl   $0x0,-0xcc(%ebp)
      92:	00 00 00 
      95:	89 85 00 ff ff ff    	mov    %eax,-0x100(%ebp)
      9b:	8b 45 10             	mov    0x10(%ebp),%eax
      9e:	8b 5d 10             	mov    0x10(%ebp),%ebx
      a1:	0f b6 00             	movzbl (%eax),%eax
      a4:	3c 25                	cmp    $0x25,%al
      a6:	74 4d                	je     f5 <_svfprintf_r+0xf5>
      a8:	84 c0                	test   %al,%al
      aa:	75 08                	jne    b4 <_svfprintf_r+0xb4>
      ac:	eb 47                	jmp    f5 <_svfprintf_r+0xf5>
      ae:	66 90                	xchg   %ax,%ax
      b0:	84 c0                	test   %al,%al
      b2:	74 0a                	je     be <_svfprintf_r+0xbe>
      b4:	83 c3 01             	add    $0x1,%ebx
      b7:	0f b6 03             	movzbl (%ebx),%eax
      ba:	3c 25                	cmp    $0x25,%al
      bc:	75 f2                	jne    b0 <_svfprintf_r+0xb0>
      be:	89 de                	mov    %ebx,%esi
      c0:	2b 75 10             	sub    0x10(%ebp),%esi
      c3:	74 30                	je     f5 <_svfprintf_r+0xf5>
      c5:	8b 45 10             	mov    0x10(%ebp),%eax
      c8:	83 c7 08             	add    $0x8,%edi
      cb:	89 77 fc             	mov    %esi,-0x4(%edi)
      ce:	01 b5 7c ff ff ff    	add    %esi,-0x84(%ebp)
      d4:	89 47 f8             	mov    %eax,-0x8(%edi)
      d7:	8b 85 78 ff ff ff    	mov    -0x88(%ebp),%eax
      dd:	83 c0 01             	add    $0x1,%eax
      e0:	83 f8 07             	cmp    $0x7,%eax
      e3:	89 85 78 ff ff ff    	mov    %eax,-0x88(%ebp)
      e9:	0f 8f 91 00 00 00    	jg     180 <_svfprintf_r+0x180>
      ef:	01 b5 34 ff ff ff    	add    %esi,-0xcc(%ebp)
      f5:	80 3b 00             	cmpb   $0x0,(%ebx)
      f8:	0f 84 aa 00 00 00    	je     1a8 <_svfprintf_r+0x1a8>
      fe:	8d 43 01             	lea    0x1(%ebx),%eax
     101:	be 20 00 00 00       	mov    $0x20,%esi
     106:	c6 85 59 ff ff ff 00 	movb   $0x0,-0xa7(%ebp)
     10d:	31 db                	xor    %ebx,%ebx
     10f:	c7 85 44 ff ff ff ff 	movl   $0xffffffff,-0xbc(%ebp)
     116:	ff ff ff 
     119:	c7 85 40 ff ff ff 00 	movl   $0x0,-0xc0(%ebp)
     120:	00 00 00 
     123:	c7 85 4c ff ff ff 00 	movl   $0x0,-0xb4(%ebp)
     12a:	00 00 00 
     12d:	8d 48 01             	lea    0x1(%eax),%ecx
     130:	0f be 00             	movsbl (%eax),%eax
     133:	8d 50 e0             	lea    -0x20(%eax),%edx
     136:	83 fa 58             	cmp    $0x58,%edx
     139:	0f 87 8f 07 00 00    	ja     8ce <_svfprintf_r+0x8ce>
     13f:	ff 24 95 00 00 00 00 	jmp    *0x0(,%edx,4)
     146:	66 90                	xchg   %ax,%ax
     148:	83 8d 4c ff ff ff 10 	orl    $0x10,-0xb4(%ebp)
     14f:	89 c8                	mov    %ecx,%eax
     151:	eb da                	jmp    12d <_svfprintf_r+0x12d>
     153:	8b 45 14             	mov    0x14(%ebp),%eax
     156:	8b 55 14             	mov    0x14(%ebp),%edx
     159:	8b 00                	mov    (%eax),%eax
     15b:	83 c2 04             	add    $0x4,%edx
     15e:	89 55 14             	mov    %edx,0x14(%ebp)
     161:	85 c0                	test   %eax,%eax
     163:	89 85 40 ff ff ff    	mov    %eax,-0xc0(%ebp)
     169:	79 e4                	jns    14f <_svfprintf_r+0x14f>
     16b:	f7 9d 40 ff ff ff    	negl   -0xc0(%ebp)
     171:	83 8d 4c ff ff ff 04 	orl    $0x4,-0xb4(%ebp)
     178:	89 c8                	mov    %ecx,%eax
     17a:	eb b1                	jmp    12d <_svfprintf_r+0x12d>
     17c:	8d 74 26 00          	lea    0x0(%esi,%eiz,1),%esi
     180:	8d 85 74 ff ff ff    	lea    -0x8c(%ebp),%eax
     186:	89 44 24 08          	mov    %eax,0x8(%esp)
     18a:	8b 45 0c             	mov    0xc(%ebp),%eax
     18d:	89 44 24 04          	mov    %eax,0x4(%esp)
     191:	8b 45 08             	mov    0x8(%ebp),%eax
     194:	89 04 24             	mov    %eax,(%esp)
     197:	e8 fc ff ff ff       	call   198 <_svfprintf_r+0x198>
     19c:	85 c0                	test   %eax,%eax
     19e:	75 30                	jne    1d0 <_svfprintf_r+0x1d0>
     1a0:	8d 7d a8             	lea    -0x58(%ebp),%edi
     1a3:	e9 47 ff ff ff       	jmp    ef <_svfprintf_r+0xef>
     1a8:	8b 85 7c ff ff ff    	mov    -0x84(%ebp),%eax
     1ae:	85 c0                	test   %eax,%eax
     1b0:	74 1e                	je     1d0 <_svfprintf_r+0x1d0>
     1b2:	8d 85 74 ff ff ff    	lea    -0x8c(%ebp),%eax
     1b8:	89 44 24 08          	mov    %eax,0x8(%esp)
     1bc:	8b 45 0c             	mov    0xc(%ebp),%eax
     1bf:	89 44 24 04          	mov    %eax,0x4(%esp)
     1c3:	8b 45 08             	mov    0x8(%ebp),%eax
     1c6:	89 04 24             	mov    %eax,(%esp)
     1c9:	e8 fc ff ff ff       	call   1ca <_svfprintf_r+0x1ca>
     1ce:	66 90                	xchg   %ax,%ax
     1d0:	8b 55 0c             	mov    0xc(%ebp),%edx
     1d3:	b8 ff ff ff ff       	mov    $0xffffffff,%eax
     1d8:	f6 42 0c 40          	testb  $0x40,0xc(%edx)
     1dc:	0f 44 85 34 ff ff ff 	cmove  -0xcc(%ebp),%eax
     1e3:	81 c4 1c 01 00 00    	add    $0x11c,%esp
     1e9:	5b                   	pop    %ebx
     1ea:	5e                   	pop    %esi
     1eb:	5f                   	pop    %edi
     1ec:	5d                   	pop    %ebp
     1ed:	c3                   	ret    
     1ee:	bb 2b 00 00 00       	mov    $0x2b,%ebx
     1f3:	89 c8                	mov    %ecx,%eax
     1f5:	e9 33 ff ff ff       	jmp    12d <_svfprintf_r+0x12d>
     1fa:	89 85 24 ff ff ff    	mov    %eax,-0xdc(%ebp)
     200:	8b 45 14             	mov    0x14(%ebp),%eax
     203:	89 4d 10             	mov    %ecx,0x10(%ebp)
     206:	c6 85 59 ff ff ff 00 	movb   $0x0,-0xa7(%ebp)
     20d:	8d 70 04             	lea    0x4(%eax),%esi
     210:	8b 00                	mov    (%eax),%eax
     212:	85 c0                	test   %eax,%eax
     214:	89 85 28 ff ff ff    	mov    %eax,-0xd8(%ebp)
     21a:	0f 84 7f 18 00 00    	je     1a9f <_svfprintf_r+0x1a9f>
     220:	8b 85 44 ff ff ff    	mov    -0xbc(%ebp),%eax
     226:	85 c0                	test   %eax,%eax
     228:	0f 88 b6 17 00 00    	js     19e4 <_svfprintf_r+0x19e4>
     22e:	89 44 24 08          	mov    %eax,0x8(%esp)
     232:	8b 85 28 ff ff ff    	mov    -0xd8(%ebp),%eax
     238:	c7 44 24 04 00 00 00 	movl   $0x0,0x4(%esp)
     23f:	00 
     240:	89 04 24             	mov    %eax,(%esp)
     243:	e8 fc ff ff ff       	call   244 <_svfprintf_r+0x244>
     248:	85 c0                	test   %eax,%eax
     24a:	0f 84 a0 19 00 00    	je     1bf0 <_svfprintf_r+0x1bf0>
     250:	8b 95 44 ff ff ff    	mov    -0xbc(%ebp),%edx
     256:	2b 85 28 ff ff ff    	sub    -0xd8(%ebp),%eax
     25c:	39 d0                	cmp    %edx,%eax
     25e:	0f 4f c2             	cmovg  %edx,%eax
     261:	89 c2                	mov    %eax,%edx
     263:	0f b6 9d 59 ff ff ff 	movzbl -0xa7(%ebp),%ebx
     26a:	89 85 38 ff ff ff    	mov    %eax,-0xc8(%ebp)
     270:	31 c0                	xor    %eax,%eax
     272:	85 d2                	test   %edx,%edx
     274:	0f 49 c2             	cmovns %edx,%eax
     277:	89 85 48 ff ff ff    	mov    %eax,-0xb8(%ebp)
     27d:	89 75 14             	mov    %esi,0x14(%ebp)
     280:	c7 85 44 ff ff ff 00 	movl   $0x0,-0xbc(%ebp)
     287:	00 00 00 
     28a:	c7 85 20 ff ff ff 00 	movl   $0x0,-0xe0(%ebp)
     291:	00 00 00 
     294:	8d 74 26 00          	lea    0x0(%esi,%eiz,1),%esi
     298:	84 db                	test   %bl,%bl
     29a:	74 07                	je     2a3 <_svfprintf_r+0x2a3>
     29c:	83 85 48 ff ff ff 01 	addl   $0x1,-0xb8(%ebp)
     2a3:	8b 8d 48 ff ff ff    	mov    -0xb8(%ebp),%ecx
     2a9:	8b b5 4c ff ff ff    	mov    -0xb4(%ebp),%esi
     2af:	89 c8                	mov    %ecx,%eax
     2b1:	89 f2                	mov    %esi,%edx
     2b3:	83 c0 02             	add    $0x2,%eax
     2b6:	83 e2 02             	and    $0x2,%edx
     2b9:	89 95 30 ff ff ff    	mov    %edx,-0xd0(%ebp)
     2bf:	89 f2                	mov    %esi,%edx
     2c1:	0f 44 c1             	cmove  %ecx,%eax
     2c4:	81 e2 84 00 00 00    	and    $0x84,%edx
     2ca:	89 85 48 ff ff ff    	mov    %eax,-0xb8(%ebp)
     2d0:	89 95 2c ff ff ff    	mov    %edx,-0xd4(%ebp)
     2d6:	0f 85 1c 06 00 00    	jne    8f8 <_svfprintf_r+0x8f8>
     2dc:	8b b5 40 ff ff ff    	mov    -0xc0(%ebp),%esi
     2e2:	2b b5 48 ff ff ff    	sub    -0xb8(%ebp),%esi
     2e8:	85 f6                	test   %esi,%esi
     2ea:	0f 8e 08 06 00 00    	jle    8f8 <_svfprintf_r+0x8f8>
     2f0:	83 fe 10             	cmp    $0x10,%esi
     2f3:	8b 8d 7c ff ff ff    	mov    -0x84(%ebp),%ecx
     2f9:	8b 85 78 ff ff ff    	mov    -0x88(%ebp),%eax
     2ff:	8d 9d 74 ff ff ff    	lea    -0x8c(%ebp),%ebx
     305:	7f 11                	jg     318 <_svfprintf_r+0x318>
     307:	eb 6b                	jmp    374 <_svfprintf_r+0x374>
     309:	8d b4 26 00 00 00 00 	lea    0x0(%esi,%eiz,1),%esi
     310:	83 ee 10             	sub    $0x10,%esi
     313:	83 fe 10             	cmp    $0x10,%esi
     316:	7e 5c                	jle    374 <_svfprintf_r+0x374>
     318:	83 c0 01             	add    $0x1,%eax
     31b:	83 c1 10             	add    $0x10,%ecx
     31e:	c7 07 74 01 00 00    	movl   $0x174,(%edi)
     324:	83 c7 08             	add    $0x8,%edi
     327:	c7 47 fc 10 00 00 00 	movl   $0x10,-0x4(%edi)
     32e:	83 f8 07             	cmp    $0x7,%eax
     331:	89 8d 7c ff ff ff    	mov    %ecx,-0x84(%ebp)
     337:	89 85 78 ff ff ff    	mov    %eax,-0x88(%ebp)
     33d:	7e d1                	jle    310 <_svfprintf_r+0x310>
     33f:	8b 45 0c             	mov    0xc(%ebp),%eax
     342:	89 5c 24 08          	mov    %ebx,0x8(%esp)
     346:	89 44 24 04          	mov    %eax,0x4(%esp)
     34a:	8b 45 08             	mov    0x8(%ebp),%eax
     34d:	89 04 24             	mov    %eax,(%esp)
     350:	e8 fc ff ff ff       	call   351 <_svfprintf_r+0x351>
     355:	85 c0                	test   %eax,%eax
     357:	0f 85 73 fe ff ff    	jne    1d0 <_svfprintf_r+0x1d0>
     35d:	83 ee 10             	sub    $0x10,%esi
     360:	8b 8d 7c ff ff ff    	mov    -0x84(%ebp),%ecx
     366:	83 fe 10             	cmp    $0x10,%esi
     369:	8b 85 78 ff ff ff    	mov    -0x88(%ebp),%eax
     36f:	8d 7d a8             	lea    -0x58(%ebp),%edi
     372:	7f a4                	jg     318 <_svfprintf_r+0x318>
     374:	83 c0 01             	add    $0x1,%eax
     377:	01 f1                	add    %esi,%ecx
     379:	83 f8 07             	cmp    $0x7,%eax
     37c:	c7 07 74 01 00 00    	movl   $0x174,(%edi)
     382:	89 77 04             	mov    %esi,0x4(%edi)
     385:	89 8d 7c ff ff ff    	mov    %ecx,-0x84(%ebp)
     38b:	89 85 78 ff ff ff    	mov    %eax,-0x88(%ebp)
     391:	0f 8f 16 0e 00 00    	jg     11ad <_svfprintf_r+0x11ad>
     397:	83 c7 08             	add    $0x8,%edi
     39a:	0f b6 9d 59 ff ff ff 	movzbl -0xa7(%ebp),%ebx
     3a1:	e9 58 05 00 00       	jmp    8fe <_svfprintf_r+0x8fe>
     3a6:	f6 85 4c ff ff ff 10 	testb  $0x10,-0xb4(%ebp)
     3ad:	89 85 24 ff ff ff    	mov    %eax,-0xdc(%ebp)
     3b3:	8b 45 14             	mov    0x14(%ebp),%eax
     3b6:	89 4d 10             	mov    %ecx,0x10(%ebp)
     3b9:	0f 85 fd 04 00 00    	jne    8bc <_svfprintf_r+0x8bc>
     3bf:	f6 85 4c ff ff ff 40 	testb  $0x40,-0xb4(%ebp)
     3c6:	0f 84 f0 04 00 00    	je     8bc <_svfprintf_r+0x8bc>
     3cc:	0f b7 08             	movzwl (%eax),%ecx
     3cf:	83 c0 04             	add    $0x4,%eax
     3d2:	89 45 14             	mov    %eax,0x14(%ebp)
     3d5:	b8 01 00 00 00       	mov    $0x1,%eax
     3da:	8d b6 00 00 00 00    	lea    0x0(%esi),%esi
     3e0:	c6 85 59 ff ff ff 00 	movb   $0x0,-0xa7(%ebp)
     3e7:	31 db                	xor    %ebx,%ebx
     3e9:	8b b5 4c ff ff ff    	mov    -0xb4(%ebp),%esi
     3ef:	89 f2                	mov    %esi,%edx
     3f1:	80 e2 7f             	and    $0x7f,%dl
     3f4:	83 bd 44 ff ff ff 00 	cmpl   $0x0,-0xbc(%ebp)
     3fb:	0f 48 d6             	cmovs  %esi,%edx
     3fe:	89 95 4c ff ff ff    	mov    %edx,-0xb4(%ebp)
     404:	8b 95 44 ff ff ff    	mov    -0xbc(%ebp),%edx
     40a:	85 d2                	test   %edx,%edx
     40c:	75 08                	jne    416 <_svfprintf_r+0x416>
     40e:	85 c9                	test   %ecx,%ecx
     410:	0f 84 ea 08 00 00    	je     d00 <_svfprintf_r+0xd00>
     416:	3c 01                	cmp    $0x1,%al
     418:	0f 84 6a 0d 00 00    	je     1188 <_svfprintf_r+0x1188>
     41e:	3c 02                	cmp    $0x2,%al
     420:	8d 45 a8             	lea    -0x58(%ebp),%eax
     423:	0f 85 bf 0b 00 00    	jne    fe8 <_svfprintf_r+0xfe8>
     429:	8b b5 18 ff ff ff    	mov    -0xe8(%ebp),%esi
     42f:	90                   	nop
     430:	89 ca                	mov    %ecx,%edx
     432:	83 e8 01             	sub    $0x1,%eax
     435:	83 e2 0f             	and    $0xf,%edx
     438:	0f b6 14 16          	movzbl (%esi,%edx,1),%edx
     43c:	c1 e9 04             	shr    $0x4,%ecx
     43f:	85 c9                	test   %ecx,%ecx
     441:	88 10                	mov    %dl,(%eax)
     443:	75 eb                	jne    430 <_svfprintf_r+0x430>
     445:	8d 55 a8             	lea    -0x58(%ebp),%edx
     448:	29 c2                	sub    %eax,%edx
     44a:	89 85 28 ff ff ff    	mov    %eax,-0xd8(%ebp)
     450:	89 95 38 ff ff ff    	mov    %edx,-0xc8(%ebp)
     456:	66 90                	xchg   %ax,%ax
     458:	8b 85 44 ff ff ff    	mov    -0xbc(%ebp),%eax
     45e:	8b 95 38 ff ff ff    	mov    -0xc8(%ebp),%edx
     464:	c7 85 20 ff ff ff 00 	movl   $0x0,-0xe0(%ebp)
     46b:	00 00 00 
     46e:	39 c2                	cmp    %eax,%edx
     470:	0f 4d c2             	cmovge %edx,%eax
     473:	89 85 48 ff ff ff    	mov    %eax,-0xb8(%ebp)
     479:	e9 1a fe ff ff       	jmp    298 <_svfprintf_r+0x298>
     47e:	84 db                	test   %bl,%bl
     480:	89 c8                	mov    %ecx,%eax
     482:	0f 44 de             	cmove  %esi,%ebx
     485:	e9 a3 fc ff ff       	jmp    12d <_svfprintf_r+0x12d>
     48a:	83 8d 4c ff ff ff 01 	orl    $0x1,-0xb4(%ebp)
     491:	89 c8                	mov    %ecx,%eax
     493:	e9 95 fc ff ff       	jmp    12d <_svfprintf_r+0x12d>
     498:	81 8d 4c ff ff ff 80 	orl    $0x80,-0xb4(%ebp)
     49f:	00 00 00 
     4a2:	89 c8                	mov    %ecx,%eax
     4a4:	e9 84 fc ff ff       	jmp    12d <_svfprintf_r+0x12d>
     4a9:	89 bd 48 ff ff ff    	mov    %edi,-0xb8(%ebp)
     4af:	8d 50 d0             	lea    -0x30(%eax),%edx
     4b2:	31 ff                	xor    %edi,%edi
     4b4:	c7 85 40 ff ff ff 00 	movl   $0x0,-0xc0(%ebp)
     4bb:	00 00 00 
     4be:	66 90                	xchg   %ax,%ax
     4c0:	8d 04 bf             	lea    (%edi,%edi,4),%eax
     4c3:	83 c1 01             	add    $0x1,%ecx
     4c6:	8d 3c 42             	lea    (%edx,%eax,2),%edi
     4c9:	0f be 41 ff          	movsbl -0x1(%ecx),%eax
     4cd:	8d 50 d0             	lea    -0x30(%eax),%edx
     4d0:	83 fa 09             	cmp    $0x9,%edx
     4d3:	76 eb                	jbe    4c0 <_svfprintf_r+0x4c0>
     4d5:	89 bd 40 ff ff ff    	mov    %edi,-0xc0(%ebp)
     4db:	8b bd 48 ff ff ff    	mov    -0xb8(%ebp),%edi
     4e1:	e9 4d fc ff ff       	jmp    133 <_svfprintf_r+0x133>
     4e6:	83 8d 4c ff ff ff 10 	orl    $0x10,-0xb4(%ebp)
     4ed:	f6 85 4c ff ff ff 10 	testb  $0x10,-0xb4(%ebp)
     4f4:	89 85 24 ff ff ff    	mov    %eax,-0xdc(%ebp)
     4fa:	8b 45 14             	mov    0x14(%ebp),%eax
     4fd:	89 4d 10             	mov    %ecx,0x10(%ebp)
     500:	88 9d 59 ff ff ff    	mov    %bl,-0xa7(%ebp)
     506:	0f 85 61 02 00 00    	jne    76d <_svfprintf_r+0x76d>
     50c:	f6 85 4c ff ff ff 40 	testb  $0x40,-0xb4(%ebp)
     513:	0f 84 54 02 00 00    	je     76d <_svfprintf_r+0x76d>
     519:	0f bf 08             	movswl (%eax),%ecx
     51c:	83 c0 04             	add    $0x4,%eax
     51f:	89 45 14             	mov    %eax,0x14(%ebp)
     522:	85 c9                	test   %ecx,%ecx
     524:	0f 88 53 02 00 00    	js     77d <_svfprintf_r+0x77d>
     52a:	0f b6 9d 59 ff ff ff 	movzbl -0xa7(%ebp),%ebx
     531:	b8 01 00 00 00       	mov    $0x1,%eax
     536:	e9 ae fe ff ff       	jmp    3e9 <_svfprintf_r+0x3e9>
     53b:	f6 85 4c ff ff ff 08 	testb  $0x8,-0xb4(%ebp)
     542:	89 85 24 ff ff ff    	mov    %eax,-0xdc(%ebp)
     548:	8b 45 14             	mov    0x14(%ebp),%eax
     54b:	89 4d 10             	mov    %ecx,0x10(%ebp)
     54e:	88 9d 59 ff ff ff    	mov    %bl,-0xa7(%ebp)
     554:	0f 84 15 10 00 00    	je     156f <_svfprintf_r+0x156f>
     55a:	db 28                	fldt   (%eax)
     55c:	83 c0 0c             	add    $0xc,%eax
     55f:	89 45 14             	mov    %eax,0x14(%ebp)
     562:	dd 9d 10 ff ff ff    	fstpl  -0xf0(%ebp)
     568:	dd 85 10 ff ff ff    	fldl   -0xf0(%ebp)
     56e:	dd 1c 24             	fstpl  (%esp)
     571:	e8 fc ff ff ff       	call   572 <_svfprintf_r+0x572>
     576:	83 f8 01             	cmp    $0x1,%eax
     579:	0f 85 82 0f 00 00    	jne    1501 <_svfprintf_r+0x1501>
     57f:	d9 ee                	fldz   
     581:	dd 85 10 ff ff ff    	fldl   -0xf0(%ebp)
     587:	d9 c9                	fxch   %st(1)
     589:	df e9                	fucomip %st(1),%st
     58b:	dd d8                	fstp   %st(0)
     58d:	0f 87 59 15 00 00    	ja     1aec <_svfprintf_r+0x1aec>
     593:	0f b6 9d 59 ff ff ff 	movzbl -0xa7(%ebp),%ebx
     59a:	83 bd 24 ff ff ff 47 	cmpl   $0x47,-0xdc(%ebp)
     5a1:	ba 00 00 00 00       	mov    $0x0,%edx
     5a6:	b8 04 00 00 00       	mov    $0x4,%eax
     5ab:	c7 85 48 ff ff ff 03 	movl   $0x3,-0xb8(%ebp)
     5b2:	00 00 00 
     5b5:	0f 4e c2             	cmovle %edx,%eax
     5b8:	89 85 28 ff ff ff    	mov    %eax,-0xd8(%ebp)
     5be:	81 a5 4c ff ff ff 7f 	andl   $0xffffff7f,-0xb4(%ebp)
     5c5:	ff ff ff 
     5c8:	c7 85 38 ff ff ff 03 	movl   $0x3,-0xc8(%ebp)
     5cf:	00 00 00 
     5d2:	c7 85 44 ff ff ff 00 	movl   $0x0,-0xbc(%ebp)
     5d9:	00 00 00 
     5dc:	c7 85 20 ff ff ff 00 	movl   $0x0,-0xe0(%ebp)
     5e3:	00 00 00 
     5e6:	e9 ad fc ff ff       	jmp    298 <_svfprintf_r+0x298>
     5eb:	8d 41 01             	lea    0x1(%ecx),%eax
     5ee:	89 85 48 ff ff ff    	mov    %eax,-0xb8(%ebp)
     5f4:	0f be 01             	movsbl (%ecx),%eax
     5f7:	83 f8 2a             	cmp    $0x2a,%eax
     5fa:	0f 84 84 18 00 00    	je     1e84 <_svfprintf_r+0x1e84>
     600:	8d 50 d0             	lea    -0x30(%eax),%edx
     603:	31 c9                	xor    %ecx,%ecx
     605:	83 fa 09             	cmp    $0x9,%edx
     608:	0f 87 a8 16 00 00    	ja     1cb6 <_svfprintf_r+0x1cb6>
     60e:	89 bd 44 ff ff ff    	mov    %edi,-0xbc(%ebp)
     614:	8b bd 48 ff ff ff    	mov    -0xb8(%ebp),%edi
     61a:	8d b6 00 00 00 00    	lea    0x0(%esi),%esi
     620:	8d 04 89             	lea    (%ecx,%ecx,4),%eax
     623:	83 c7 01             	add    $0x1,%edi
     626:	8d 0c 42             	lea    (%edx,%eax,2),%ecx
     629:	0f be 47 ff          	movsbl -0x1(%edi),%eax
     62d:	8d 50 d0             	lea    -0x30(%eax),%edx
     630:	83 fa 09             	cmp    $0x9,%edx
     633:	76 eb                	jbe    620 <_svfprintf_r+0x620>
     635:	85 c9                	test   %ecx,%ecx
     637:	89 ca                	mov    %ecx,%edx
     639:	b9 ff ff ff ff       	mov    $0xffffffff,%ecx
     63e:	0f 48 d1             	cmovs  %ecx,%edx
     641:	89 bd 48 ff ff ff    	mov    %edi,-0xb8(%ebp)
     647:	8b bd 44 ff ff ff    	mov    -0xbc(%ebp),%edi
     64d:	8b 8d 48 ff ff ff    	mov    -0xb8(%ebp),%ecx
     653:	89 95 44 ff ff ff    	mov    %edx,-0xbc(%ebp)
     659:	e9 d5 fa ff ff       	jmp    133 <_svfprintf_r+0x133>
     65e:	8b 45 14             	mov    0x14(%ebp),%eax
     661:	89 4d 10             	mov    %ecx,0x10(%ebp)
     664:	83 8d 4c ff ff ff 02 	orl    $0x2,-0xb4(%ebp)
     66b:	8b 08                	mov    (%eax),%ecx
     66d:	83 c0 04             	add    $0x4,%eax
     670:	89 45 14             	mov    %eax,0x14(%ebp)
     673:	b8 02 00 00 00       	mov    $0x2,%eax
     678:	c6 85 5a ff ff ff 30 	movb   $0x30,-0xa6(%ebp)
     67f:	c6 85 5b ff ff ff 78 	movb   $0x78,-0xa5(%ebp)
     686:	c7 85 18 ff ff ff 21 	movl   $0x21,-0xe8(%ebp)
     68d:	00 00 00 
     690:	c7 85 24 ff ff ff 78 	movl   $0x78,-0xdc(%ebp)
     697:	00 00 00 
     69a:	e9 41 fd ff ff       	jmp    3e0 <_svfprintf_r+0x3e0>
     69f:	f6 85 4c ff ff ff 10 	testb  $0x10,-0xb4(%ebp)
     6a6:	89 85 24 ff ff ff    	mov    %eax,-0xdc(%ebp)
     6ac:	8b 45 14             	mov    0x14(%ebp),%eax
     6af:	89 4d 10             	mov    %ecx,0x10(%ebp)
     6b2:	0f 85 87 00 00 00    	jne    73f <_svfprintf_r+0x73f>
     6b8:	f6 85 4c ff ff ff 40 	testb  $0x40,-0xb4(%ebp)
     6bf:	74 7e                	je     73f <_svfprintf_r+0x73f>
     6c1:	0f b7 08             	movzwl (%eax),%ecx
     6c4:	83 c0 04             	add    $0x4,%eax
     6c7:	89 45 14             	mov    %eax,0x14(%ebp)
     6ca:	31 c0                	xor    %eax,%eax
     6cc:	e9 0f fd ff ff       	jmp    3e0 <_svfprintf_r+0x3e0>
     6d1:	83 8d 4c ff ff ff 08 	orl    $0x8,-0xb4(%ebp)
     6d8:	89 c8                	mov    %ecx,%eax
     6da:	e9 4e fa ff ff       	jmp    12d <_svfprintf_r+0x12d>
     6df:	f6 85 4c ff ff ff 10 	testb  $0x10,-0xb4(%ebp)
     6e6:	89 4d 10             	mov    %ecx,0x10(%ebp)
     6e9:	88 9d 59 ff ff ff    	mov    %bl,-0xa7(%ebp)
     6ef:	0f 85 97 0b 00 00    	jne    128c <_svfprintf_r+0x128c>
     6f5:	f6 85 4c ff ff ff 40 	testb  $0x40,-0xb4(%ebp)
     6fc:	0f 84 8a 0b 00 00    	je     128c <_svfprintf_r+0x128c>
     702:	8b 45 14             	mov    0x14(%ebp),%eax
     705:	0f b7 95 34 ff ff ff 	movzwl -0xcc(%ebp),%edx
     70c:	8b 00                	mov    (%eax),%eax
     70e:	66 89 10             	mov    %dx,(%eax)
     711:	8b 45 14             	mov    0x14(%ebp),%eax
     714:	83 c0 04             	add    $0x4,%eax
     717:	89 45 14             	mov    %eax,0x14(%ebp)
     71a:	e9 7c f9 ff ff       	jmp    9b <_svfprintf_r+0x9b>
     71f:	83 8d 4c ff ff ff 10 	orl    $0x10,-0xb4(%ebp)
     726:	f6 85 4c ff ff ff 10 	testb  $0x10,-0xb4(%ebp)
     72d:	89 85 24 ff ff ff    	mov    %eax,-0xdc(%ebp)
     733:	8b 45 14             	mov    0x14(%ebp),%eax
     736:	89 4d 10             	mov    %ecx,0x10(%ebp)
     739:	0f 84 79 ff ff ff    	je     6b8 <_svfprintf_r+0x6b8>
     73f:	8b 08                	mov    (%eax),%ecx
     741:	83 c0 04             	add    $0x4,%eax
     744:	89 45 14             	mov    %eax,0x14(%ebp)
     747:	31 c0                	xor    %eax,%eax
     749:	e9 92 fc ff ff       	jmp    3e0 <_svfprintf_r+0x3e0>
     74e:	f6 85 4c ff ff ff 10 	testb  $0x10,-0xb4(%ebp)
     755:	89 85 24 ff ff ff    	mov    %eax,-0xdc(%ebp)
     75b:	8b 45 14             	mov    0x14(%ebp),%eax
     75e:	89 4d 10             	mov    %ecx,0x10(%ebp)
     761:	88 9d 59 ff ff ff    	mov    %bl,-0xa7(%ebp)
     767:	0f 84 9f fd ff ff    	je     50c <_svfprintf_r+0x50c>
     76d:	8b 08                	mov    (%eax),%ecx
     76f:	83 c0 04             	add    $0x4,%eax
     772:	89 45 14             	mov    %eax,0x14(%ebp)
     775:	85 c9                	test   %ecx,%ecx
     777:	0f 89 ad fd ff ff    	jns    52a <_svfprintf_r+0x52a>
     77d:	f7 d9                	neg    %ecx
     77f:	bb 2d 00 00 00       	mov    $0x2d,%ebx
     784:	c6 85 59 ff ff ff 2d 	movb   $0x2d,-0xa7(%ebp)
     78b:	b8 01 00 00 00       	mov    $0x1,%eax
     790:	e9 54 fc ff ff       	jmp    3e9 <_svfprintf_r+0x3e9>
     795:	83 8d 4c ff ff ff 40 	orl    $0x40,-0xb4(%ebp)
     79c:	89 c8                	mov    %ecx,%eax
     79e:	e9 8a f9 ff ff       	jmp    12d <_svfprintf_r+0x12d>
     7a3:	f6 85 4c ff ff ff 10 	testb  $0x10,-0xb4(%ebp)
     7aa:	89 85 24 ff ff ff    	mov    %eax,-0xdc(%ebp)
     7b0:	8b 45 14             	mov    0x14(%ebp),%eax
     7b3:	89 4d 10             	mov    %ecx,0x10(%ebp)
     7b6:	88 9d 59 ff ff ff    	mov    %bl,-0xa7(%ebp)
     7bc:	c7 85 18 ff ff ff 21 	movl   $0x21,-0xe8(%ebp)
     7c3:	00 00 00 
     7c6:	75 71                	jne    839 <_svfprintf_r+0x839>
     7c8:	f6 85 4c ff ff ff 40 	testb  $0x40,-0xb4(%ebp)
     7cf:	74 68                	je     839 <_svfprintf_r+0x839>
     7d1:	0f b7 08             	movzwl (%eax),%ecx
     7d4:	83 c0 04             	add    $0x4,%eax
     7d7:	89 45 14             	mov    %eax,0x14(%ebp)
     7da:	f6 85 4c ff ff ff 01 	testb  $0x1,-0xb4(%ebp)
     7e1:	b8 02 00 00 00       	mov    $0x2,%eax
     7e6:	0f 84 f4 fb ff ff    	je     3e0 <_svfprintf_r+0x3e0>
     7ec:	85 c9                	test   %ecx,%ecx
     7ee:	0f 84 ec fb ff ff    	je     3e0 <_svfprintf_r+0x3e0>
     7f4:	0f b6 95 24 ff ff ff 	movzbl -0xdc(%ebp),%edx
     7fb:	c6 85 5a ff ff ff 30 	movb   $0x30,-0xa6(%ebp)
     802:	83 8d 4c ff ff ff 02 	orl    $0x2,-0xb4(%ebp)
     809:	88 95 5b ff ff ff    	mov    %dl,-0xa5(%ebp)
     80f:	e9 cc fb ff ff       	jmp    3e0 <_svfprintf_r+0x3e0>
     814:	f6 85 4c ff ff ff 10 	testb  $0x10,-0xb4(%ebp)
     81b:	89 85 24 ff ff ff    	mov    %eax,-0xdc(%ebp)
     821:	8b 45 14             	mov    0x14(%ebp),%eax
     824:	89 4d 10             	mov    %ecx,0x10(%ebp)
     827:	88 9d 59 ff ff ff    	mov    %bl,-0xa7(%ebp)
     82d:	c7 85 18 ff ff ff 10 	movl   $0x10,-0xe8(%ebp)
     834:	00 00 00 
     837:	74 8f                	je     7c8 <_svfprintf_r+0x7c8>
     839:	8b 08                	mov    (%eax),%ecx
     83b:	83 c0 04             	add    $0x4,%eax
     83e:	89 45 14             	mov    %eax,0x14(%ebp)
     841:	eb 97                	jmp    7da <_svfprintf_r+0x7da>
     843:	89 85 24 ff ff ff    	mov    %eax,-0xdc(%ebp)
     849:	8b 45 14             	mov    0x14(%ebp),%eax
     84c:	89 4d 10             	mov    %ecx,0x10(%ebp)
     84f:	c6 85 59 ff ff ff 00 	movb   $0x0,-0xa7(%ebp)
     856:	8b 00                	mov    (%eax),%eax
     858:	88 45 80             	mov    %al,-0x80(%ebp)
     85b:	8b 45 14             	mov    0x14(%ebp),%eax
     85e:	83 c0 04             	add    $0x4,%eax
     861:	89 45 14             	mov    %eax,0x14(%ebp)
     864:	8d 45 80             	lea    -0x80(%ebp),%eax
     867:	31 db                	xor    %ebx,%ebx
     869:	c7 85 48 ff ff ff 01 	movl   $0x1,-0xb8(%ebp)
     870:	00 00 00 
     873:	c7 85 38 ff ff ff 01 	movl   $0x1,-0xc8(%ebp)
     87a:	00 00 00 
     87d:	c7 85 44 ff ff ff 00 	movl   $0x0,-0xbc(%ebp)
     884:	00 00 00 
     887:	c7 85 20 ff ff ff 00 	movl   $0x0,-0xe0(%ebp)
     88e:	00 00 00 
     891:	89 85 28 ff ff ff    	mov    %eax,-0xd8(%ebp)
     897:	e9 07 fa ff ff       	jmp    2a3 <_svfprintf_r+0x2a3>
     89c:	83 8d 4c ff ff ff 10 	orl    $0x10,-0xb4(%ebp)
     8a3:	f6 85 4c ff ff ff 10 	testb  $0x10,-0xb4(%ebp)
     8aa:	89 85 24 ff ff ff    	mov    %eax,-0xdc(%ebp)
     8b0:	8b 45 14             	mov    0x14(%ebp),%eax
     8b3:	89 4d 10             	mov    %ecx,0x10(%ebp)
     8b6:	0f 84 03 fb ff ff    	je     3bf <_svfprintf_r+0x3bf>
     8bc:	8b 08                	mov    (%eax),%ecx
     8be:	83 c0 04             	add    $0x4,%eax
     8c1:	89 45 14             	mov    %eax,0x14(%ebp)
     8c4:	b8 01 00 00 00       	mov    $0x1,%eax
     8c9:	e9 12 fb ff ff       	jmp    3e0 <_svfprintf_r+0x3e0>
     8ce:	85 c0                	test   %eax,%eax
     8d0:	89 85 24 ff ff ff    	mov    %eax,-0xdc(%ebp)
     8d6:	89 4d 10             	mov    %ecx,0x10(%ebp)
     8d9:	88 9d 59 ff ff ff    	mov    %bl,-0xa7(%ebp)
     8df:	0f 84 c3 f8 ff ff    	je     1a8 <_svfprintf_r+0x1a8>
     8e5:	88 45 80             	mov    %al,-0x80(%ebp)
     8e8:	c6 85 59 ff ff ff 00 	movb   $0x0,-0xa7(%ebp)
     8ef:	e9 70 ff ff ff       	jmp    864 <_svfprintf_r+0x864>
     8f4:	8d 74 26 00          	lea    0x0(%esi,%eiz,1),%esi
     8f8:	8b 8d 7c ff ff ff    	mov    -0x84(%ebp),%ecx
     8fe:	84 db                	test   %bl,%bl
     900:	74 33                	je     935 <_svfprintf_r+0x935>
     902:	8d 85 59 ff ff ff    	lea    -0xa7(%ebp),%eax
     908:	83 c1 01             	add    $0x1,%ecx
     90b:	89 07                	mov    %eax,(%edi)
     90d:	8b 85 78 ff ff ff    	mov    -0x88(%ebp),%eax
     913:	83 c7 08             	add    $0x8,%edi
     916:	c7 47 fc 01 00 00 00 	movl   $0x1,-0x4(%edi)
     91d:	89 8d 7c ff ff ff    	mov    %ecx,-0x84(%ebp)
     923:	83 c0 01             	add    $0x1,%eax
     926:	83 f8 07             	cmp    $0x7,%eax
     929:	89 85 78 ff ff ff    	mov    %eax,-0x88(%ebp)
     92f:	0f 8f 7b 06 00 00    	jg     fb0 <_svfprintf_r+0xfb0>
     935:	8b 9d 30 ff ff ff    	mov    -0xd0(%ebp),%ebx
     93b:	85 db                	test   %ebx,%ebx
     93d:	74 33                	je     972 <_svfprintf_r+0x972>
     93f:	8d 85 5a ff ff ff    	lea    -0xa6(%ebp),%eax
     945:	83 c1 02             	add    $0x2,%ecx
     948:	89 07                	mov    %eax,(%edi)
     94a:	8b 85 78 ff ff ff    	mov    -0x88(%ebp),%eax
     950:	83 c7 08             	add    $0x8,%edi
     953:	c7 47 fc 02 00 00 00 	movl   $0x2,-0x4(%edi)
     95a:	89 8d 7c ff ff ff    	mov    %ecx,-0x84(%ebp)
     960:	83 c0 01             	add    $0x1,%eax
     963:	83 f8 07             	cmp    $0x7,%eax
     966:	89 85 78 ff ff ff    	mov    %eax,-0x88(%ebp)
     96c:	0f 8f 06 06 00 00    	jg     f78 <_svfprintf_r+0xf78>
     972:	81 bd 2c ff ff ff 80 	cmpl   $0x80,-0xd4(%ebp)
     979:	00 00 00 
     97c:	0f 84 c6 03 00 00    	je     d48 <_svfprintf_r+0xd48>
     982:	8b b5 44 ff ff ff    	mov    -0xbc(%ebp),%esi
     988:	2b b5 38 ff ff ff    	sub    -0xc8(%ebp),%esi
     98e:	85 f6                	test   %esi,%esi
     990:	0f 8e d2 00 00 00    	jle    a68 <_svfprintf_r+0xa68>
     996:	83 fe 10             	cmp    $0x10,%esi
     999:	8b 85 78 ff ff ff    	mov    -0x88(%ebp),%eax
     99f:	8d 9d 74 ff ff ff    	lea    -0x8c(%ebp),%ebx
     9a5:	7f 11                	jg     9b8 <_svfprintf_r+0x9b8>
     9a7:	eb 6b                	jmp    a14 <_svfprintf_r+0xa14>
     9a9:	8d b4 26 00 00 00 00 	lea    0x0(%esi,%eiz,1),%esi
     9b0:	83 ee 10             	sub    $0x10,%esi
     9b3:	83 fe 10             	cmp    $0x10,%esi
     9b6:	7e 5c                	jle    a14 <_svfprintf_r+0xa14>
     9b8:	83 c0 01             	add    $0x1,%eax
     9bb:	83 c1 10             	add    $0x10,%ecx
     9be:	c7 07 64 01 00 00    	movl   $0x164,(%edi)
     9c4:	83 c7 08             	add    $0x8,%edi
     9c7:	c7 47 fc 10 00 00 00 	movl   $0x10,-0x4(%edi)
     9ce:	83 f8 07             	cmp    $0x7,%eax
     9d1:	89 8d 7c ff ff ff    	mov    %ecx,-0x84(%ebp)
     9d7:	89 85 78 ff ff ff    	mov    %eax,-0x88(%ebp)
     9dd:	7e d1                	jle    9b0 <_svfprintf_r+0x9b0>
     9df:	8b 45 0c             	mov    0xc(%ebp),%eax
     9e2:	89 5c 24 08          	mov    %ebx,0x8(%esp)
     9e6:	89 44 24 04          	mov    %eax,0x4(%esp)
     9ea:	8b 45 08             	mov    0x8(%ebp),%eax
     9ed:	89 04 24             	mov    %eax,(%esp)
     9f0:	e8 fc ff ff ff       	call   9f1 <_svfprintf_r+0x9f1>
     9f5:	85 c0                	test   %eax,%eax
     9f7:	0f 85 d3 f7 ff ff    	jne    1d0 <_svfprintf_r+0x1d0>
     9fd:	83 ee 10             	sub    $0x10,%esi
     a00:	8b 8d 7c ff ff ff    	mov    -0x84(%ebp),%ecx
     a06:	83 fe 10             	cmp    $0x10,%esi
     a09:	8b 85 78 ff ff ff    	mov    -0x88(%ebp),%eax
     a0f:	8d 7d a8             	lea    -0x58(%ebp),%edi
     a12:	7f a4                	jg     9b8 <_svfprintf_r+0x9b8>
     a14:	83 c0 01             	add    $0x1,%eax
     a17:	01 f1                	add    %esi,%ecx
     a19:	c7 07 64 01 00 00    	movl   $0x164,(%edi)
     a1f:	83 c7 08             	add    $0x8,%edi
     a22:	89 77 fc             	mov    %esi,-0x4(%edi)
     a25:	83 f8 07             	cmp    $0x7,%eax
     a28:	89 8d 7c ff ff ff    	mov    %ecx,-0x84(%ebp)
     a2e:	89 85 78 ff ff ff    	mov    %eax,-0x88(%ebp)
     a34:	7e 32                	jle    a68 <_svfprintf_r+0xa68>
     a36:	8d 85 74 ff ff ff    	lea    -0x8c(%ebp),%eax
     a3c:	89 44 24 08          	mov    %eax,0x8(%esp)
     a40:	8b 45 0c             	mov    0xc(%ebp),%eax
     a43:	89 44 24 04          	mov    %eax,0x4(%esp)
     a47:	8b 45 08             	mov    0x8(%ebp),%eax
     a4a:	89 04 24             	mov    %eax,(%esp)
     a4d:	e8 fc ff ff ff       	call   a4e <_svfprintf_r+0xa4e>
     a52:	85 c0                	test   %eax,%eax
     a54:	0f 85 76 f7 ff ff    	jne    1d0 <_svfprintf_r+0x1d0>
     a5a:	8b 8d 7c ff ff ff    	mov    -0x84(%ebp),%ecx
     a60:	8d 7d a8             	lea    -0x58(%ebp),%edi
     a63:	90                   	nop
     a64:	8d 74 26 00          	lea    0x0(%esi,%eiz,1),%esi
     a68:	f7 85 4c ff ff ff 00 	testl  $0x100,-0xb4(%ebp)
     a6f:	01 00 00 
     a72:	0f 85 50 01 00 00    	jne    bc8 <_svfprintf_r+0xbc8>
     a78:	8b 85 28 ff ff ff    	mov    -0xd8(%ebp),%eax
     a7e:	89 07                	mov    %eax,(%edi)
     a80:	8b 85 38 ff ff ff    	mov    -0xc8(%ebp),%eax
     a86:	01 c1                	add    %eax,%ecx
     a88:	89 47 04             	mov    %eax,0x4(%edi)
     a8b:	8b 85 78 ff ff ff    	mov    -0x88(%ebp),%eax
     a91:	89 8d 7c ff ff ff    	mov    %ecx,-0x84(%ebp)
     a97:	83 c0 01             	add    $0x1,%eax
     a9a:	83 f8 07             	cmp    $0x7,%eax
     a9d:	89 85 78 ff ff ff    	mov    %eax,-0x88(%ebp)
     aa3:	0f 8f 6a 04 00 00    	jg     f13 <_svfprintf_r+0xf13>
     aa9:	83 c7 08             	add    $0x8,%edi
     aac:	f6 85 4c ff ff ff 04 	testb  $0x4,-0xb4(%ebp)
     ab3:	0f 84 d7 00 00 00    	je     b90 <_svfprintf_r+0xb90>
     ab9:	8b b5 40 ff ff ff    	mov    -0xc0(%ebp),%esi
     abf:	2b b5 48 ff ff ff    	sub    -0xb8(%ebp),%esi
     ac5:	85 f6                	test   %esi,%esi
     ac7:	0f 8e c3 00 00 00    	jle    b90 <_svfprintf_r+0xb90>
     acd:	83 fe 10             	cmp    $0x10,%esi
     ad0:	8b 85 78 ff ff ff    	mov    -0x88(%ebp),%eax
     ad6:	8d 9d 74 ff ff ff    	lea    -0x8c(%ebp),%ebx
     adc:	7f 0a                	jg     ae8 <_svfprintf_r+0xae8>
     ade:	eb 64                	jmp    b44 <_svfprintf_r+0xb44>
     ae0:	83 ee 10             	sub    $0x10,%esi
     ae3:	83 fe 10             	cmp    $0x10,%esi
     ae6:	7e 5c                	jle    b44 <_svfprintf_r+0xb44>
     ae8:	83 c0 01             	add    $0x1,%eax
     aeb:	83 c1 10             	add    $0x10,%ecx
     aee:	c7 07 74 01 00 00    	movl   $0x174,(%edi)
     af4:	83 c7 08             	add    $0x8,%edi
     af7:	c7 47 fc 10 00 00 00 	movl   $0x10,-0x4(%edi)
     afe:	83 f8 07             	cmp    $0x7,%eax
     b01:	89 8d 7c ff ff ff    	mov    %ecx,-0x84(%ebp)
     b07:	89 85 78 ff ff ff    	mov    %eax,-0x88(%ebp)
     b0d:	7e d1                	jle    ae0 <_svfprintf_r+0xae0>
     b0f:	8b 45 0c             	mov    0xc(%ebp),%eax
     b12:	89 5c 24 08          	mov    %ebx,0x8(%esp)
     b16:	89 44 24 04          	mov    %eax,0x4(%esp)
     b1a:	8b 45 08             	mov    0x8(%ebp),%eax
     b1d:	89 04 24             	mov    %eax,(%esp)
     b20:	e8 fc ff ff ff       	call   b21 <_svfprintf_r+0xb21>
     b25:	85 c0                	test   %eax,%eax
     b27:	0f 85 a3 f6 ff ff    	jne    1d0 <_svfprintf_r+0x1d0>
     b2d:	83 ee 10             	sub    $0x10,%esi
     b30:	8b 8d 7c ff ff ff    	mov    -0x84(%ebp),%ecx
     b36:	83 fe 10             	cmp    $0x10,%esi
     b39:	8b 85 78 ff ff ff    	mov    -0x88(%ebp),%eax
     b3f:	8d 7d a8             	lea    -0x58(%ebp),%edi
     b42:	7f a4                	jg     ae8 <_svfprintf_r+0xae8>
     b44:	83 c0 01             	add    $0x1,%eax
     b47:	01 f1                	add    %esi,%ecx
     b49:	83 f8 07             	cmp    $0x7,%eax
     b4c:	c7 07 74 01 00 00    	movl   $0x174,(%edi)
     b52:	89 77 04             	mov    %esi,0x4(%edi)
     b55:	89 8d 7c ff ff ff    	mov    %ecx,-0x84(%ebp)
     b5b:	89 85 78 ff ff ff    	mov    %eax,-0x88(%ebp)
     b61:	7e 2d                	jle    b90 <_svfprintf_r+0xb90>
     b63:	8d 85 74 ff ff ff    	lea    -0x8c(%ebp),%eax
     b69:	89 44 24 08          	mov    %eax,0x8(%esp)
     b6d:	8b 45 0c             	mov    0xc(%ebp),%eax
     b70:	89 44 24 04          	mov    %eax,0x4(%esp)
     b74:	8b 45 08             	mov    0x8(%ebp),%eax
     b77:	89 04 24             	mov    %eax,(%esp)
     b7a:	e8 fc ff ff ff       	call   b7b <_svfprintf_r+0xb7b>
     b7f:	85 c0                	test   %eax,%eax
     b81:	0f 85 49 f6 ff ff    	jne    1d0 <_svfprintf_r+0x1d0>
     b87:	8b 8d 7c ff ff ff    	mov    -0x84(%ebp),%ecx
     b8d:	8d 76 00             	lea    0x0(%esi),%esi
     b90:	8b 85 40 ff ff ff    	mov    -0xc0(%ebp),%eax
     b96:	8b 95 48 ff ff ff    	mov    -0xb8(%ebp),%edx
     b9c:	39 c2                	cmp    %eax,%edx
     b9e:	0f 4d c2             	cmovge %edx,%eax
     ba1:	01 85 34 ff ff ff    	add    %eax,-0xcc(%ebp)
     ba7:	85 c9                	test   %ecx,%ecx
     ba9:	0f 85 99 03 00 00    	jne    f48 <_svfprintf_r+0xf48>
     baf:	c7 85 78 ff ff ff 00 	movl   $0x0,-0x88(%ebp)
     bb6:	00 00 00 
     bb9:	8d 7d a8             	lea    -0x58(%ebp),%edi
     bbc:	e9 da f4 ff ff       	jmp    9b <_svfprintf_r+0x9b>
     bc1:	8d b4 26 00 00 00 00 	lea    0x0(%esi,%eiz,1),%esi
     bc8:	83 bd 24 ff ff ff 65 	cmpl   $0x65,-0xdc(%ebp)
     bcf:	0f 8e 5b 02 00 00    	jle    e30 <_svfprintf_r+0xe30>
     bd5:	d9 ee                	fldz   
     bd7:	dd 85 10 ff ff ff    	fldl   -0xf0(%ebp)
     bdd:	df e9                	fucomip %st(1),%st
     bdf:	dd d8                	fstp   %st(0)
     be1:	0f 8a 59 04 00 00    	jp     1040 <_svfprintf_r+0x1040>
     be7:	0f 85 53 04 00 00    	jne    1040 <_svfprintf_r+0x1040>
     bed:	8b 85 78 ff ff ff    	mov    -0x88(%ebp),%eax
     bf3:	83 c1 01             	add    $0x1,%ecx
     bf6:	83 c7 08             	add    $0x8,%edi
     bf9:	c7 47 f8 39 00 00 00 	movl   $0x39,-0x8(%edi)
     c00:	c7 47 fc 01 00 00 00 	movl   $0x1,-0x4(%edi)
     c07:	89 8d 7c ff ff ff    	mov    %ecx,-0x84(%ebp)
     c0d:	83 c0 01             	add    $0x1,%eax
     c10:	83 f8 07             	cmp    $0x7,%eax
     c13:	89 85 78 ff ff ff    	mov    %eax,-0x88(%ebp)
     c19:	0f 8f 63 09 00 00    	jg     1582 <_svfprintf_r+0x1582>
     c1f:	8b 85 1c ff ff ff    	mov    -0xe4(%ebp),%eax
     c25:	39 85 5c ff ff ff    	cmp    %eax,-0xa4(%ebp)
     c2b:	7c 0d                	jl     c3a <_svfprintf_r+0xc3a>
     c2d:	f6 85 4c ff ff ff 01 	testb  $0x1,-0xb4(%ebp)
     c34:	0f 84 72 fe ff ff    	je     aac <_svfprintf_r+0xaac>
     c3a:	8b 85 0c ff ff ff    	mov    -0xf4(%ebp),%eax
     c40:	83 c7 08             	add    $0x8,%edi
     c43:	89 47 f8             	mov    %eax,-0x8(%edi)
     c46:	8b 85 08 ff ff ff    	mov    -0xf8(%ebp),%eax
     c4c:	89 47 fc             	mov    %eax,-0x4(%edi)
     c4f:	01 c1                	add    %eax,%ecx
     c51:	8b 85 78 ff ff ff    	mov    -0x88(%ebp),%eax
     c57:	89 8d 7c ff ff ff    	mov    %ecx,-0x84(%ebp)
     c5d:	83 c0 01             	add    $0x1,%eax
     c60:	83 f8 07             	cmp    $0x7,%eax
     c63:	89 85 78 ff ff ff    	mov    %eax,-0x88(%ebp)
     c69:	0f 8f dc 0b 00 00    	jg     184b <_svfprintf_r+0x184b>
     c6f:	8b 85 1c ff ff ff    	mov    -0xe4(%ebp),%eax
     c75:	8d 70 ff             	lea    -0x1(%eax),%esi
     c78:	85 f6                	test   %esi,%esi
     c7a:	0f 8e 2c fe ff ff    	jle    aac <_svfprintf_r+0xaac>
     c80:	83 fe 10             	cmp    $0x10,%esi
     c83:	8b 85 78 ff ff ff    	mov    -0x88(%ebp),%eax
     c89:	8d 9d 74 ff ff ff    	lea    -0x8c(%ebp),%ebx
     c8f:	7f 13                	jg     ca4 <_svfprintf_r+0xca4>
     c91:	e9 e6 05 00 00       	jmp    127c <_svfprintf_r+0x127c>
     c96:	66 90                	xchg   %ax,%ax
     c98:	83 ee 10             	sub    $0x10,%esi
     c9b:	83 fe 10             	cmp    $0x10,%esi
     c9e:	0f 8e d8 05 00 00    	jle    127c <_svfprintf_r+0x127c>
     ca4:	83 c0 01             	add    $0x1,%eax
     ca7:	83 c1 10             	add    $0x10,%ecx
     caa:	c7 07 64 01 00 00    	movl   $0x164,(%edi)
     cb0:	83 c7 08             	add    $0x8,%edi
     cb3:	c7 47 fc 10 00 00 00 	movl   $0x10,-0x4(%edi)
     cba:	83 f8 07             	cmp    $0x7,%eax
     cbd:	89 8d 7c ff ff ff    	mov    %ecx,-0x84(%ebp)
     cc3:	89 85 78 ff ff ff    	mov    %eax,-0x88(%ebp)
     cc9:	7e cd                	jle    c98 <_svfprintf_r+0xc98>
     ccb:	8b 45 0c             	mov    0xc(%ebp),%eax
     cce:	89 5c 24 08          	mov    %ebx,0x8(%esp)
     cd2:	89 44 24 04          	mov    %eax,0x4(%esp)
     cd6:	8b 45 08             	mov    0x8(%ebp),%eax
     cd9:	89 04 24             	mov    %eax,(%esp)
     cdc:	e8 fc ff ff ff       	call   cdd <_svfprintf_r+0xcdd>
     ce1:	85 c0                	test   %eax,%eax
     ce3:	0f 85 e7 f4 ff ff    	jne    1d0 <_svfprintf_r+0x1d0>
     ce9:	8b 8d 7c ff ff ff    	mov    -0x84(%ebp),%ecx
     cef:	8d 7d a8             	lea    -0x58(%ebp),%edi
     cf2:	8b 85 78 ff ff ff    	mov    -0x88(%ebp),%eax
     cf8:	eb 9e                	jmp    c98 <_svfprintf_r+0xc98>
     cfa:	8d b6 00 00 00 00    	lea    0x0(%esi),%esi
     d00:	84 c0                	test   %al,%al
     d02:	75 2c                	jne    d30 <_svfprintf_r+0xd30>
     d04:	f6 85 4c ff ff ff 01 	testb  $0x1,-0xb4(%ebp)
     d0b:	74 23                	je     d30 <_svfprintf_r+0xd30>
     d0d:	8b 85 00 ff ff ff    	mov    -0x100(%ebp),%eax
     d13:	c6 45 a7 30          	movb   $0x30,-0x59(%ebp)
     d17:	89 85 38 ff ff ff    	mov    %eax,-0xc8(%ebp)
     d1d:	8d 45 a7             	lea    -0x59(%ebp),%eax
     d20:	89 85 28 ff ff ff    	mov    %eax,-0xd8(%ebp)
     d26:	e9 2d f7 ff ff       	jmp    458 <_svfprintf_r+0x458>
     d2b:	90                   	nop
     d2c:	8d 74 26 00          	lea    0x0(%esi,%eiz,1),%esi
     d30:	8d 45 a8             	lea    -0x58(%ebp),%eax
     d33:	c7 85 38 ff ff ff 00 	movl   $0x0,-0xc8(%ebp)
     d3a:	00 00 00 
     d3d:	89 85 28 ff ff ff    	mov    %eax,-0xd8(%ebp)
     d43:	e9 10 f7 ff ff       	jmp    458 <_svfprintf_r+0x458>
     d48:	8b b5 40 ff ff ff    	mov    -0xc0(%ebp),%esi
     d4e:	2b b5 48 ff ff ff    	sub    -0xb8(%ebp),%esi
     d54:	85 f6                	test   %esi,%esi
     d56:	0f 8e 26 fc ff ff    	jle    982 <_svfprintf_r+0x982>
     d5c:	83 fe 10             	cmp    $0x10,%esi
     d5f:	8b 85 78 ff ff ff    	mov    -0x88(%ebp),%eax
     d65:	8d 9d 74 ff ff ff    	lea    -0x8c(%ebp),%ebx
     d6b:	7f 0b                	jg     d78 <_svfprintf_r+0xd78>
     d6d:	eb 65                	jmp    dd4 <_svfprintf_r+0xdd4>
     d6f:	90                   	nop
     d70:	83 ee 10             	sub    $0x10,%esi
     d73:	83 fe 10             	cmp    $0x10,%esi
     d76:	7e 5c                	jle    dd4 <_svfprintf_r+0xdd4>
     d78:	83 c0 01             	add    $0x1,%eax
     d7b:	83 c1 10             	add    $0x10,%ecx
     d7e:	c7 07 64 01 00 00    	movl   $0x164,(%edi)
     d84:	83 c7 08             	add    $0x8,%edi
     d87:	c7 47 fc 10 00 00 00 	movl   $0x10,-0x4(%edi)
     d8e:	83 f8 07             	cmp    $0x7,%eax
     d91:	89 8d 7c ff ff ff    	mov    %ecx,-0x84(%ebp)
     d97:	89 85 78 ff ff ff    	mov    %eax,-0x88(%ebp)
     d9d:	7e d1                	jle    d70 <_svfprintf_r+0xd70>
     d9f:	8b 45 0c             	mov    0xc(%ebp),%eax
     da2:	89 5c 24 08          	mov    %ebx,0x8(%esp)
     da6:	89 44 24 04          	mov    %eax,0x4(%esp)
     daa:	8b 45 08             	mov    0x8(%ebp),%eax
     dad:	89 04 24             	mov    %eax,(%esp)
     db0:	e8 fc ff ff ff       	call   db1 <_svfprintf_r+0xdb1>
     db5:	85 c0                	test   %eax,%eax
     db7:	0f 85 13 f4 ff ff    	jne    1d0 <_svfprintf_r+0x1d0>
     dbd:	83 ee 10             	sub    $0x10,%esi
     dc0:	8b 8d 7c ff ff ff    	mov    -0x84(%ebp),%ecx
     dc6:	83 fe 10             	cmp    $0x10,%esi
     dc9:	8b 85 78 ff ff ff    	mov    -0x88(%ebp),%eax
     dcf:	8d 7d a8             	lea    -0x58(%ebp),%edi
     dd2:	7f a4                	jg     d78 <_svfprintf_r+0xd78>
     dd4:	83 c0 01             	add    $0x1,%eax
     dd7:	01 f1                	add    %esi,%ecx
     dd9:	c7 07 64 01 00 00    	movl   $0x164,(%edi)
     ddf:	83 c7 08             	add    $0x8,%edi
     de2:	89 77 fc             	mov    %esi,-0x4(%edi)
     de5:	83 f8 07             	cmp    $0x7,%eax
     de8:	89 8d 7c ff ff ff    	mov    %ecx,-0x84(%ebp)
     dee:	89 85 78 ff ff ff    	mov    %eax,-0x88(%ebp)
     df4:	0f 8e 88 fb ff ff    	jle    982 <_svfprintf_r+0x982>
     dfa:	8d 85 74 ff ff ff    	lea    -0x8c(%ebp),%eax
     e00:	89 44 24 08          	mov    %eax,0x8(%esp)
     e04:	8b 45 0c             	mov    0xc(%ebp),%eax
     e07:	89 44 24 04          	mov    %eax,0x4(%esp)
     e0b:	8b 45 08             	mov    0x8(%ebp),%eax
     e0e:	89 04 24             	mov    %eax,(%esp)
     e11:	e8 fc ff ff ff       	call   e12 <_svfprintf_r+0xe12>
     e16:	85 c0                	test   %eax,%eax
     e18:	0f 85 b2 f3 ff ff    	jne    1d0 <_svfprintf_r+0x1d0>
     e1e:	8b 8d 7c ff ff ff    	mov    -0x84(%ebp),%ecx
     e24:	8d 7d a8             	lea    -0x58(%ebp),%edi
     e27:	e9 56 fb ff ff       	jmp    982 <_svfprintf_r+0x982>
     e2c:	8d 74 26 00          	lea    0x0(%esi,%eiz,1),%esi
     e30:	83 bd 1c ff ff ff 01 	cmpl   $0x1,-0xe4(%ebp)
     e37:	8b 85 28 ff ff ff    	mov    -0xd8(%ebp),%eax
     e3d:	0f 8e df 05 00 00    	jle    1422 <_svfprintf_r+0x1422>
     e43:	89 07                	mov    %eax,(%edi)
     e45:	8b 85 78 ff ff ff    	mov    -0x88(%ebp),%eax
     e4b:	8d 51 01             	lea    0x1(%ecx),%edx
     e4e:	c7 47 04 01 00 00 00 	movl   $0x1,0x4(%edi)
     e55:	83 c7 08             	add    $0x8,%edi
     e58:	89 95 7c ff ff ff    	mov    %edx,-0x84(%ebp)
     e5e:	83 c0 01             	add    $0x1,%eax
     e61:	83 f8 07             	cmp    $0x7,%eax
     e64:	89 85 78 ff ff ff    	mov    %eax,-0x88(%ebp)
     e6a:	0f 8f 59 06 00 00    	jg     14c9 <_svfprintf_r+0x14c9>
     e70:	8b 9d 0c ff ff ff    	mov    -0xf4(%ebp),%ebx
     e76:	83 c0 01             	add    $0x1,%eax
     e79:	83 c7 08             	add    $0x8,%edi
     e7c:	89 85 78 ff ff ff    	mov    %eax,-0x88(%ebp)
     e82:	89 5f f8             	mov    %ebx,-0x8(%edi)
     e85:	8b 9d 08 ff ff ff    	mov    -0xf8(%ebp),%ebx
     e8b:	89 5f fc             	mov    %ebx,-0x4(%edi)
     e8e:	01 da                	add    %ebx,%edx
     e90:	83 f8 07             	cmp    $0x7,%eax
     e93:	89 95 7c ff ff ff    	mov    %edx,-0x84(%ebp)
     e99:	0f 8f f2 05 00 00    	jg     1491 <_svfprintf_r+0x1491>
     e9f:	d9 ee                	fldz   
     ea1:	dd 85 10 ff ff ff    	fldl   -0xf0(%ebp)
     ea7:	df e9                	fucomip %st(1),%st
     ea9:	dd d8                	fstp   %st(0)
     eab:	7a 06                	jp     eb3 <_svfprintf_r+0xeb3>
     ead:	0f 84 33 03 00 00    	je     11e6 <_svfprintf_r+0x11e6>
     eb3:	8b 8d 28 ff ff ff    	mov    -0xd8(%ebp),%ecx
     eb9:	8b 9d 1c ff ff ff    	mov    -0xe4(%ebp),%ebx
     ebf:	83 c1 01             	add    $0x1,%ecx
     ec2:	89 0f                	mov    %ecx,(%edi)
     ec4:	8d 4b ff             	lea    -0x1(%ebx),%ecx
     ec7:	89 4f 04             	mov    %ecx,0x4(%edi)
     eca:	01 ca                	add    %ecx,%edx
     ecc:	83 c0 01             	add    $0x1,%eax
     ecf:	83 f8 07             	cmp    $0x7,%eax
     ed2:	89 95 7c ff ff ff    	mov    %edx,-0x84(%ebp)
     ed8:	89 85 78 ff ff ff    	mov    %eax,-0x88(%ebp)
     ede:	0f 8f 75 05 00 00    	jg     1459 <_svfprintf_r+0x1459>
     ee4:	83 c7 08             	add    $0x8,%edi
     ee7:	8b 9d 04 ff ff ff    	mov    -0xfc(%ebp),%ebx
     eed:	8d 8d 65 ff ff ff    	lea    -0x9b(%ebp),%ecx
     ef3:	89 0f                	mov    %ecx,(%edi)
     ef5:	89 5f 04             	mov    %ebx,0x4(%edi)
     ef8:	8d 0c 1a             	lea    (%edx,%ebx,1),%ecx
     efb:	83 c0 01             	add    $0x1,%eax
     efe:	83 f8 07             	cmp    $0x7,%eax
     f01:	89 8d 7c ff ff ff    	mov    %ecx,-0x84(%ebp)
     f07:	89 85 78 ff ff ff    	mov    %eax,-0x88(%ebp)
     f0d:	0f 8e 96 fb ff ff    	jle    aa9 <_svfprintf_r+0xaa9>
     f13:	8d 85 74 ff ff ff    	lea    -0x8c(%ebp),%eax
     f19:	89 44 24 08          	mov    %eax,0x8(%esp)
     f1d:	8b 45 0c             	mov    0xc(%ebp),%eax
     f20:	89 44 24 04          	mov    %eax,0x4(%esp)
     f24:	8b 45 08             	mov    0x8(%ebp),%eax
     f27:	89 04 24             	mov    %eax,(%esp)
     f2a:	e8 fc ff ff ff       	call   f2b <_svfprintf_r+0xf2b>
     f2f:	85 c0                	test   %eax,%eax
     f31:	0f 85 99 f2 ff ff    	jne    1d0 <_svfprintf_r+0x1d0>
     f37:	8b 8d 7c ff ff ff    	mov    -0x84(%ebp),%ecx
     f3d:	8d 7d a8             	lea    -0x58(%ebp),%edi
     f40:	e9 67 fb ff ff       	jmp    aac <_svfprintf_r+0xaac>
     f45:	8d 76 00             	lea    0x0(%esi),%esi
     f48:	8d 85 74 ff ff ff    	lea    -0x8c(%ebp),%eax
     f4e:	89 44 24 08          	mov    %eax,0x8(%esp)
     f52:	8b 45 0c             	mov    0xc(%ebp),%eax
     f55:	89 44 24 04          	mov    %eax,0x4(%esp)
     f59:	8b 45 08             	mov    0x8(%ebp),%eax
     f5c:	89 04 24             	mov    %eax,(%esp)
     f5f:	e8 fc ff ff ff       	call   f60 <_svfprintf_r+0xf60>
     f64:	85 c0                	test   %eax,%eax
     f66:	0f 84 43 fc ff ff    	je     baf <_svfprintf_r+0xbaf>
     f6c:	e9 5f f2 ff ff       	jmp    1d0 <_svfprintf_r+0x1d0>
     f71:	8d b4 26 00 00 00 00 	lea    0x0(%esi,%eiz,1),%esi
     f78:	8d 85 74 ff ff ff    	lea    -0x8c(%ebp),%eax
     f7e:	89 44 24 08          	mov    %eax,0x8(%esp)
     f82:	8b 45 0c             	mov    0xc(%ebp),%eax
     f85:	89 44 24 04          	mov    %eax,0x4(%esp)
     f89:	8b 45 08             	mov    0x8(%ebp),%eax
     f8c:	89 04 24             	mov    %eax,(%esp)
     f8f:	e8 fc ff ff ff       	call   f90 <_svfprintf_r+0xf90>
     f94:	85 c0                	test   %eax,%eax
     f96:	0f 85 34 f2 ff ff    	jne    1d0 <_svfprintf_r+0x1d0>
     f9c:	8b 8d 7c ff ff ff    	mov    -0x84(%ebp),%ecx
     fa2:	8d 7d a8             	lea    -0x58(%ebp),%edi
     fa5:	e9 c8 f9 ff ff       	jmp    972 <_svfprintf_r+0x972>
     faa:	8d b6 00 00 00 00    	lea    0x0(%esi),%esi
     fb0:	8d 85 74 ff ff ff    	lea    -0x8c(%ebp),%eax
     fb6:	89 44 24 08          	mov    %eax,0x8(%esp)
     fba:	8b 45 0c             	mov    0xc(%ebp),%eax
     fbd:	89 44 24 04          	mov    %eax,0x4(%esp)
     fc1:	8b 45 08             	mov    0x8(%ebp),%eax
     fc4:	89 04 24             	mov    %eax,(%esp)
     fc7:	e8 fc ff ff ff       	call   fc8 <_svfprintf_r+0xfc8>
     fcc:	85 c0                	test   %eax,%eax
     fce:	0f 85 fc f1 ff ff    	jne    1d0 <_svfprintf_r+0x1d0>
     fd4:	8b 8d 7c ff ff ff    	mov    -0x84(%ebp),%ecx
     fda:	8d 7d a8             	lea    -0x58(%ebp),%edi
     fdd:	e9 53 f9 ff ff       	jmp    935 <_svfprintf_r+0x935>
     fe2:	8d b6 00 00 00 00    	lea    0x0(%esi),%esi
     fe8:	89 c2                	mov    %eax,%edx
     fea:	8d b6 00 00 00 00    	lea    0x0(%esi),%esi
     ff0:	89 c8                	mov    %ecx,%eax
     ff2:	83 ea 01             	sub    $0x1,%edx
     ff5:	83 e0 07             	and    $0x7,%eax
     ff8:	c1 e9 03             	shr    $0x3,%ecx
     ffb:	83 c0 30             	add    $0x30,%eax
     ffe:	85 c9                	test   %ecx,%ecx
    1000:	88 02                	mov    %al,(%edx)
    1002:	75 ec                	jne    ff0 <_svfprintf_r+0xff0>
    1004:	f6 85 4c ff ff ff 01 	testb  $0x1,-0xb4(%ebp)
    100b:	89 95 28 ff ff ff    	mov    %edx,-0xd8(%ebp)
    1011:	0f 84 5b 01 00 00    	je     1172 <_svfprintf_r+0x1172>
    1017:	3c 30                	cmp    $0x30,%al
    1019:	74 0b                	je     1026 <_svfprintf_r+0x1026>
    101b:	83 ad 28 ff ff ff 01 	subl   $0x1,-0xd8(%ebp)
    1022:	c6 42 ff 30          	movb   $0x30,-0x1(%edx)
    1026:	8d 45 a8             	lea    -0x58(%ebp),%eax
    1029:	2b 85 28 ff ff ff    	sub    -0xd8(%ebp),%eax
    102f:	89 85 38 ff ff ff    	mov    %eax,-0xc8(%ebp)
    1035:	e9 1e f4 ff ff       	jmp    458 <_svfprintf_r+0x458>
    103a:	8d b6 00 00 00 00    	lea    0x0(%esi),%esi
    1040:	8b 9d 5c ff ff ff    	mov    -0xa4(%ebp),%ebx
    1046:	85 db                	test   %ebx,%ebx
    1048:	0f 8e 66 05 00 00    	jle    15b4 <_svfprintf_r+0x15b4>
    104e:	8b 95 28 ff ff ff    	mov    -0xd8(%ebp),%edx
    1054:	8b 85 1c ff ff ff    	mov    -0xe4(%ebp),%eax
    105a:	01 d0                	add    %edx,%eax
    105c:	89 c3                	mov    %eax,%ebx
    105e:	29 d3                	sub    %edx,%ebx
    1060:	89 85 44 ff ff ff    	mov    %eax,-0xbc(%ebp)
    1066:	89 d0                	mov    %edx,%eax
    1068:	8b 95 20 ff ff ff    	mov    -0xe0(%ebp),%edx
    106e:	39 d3                	cmp    %edx,%ebx
    1070:	0f 4f da             	cmovg  %edx,%ebx
    1073:	85 db                	test   %ebx,%ebx
    1075:	7e 28                	jle    109f <_svfprintf_r+0x109f>
    1077:	89 07                	mov    %eax,(%edi)
    1079:	8b 85 78 ff ff ff    	mov    -0x88(%ebp),%eax
    107f:	01 d9                	add    %ebx,%ecx
    1081:	89 5f 04             	mov    %ebx,0x4(%edi)
    1084:	83 c7 08             	add    $0x8,%edi
    1087:	89 8d 7c ff ff ff    	mov    %ecx,-0x84(%ebp)
    108d:	83 c0 01             	add    $0x1,%eax
    1090:	83 f8 07             	cmp    $0x7,%eax
    1093:	89 85 78 ff ff ff    	mov    %eax,-0x88(%ebp)
    1099:	0f 8f 58 09 00 00    	jg     19f7 <_svfprintf_r+0x19f7>
    109f:	8b b5 20 ff ff ff    	mov    -0xe0(%ebp),%esi
    10a5:	31 c0                	xor    %eax,%eax
    10a7:	85 db                	test   %ebx,%ebx
    10a9:	0f 49 c3             	cmovns %ebx,%eax
    10ac:	29 c6                	sub    %eax,%esi
    10ae:	85 f6                	test   %esi,%esi
    10b0:	0f 8e 40 02 00 00    	jle    12f6 <_svfprintf_r+0x12f6>
    10b6:	83 fe 10             	cmp    $0x10,%esi
    10b9:	8b 85 78 ff ff ff    	mov    -0x88(%ebp),%eax
    10bf:	8d 9d 74 ff ff ff    	lea    -0x8c(%ebp),%ebx
    10c5:	7f 15                	jg     10dc <_svfprintf_r+0x10dc>
    10c7:	e9 db 01 00 00       	jmp    12a7 <_svfprintf_r+0x12a7>
    10cc:	8d 74 26 00          	lea    0x0(%esi,%eiz,1),%esi
    10d0:	83 ee 10             	sub    $0x10,%esi
    10d3:	83 fe 10             	cmp    $0x10,%esi
    10d6:	0f 8e cb 01 00 00    	jle    12a7 <_svfprintf_r+0x12a7>
    10dc:	83 c0 01             	add    $0x1,%eax
    10df:	83 c1 10             	add    $0x10,%ecx
    10e2:	c7 07 64 01 00 00    	movl   $0x164,(%edi)
    10e8:	83 c7 08             	add    $0x8,%edi
    10eb:	c7 47 fc 10 00 00 00 	movl   $0x10,-0x4(%edi)
    10f2:	83 f8 07             	cmp    $0x7,%eax
    10f5:	89 8d 7c ff ff ff    	mov    %ecx,-0x84(%ebp)
    10fb:	89 85 78 ff ff ff    	mov    %eax,-0x88(%ebp)
    1101:	7e cd                	jle    10d0 <_svfprintf_r+0x10d0>
    1103:	8b 45 0c             	mov    0xc(%ebp),%eax
    1106:	89 5c 24 08          	mov    %ebx,0x8(%esp)
    110a:	89 44 24 04          	mov    %eax,0x4(%esp)
    110e:	8b 45 08             	mov    0x8(%ebp),%eax
    1111:	89 04 24             	mov    %eax,(%esp)
    1114:	e8 fc ff ff ff       	call   1115 <_svfprintf_r+0x1115>
    1119:	85 c0                	test   %eax,%eax
    111b:	0f 85 af f0 ff ff    	jne    1d0 <_svfprintf_r+0x1d0>
    1121:	8b 8d 7c ff ff ff    	mov    -0x84(%ebp),%ecx
    1127:	8d 7d a8             	lea    -0x58(%ebp),%edi
    112a:	8b 85 78 ff ff ff    	mov    -0x88(%ebp),%eax
    1130:	eb 9e                	jmp    10d0 <_svfprintf_r+0x10d0>
    1132:	8d 45 a8             	lea    -0x58(%ebp),%eax
    1135:	be cd cc cc cc       	mov    $0xcccccccd,%esi
    113a:	89 bd 48 ff ff ff    	mov    %edi,-0xb8(%ebp)
    1140:	89 c7                	mov    %eax,%edi
    1142:	8d b6 00 00 00 00    	lea    0x0(%esi),%esi
    1148:	89 c8                	mov    %ecx,%eax
    114a:	83 ef 01             	sub    $0x1,%edi
    114d:	f7 e6                	mul    %esi
    114f:	c1 ea 03             	shr    $0x3,%edx
    1152:	8d 04 92             	lea    (%edx,%edx,4),%eax
    1155:	01 c0                	add    %eax,%eax
    1157:	29 c1                	sub    %eax,%ecx
    1159:	83 c1 30             	add    $0x30,%ecx
    115c:	85 d2                	test   %edx,%edx
    115e:	88 0f                	mov    %cl,(%edi)
    1160:	89 d1                	mov    %edx,%ecx
    1162:	75 e4                	jne    1148 <_svfprintf_r+0x1148>
    1164:	89 fa                	mov    %edi,%edx
    1166:	89 bd 28 ff ff ff    	mov    %edi,-0xd8(%ebp)
    116c:	8b bd 48 ff ff ff    	mov    -0xb8(%ebp),%edi
    1172:	8d 45 a8             	lea    -0x58(%ebp),%eax
    1175:	29 d0                	sub    %edx,%eax
    1177:	89 85 38 ff ff ff    	mov    %eax,-0xc8(%ebp)
    117d:	e9 d6 f2 ff ff       	jmp    458 <_svfprintf_r+0x458>
    1182:	8d b6 00 00 00 00    	lea    0x0(%esi),%esi
    1188:	83 f9 09             	cmp    $0x9,%ecx
    118b:	77 a5                	ja     1132 <_svfprintf_r+0x1132>
    118d:	8b 85 00 ff ff ff    	mov    -0x100(%ebp),%eax
    1193:	83 c1 30             	add    $0x30,%ecx
    1196:	88 4d a7             	mov    %cl,-0x59(%ebp)
    1199:	89 85 38 ff ff ff    	mov    %eax,-0xc8(%ebp)
    119f:	8d 45 a7             	lea    -0x59(%ebp),%eax
    11a2:	89 85 28 ff ff ff    	mov    %eax,-0xd8(%ebp)
    11a8:	e9 ab f2 ff ff       	jmp    458 <_svfprintf_r+0x458>
    11ad:	8d 85 74 ff ff ff    	lea    -0x8c(%ebp),%eax
    11b3:	89 44 24 08          	mov    %eax,0x8(%esp)
    11b7:	8b 45 0c             	mov    0xc(%ebp),%eax
    11ba:	89 44 24 04          	mov    %eax,0x4(%esp)
    11be:	8b 45 08             	mov    0x8(%ebp),%eax
    11c1:	89 04 24             	mov    %eax,(%esp)
    11c4:	e8 fc ff ff ff       	call   11c5 <_svfprintf_r+0x11c5>
    11c9:	85 c0                	test   %eax,%eax
    11cb:	0f 85 ff ef ff ff    	jne    1d0 <_svfprintf_r+0x1d0>
    11d1:	0f b6 9d 59 ff ff ff 	movzbl -0xa7(%ebp),%ebx
    11d8:	8d 7d a8             	lea    -0x58(%ebp),%edi
    11db:	8b 8d 7c ff ff ff    	mov    -0x84(%ebp),%ecx
    11e1:	e9 18 f7 ff ff       	jmp    8fe <_svfprintf_r+0x8fe>
    11e6:	8b 9d 1c ff ff ff    	mov    -0xe4(%ebp),%ebx
    11ec:	8d 73 ff             	lea    -0x1(%ebx),%esi
    11ef:	85 f6                	test   %esi,%esi
    11f1:	0f 8e f0 fc ff ff    	jle    ee7 <_svfprintf_r+0xee7>
    11f7:	83 fe 10             	cmp    $0x10,%esi
    11fa:	7e 70                	jle    126c <_svfprintf_r+0x126c>
    11fc:	8d 9d 74 ff ff ff    	lea    -0x8c(%ebp),%ebx
    1202:	eb 0c                	jmp    1210 <_svfprintf_r+0x1210>
    1204:	8d 74 26 00          	lea    0x0(%esi,%eiz,1),%esi
    1208:	83 ee 10             	sub    $0x10,%esi
    120b:	83 fe 10             	cmp    $0x10,%esi
    120e:	7e 5c                	jle    126c <_svfprintf_r+0x126c>
    1210:	83 c0 01             	add    $0x1,%eax
    1213:	83 c2 10             	add    $0x10,%edx
    1216:	c7 07 64 01 00 00    	movl   $0x164,(%edi)
    121c:	83 c7 08             	add    $0x8,%edi
    121f:	c7 47 fc 10 00 00 00 	movl   $0x10,-0x4(%edi)
    1226:	83 f8 07             	cmp    $0x7,%eax
    1229:	89 95 7c ff ff ff    	mov    %edx,-0x84(%ebp)
    122f:	89 85 78 ff ff ff    	mov    %eax,-0x88(%ebp)
    1235:	7e d1                	jle    1208 <_svfprintf_r+0x1208>
    1237:	8b 45 0c             	mov    0xc(%ebp),%eax
    123a:	89 5c 24 08          	mov    %ebx,0x8(%esp)
    123e:	89 44 24 04          	mov    %eax,0x4(%esp)
    1242:	8b 45 08             	mov    0x8(%ebp),%eax
    1245:	89 04 24             	mov    %eax,(%esp)
    1248:	e8 fc ff ff ff       	call   1249 <_svfprintf_r+0x1249>
    124d:	85 c0                	test   %eax,%eax
    124f:	0f 85 7b ef ff ff    	jne    1d0 <_svfprintf_r+0x1d0>
    1255:	83 ee 10             	sub    $0x10,%esi
    1258:	8b 95 7c ff ff ff    	mov    -0x84(%ebp),%edx
    125e:	83 fe 10             	cmp    $0x10,%esi
    1261:	8b 85 78 ff ff ff    	mov    -0x88(%ebp),%eax
    1267:	8d 7d a8             	lea    -0x58(%ebp),%edi
    126a:	7f a4                	jg     1210 <_svfprintf_r+0x1210>
    126c:	c7 07 64 01 00 00    	movl   $0x164,(%edi)
    1272:	01 f2                	add    %esi,%edx
    1274:	89 77 04             	mov    %esi,0x4(%edi)
    1277:	e9 50 fc ff ff       	jmp    ecc <_svfprintf_r+0xecc>
    127c:	c7 07 64 01 00 00    	movl   $0x164,(%edi)
    1282:	01 f1                	add    %esi,%ecx
    1284:	89 77 04             	mov    %esi,0x4(%edi)
    1287:	e9 6f fc ff ff       	jmp    efb <_svfprintf_r+0xefb>
    128c:	8b 45 14             	mov    0x14(%ebp),%eax
    128f:	8b 95 34 ff ff ff    	mov    -0xcc(%ebp),%edx
    1295:	8b 00                	mov    (%eax),%eax
    1297:	89 10                	mov    %edx,(%eax)
    1299:	8b 45 14             	mov    0x14(%ebp),%eax
    129c:	83 c0 04             	add    $0x4,%eax
    129f:	89 45 14             	mov    %eax,0x14(%ebp)
    12a2:	e9 f4 ed ff ff       	jmp    9b <_svfprintf_r+0x9b>
    12a7:	83 c0 01             	add    $0x1,%eax
    12aa:	01 f1                	add    %esi,%ecx
    12ac:	c7 07 64 01 00 00    	movl   $0x164,(%edi)
    12b2:	83 c7 08             	add    $0x8,%edi
    12b5:	89 77 fc             	mov    %esi,-0x4(%edi)
    12b8:	83 f8 07             	cmp    $0x7,%eax
    12bb:	89 8d 7c ff ff ff    	mov    %ecx,-0x84(%ebp)
    12c1:	89 85 78 ff ff ff    	mov    %eax,-0x88(%ebp)
    12c7:	7e 2d                	jle    12f6 <_svfprintf_r+0x12f6>
    12c9:	8d 85 74 ff ff ff    	lea    -0x8c(%ebp),%eax
    12cf:	89 44 24 08          	mov    %eax,0x8(%esp)
    12d3:	8b 45 0c             	mov    0xc(%ebp),%eax
    12d6:	89 44 24 04          	mov    %eax,0x4(%esp)
    12da:	8b 45 08             	mov    0x8(%ebp),%eax
    12dd:	89 04 24             	mov    %eax,(%esp)
    12e0:	e8 fc ff ff ff       	call   12e1 <_svfprintf_r+0x12e1>
    12e5:	85 c0                	test   %eax,%eax
    12e7:	0f 85 e3 ee ff ff    	jne    1d0 <_svfprintf_r+0x1d0>
    12ed:	8b 8d 7c ff ff ff    	mov    -0x84(%ebp),%ecx
    12f3:	8d 7d a8             	lea    -0x58(%ebp),%edi
    12f6:	8b 85 28 ff ff ff    	mov    -0xd8(%ebp),%eax
    12fc:	8b 95 5c ff ff ff    	mov    -0xa4(%ebp),%edx
    1302:	03 85 20 ff ff ff    	add    -0xe0(%ebp),%eax
    1308:	3b 95 1c ff ff ff    	cmp    -0xe4(%ebp),%edx
    130e:	89 c6                	mov    %eax,%esi
    1310:	7c 0d                	jl     131f <_svfprintf_r+0x131f>
    1312:	f6 85 4c ff ff ff 01 	testb  $0x1,-0xb4(%ebp)
    1319:	0f 84 5e 05 00 00    	je     187d <_svfprintf_r+0x187d>
    131f:	8b 85 0c ff ff ff    	mov    -0xf4(%ebp),%eax
    1325:	89 07                	mov    %eax,(%edi)
    1327:	8b 85 08 ff ff ff    	mov    -0xf8(%ebp),%eax
    132d:	01 c1                	add    %eax,%ecx
    132f:	89 47 04             	mov    %eax,0x4(%edi)
    1332:	8b 85 78 ff ff ff    	mov    -0x88(%ebp),%eax
    1338:	89 8d 7c ff ff ff    	mov    %ecx,-0x84(%ebp)
    133e:	83 c0 01             	add    $0x1,%eax
    1341:	83 f8 07             	cmp    $0x7,%eax
    1344:	89 85 78 ff ff ff    	mov    %eax,-0x88(%ebp)
    134a:	0f 8f d9 06 00 00    	jg     1a29 <_svfprintf_r+0x1a29>
    1350:	83 c7 08             	add    $0x8,%edi
    1353:	89 d0                	mov    %edx,%eax
    1355:	8b 9d 44 ff ff ff    	mov    -0xbc(%ebp),%ebx
    135b:	89 f2                	mov    %esi,%edx
    135d:	29 f3                	sub    %esi,%ebx
    135f:	8b b5 1c ff ff ff    	mov    -0xe4(%ebp),%esi
    1365:	29 c6                	sub    %eax,%esi
    1367:	39 de                	cmp    %ebx,%esi
    1369:	0f 4e de             	cmovle %esi,%ebx
    136c:	85 db                	test   %ebx,%ebx
    136e:	7e 29                	jle    1399 <_svfprintf_r+0x1399>
    1370:	8b 85 78 ff ff ff    	mov    -0x88(%ebp),%eax
    1376:	01 d9                	add    %ebx,%ecx
    1378:	83 c7 08             	add    $0x8,%edi
    137b:	89 57 f8             	mov    %edx,-0x8(%edi)
    137e:	89 5f fc             	mov    %ebx,-0x4(%edi)
    1381:	89 8d 7c ff ff ff    	mov    %ecx,-0x84(%ebp)
    1387:	83 c0 01             	add    $0x1,%eax
    138a:	83 f8 07             	cmp    $0x7,%eax
    138d:	89 85 78 ff ff ff    	mov    %eax,-0x88(%ebp)
    1393:	0f 8f c8 06 00 00    	jg     1a61 <_svfprintf_r+0x1a61>
    1399:	31 c0                	xor    %eax,%eax
    139b:	85 db                	test   %ebx,%ebx
    139d:	0f 49 c3             	cmovns %ebx,%eax
    13a0:	29 c6                	sub    %eax,%esi
    13a2:	85 f6                	test   %esi,%esi
    13a4:	0f 8e 02 f7 ff ff    	jle    aac <_svfprintf_r+0xaac>
    13aa:	83 fe 10             	cmp    $0x10,%esi
    13ad:	8b 85 78 ff ff ff    	mov    -0x88(%ebp),%eax
    13b3:	8d 9d 74 ff ff ff    	lea    -0x8c(%ebp),%ebx
    13b9:	7f 11                	jg     13cc <_svfprintf_r+0x13cc>
    13bb:	e9 bc fe ff ff       	jmp    127c <_svfprintf_r+0x127c>
    13c0:	83 ee 10             	sub    $0x10,%esi
    13c3:	83 fe 10             	cmp    $0x10,%esi
    13c6:	0f 8e b0 fe ff ff    	jle    127c <_svfprintf_r+0x127c>
    13cc:	83 c0 01             	add    $0x1,%eax
    13cf:	83 c1 10             	add    $0x10,%ecx
    13d2:	c7 07 64 01 00 00    	movl   $0x164,(%edi)
    13d8:	83 c7 08             	add    $0x8,%edi
    13db:	c7 47 fc 10 00 00 00 	movl   $0x10,-0x4(%edi)
    13e2:	83 f8 07             	cmp    $0x7,%eax
    13e5:	89 8d 7c ff ff ff    	mov    %ecx,-0x84(%ebp)
    13eb:	89 85 78 ff ff ff    	mov    %eax,-0x88(%ebp)
    13f1:	7e cd                	jle    13c0 <_svfprintf_r+0x13c0>
    13f3:	8b 45 0c             	mov    0xc(%ebp),%eax
    13f6:	89 5c 24 08          	mov    %ebx,0x8(%esp)
    13fa:	89 44 24 04          	mov    %eax,0x4(%esp)
    13fe:	8b 45 08             	mov    0x8(%ebp),%eax
    1401:	89 04 24             	mov    %eax,(%esp)
    1404:	e8 fc ff ff ff       	call   1405 <_svfprintf_r+0x1405>
    1409:	85 c0                	test   %eax,%eax
    140b:	0f 85 bf ed ff ff    	jne    1d0 <_svfprintf_r+0x1d0>
    1411:	8b 8d 7c ff ff ff    	mov    -0x84(%ebp),%ecx
    1417:	8d 7d a8             	lea    -0x58(%ebp),%edi
    141a:	8b 85 78 ff ff ff    	mov    -0x88(%ebp),%eax
    1420:	eb 9e                	jmp    13c0 <_svfprintf_r+0x13c0>
    1422:	f6 85 4c ff ff ff 01 	testb  $0x1,-0xb4(%ebp)
    1429:	0f 85 14 fa ff ff    	jne    e43 <_svfprintf_r+0xe43>
    142f:	89 07                	mov    %eax,(%edi)
    1431:	8b 85 78 ff ff ff    	mov    -0x88(%ebp),%eax
    1437:	8d 51 01             	lea    0x1(%ecx),%edx
    143a:	c7 47 04 01 00 00 00 	movl   $0x1,0x4(%edi)
    1441:	89 95 7c ff ff ff    	mov    %edx,-0x84(%ebp)
    1447:	83 c0 01             	add    $0x1,%eax
    144a:	83 f8 07             	cmp    $0x7,%eax
    144d:	89 85 78 ff ff ff    	mov    %eax,-0x88(%ebp)
    1453:	0f 8e 8b fa ff ff    	jle    ee4 <_svfprintf_r+0xee4>
    1459:	8d 85 74 ff ff ff    	lea    -0x8c(%ebp),%eax
    145f:	89 44 24 08          	mov    %eax,0x8(%esp)
    1463:	8b 45 0c             	mov    0xc(%ebp),%eax
    1466:	89 44 24 04          	mov    %eax,0x4(%esp)
    146a:	8b 45 08             	mov    0x8(%ebp),%eax
    146d:	89 04 24             	mov    %eax,(%esp)
    1470:	e8 fc ff ff ff       	call   1471 <_svfprintf_r+0x1471>
    1475:	85 c0                	test   %eax,%eax
    1477:	0f 85 53 ed ff ff    	jne    1d0 <_svfprintf_r+0x1d0>
    147d:	8b 95 7c ff ff ff    	mov    -0x84(%ebp),%edx
    1483:	8d 7d a8             	lea    -0x58(%ebp),%edi
    1486:	8b 85 78 ff ff ff    	mov    -0x88(%ebp),%eax
    148c:	e9 56 fa ff ff       	jmp    ee7 <_svfprintf_r+0xee7>
    1491:	8d 85 74 ff ff ff    	lea    -0x8c(%ebp),%eax
    1497:	89 44 24 08          	mov    %eax,0x8(%esp)
    149b:	8b 45 0c             	mov    0xc(%ebp),%eax
    149e:	89 44 24 04          	mov    %eax,0x4(%esp)
    14a2:	8b 45 08             	mov    0x8(%ebp),%eax
    14a5:	89 04 24             	mov    %eax,(%esp)
    14a8:	e8 fc ff ff ff       	call   14a9 <_svfprintf_r+0x14a9>
    14ad:	85 c0                	test   %eax,%eax
    14af:	0f 85 1b ed ff ff    	jne    1d0 <_svfprintf_r+0x1d0>
    14b5:	8b 95 7c ff ff ff    	mov    -0x84(%ebp),%edx
    14bb:	8d 7d a8             	lea    -0x58(%ebp),%edi
    14be:	8b 85 78 ff ff ff    	mov    -0x88(%ebp),%eax
    14c4:	e9 d6 f9 ff ff       	jmp    e9f <_svfprintf_r+0xe9f>
    14c9:	8d 85 74 ff ff ff    	lea    -0x8c(%ebp),%eax
    14cf:	89 44 24 08          	mov    %eax,0x8(%esp)
    14d3:	8b 45 0c             	mov    0xc(%ebp),%eax
    14d6:	89 44 24 04          	mov    %eax,0x4(%esp)
    14da:	8b 45 08             	mov    0x8(%ebp),%eax
    14dd:	89 04 24             	mov    %eax,(%esp)
    14e0:	e8 fc ff ff ff       	call   14e1 <_svfprintf_r+0x14e1>
    14e5:	85 c0                	test   %eax,%eax
    14e7:	0f 85 e3 ec ff ff    	jne    1d0 <_svfprintf_r+0x1d0>
    14ed:	8b 95 7c ff ff ff    	mov    -0x84(%ebp),%edx
    14f3:	8d 7d a8             	lea    -0x58(%ebp),%edi
    14f6:	8b 85 78 ff ff ff    	mov    -0x88(%ebp),%eax
    14fc:	e9 6f f9 ff ff       	jmp    e70 <_svfprintf_r+0xe70>
    1501:	dd 85 10 ff ff ff    	fldl   -0xf0(%ebp)
    1507:	dd 1c 24             	fstpl  (%esp)
    150a:	e8 fc ff ff ff       	call   150b <_svfprintf_r+0x150b>
    150f:	85 c0                	test   %eax,%eax
    1511:	0f 85 a3 01 00 00    	jne    16ba <_svfprintf_r+0x16ba>
    1517:	83 bd 24 ff ff ff 47 	cmpl   $0x47,-0xdc(%ebp)
    151e:	ba 08 00 00 00       	mov    $0x8,%edx
    1523:	b8 0c 00 00 00       	mov    $0xc,%eax
    1528:	0f b6 9d 59 ff ff ff 	movzbl -0xa7(%ebp),%ebx
    152f:	c7 85 48 ff ff ff 03 	movl   $0x3,-0xb8(%ebp)
    1536:	00 00 00 
    1539:	0f 4e c2             	cmovle %edx,%eax
    153c:	89 85 28 ff ff ff    	mov    %eax,-0xd8(%ebp)
    1542:	81 a5 4c ff ff ff 7f 	andl   $0xffffff7f,-0xb4(%ebp)
    1549:	ff ff ff 
    154c:	c7 85 38 ff ff ff 03 	movl   $0x3,-0xc8(%ebp)
    1553:	00 00 00 
    1556:	c7 85 44 ff ff ff 00 	movl   $0x0,-0xbc(%ebp)
    155d:	00 00 00 
    1560:	c7 85 20 ff ff ff 00 	movl   $0x0,-0xe0(%ebp)
    1567:	00 00 00 
    156a:	e9 29 ed ff ff       	jmp    298 <_svfprintf_r+0x298>
    156f:	dd 00                	fldl   (%eax)
    1571:	83 c0 08             	add    $0x8,%eax
    1574:	dd 9d 10 ff ff ff    	fstpl  -0xf0(%ebp)
    157a:	89 45 14             	mov    %eax,0x14(%ebp)
    157d:	e9 e6 ef ff ff       	jmp    568 <_svfprintf_r+0x568>
    1582:	8d 85 74 ff ff ff    	lea    -0x8c(%ebp),%eax
    1588:	89 44 24 08          	mov    %eax,0x8(%esp)
    158c:	8b 45 0c             	mov    0xc(%ebp),%eax
    158f:	89 44 24 04          	mov    %eax,0x4(%esp)
    1593:	8b 45 08             	mov    0x8(%ebp),%eax
    1596:	89 04 24             	mov    %eax,(%esp)
    1599:	e8 fc ff ff ff       	call   159a <_svfprintf_r+0x159a>
    159e:	85 c0                	test   %eax,%eax
    15a0:	0f 85 2a ec ff ff    	jne    1d0 <_svfprintf_r+0x1d0>
    15a6:	8b 8d 7c ff ff ff    	mov    -0x84(%ebp),%ecx
    15ac:	8d 7d a8             	lea    -0x58(%ebp),%edi
    15af:	e9 6b f6 ff ff       	jmp    c1f <_svfprintf_r+0xc1f>
    15b4:	8b 85 78 ff ff ff    	mov    -0x88(%ebp),%eax
    15ba:	83 c1 01             	add    $0x1,%ecx
    15bd:	83 c7 08             	add    $0x8,%edi
    15c0:	c7 47 f8 39 00 00 00 	movl   $0x39,-0x8(%edi)
    15c7:	c7 47 fc 01 00 00 00 	movl   $0x1,-0x4(%edi)
    15ce:	89 8d 7c ff ff ff    	mov    %ecx,-0x84(%ebp)
    15d4:	83 c0 01             	add    $0x1,%eax
    15d7:	83 f8 07             	cmp    $0x7,%eax
    15da:	89 85 78 ff ff ff    	mov    %eax,-0x88(%ebp)
    15e0:	0f 8f ef 02 00 00    	jg     18d5 <_svfprintf_r+0x18d5>
    15e6:	85 db                	test   %ebx,%ebx
    15e8:	75 17                	jne    1601 <_svfprintf_r+0x1601>
    15ea:	8b 95 1c ff ff ff    	mov    -0xe4(%ebp),%edx
    15f0:	85 d2                	test   %edx,%edx
    15f2:	75 0d                	jne    1601 <_svfprintf_r+0x1601>
    15f4:	f6 85 4c ff ff ff 01 	testb  $0x1,-0xb4(%ebp)
    15fb:	0f 84 ab f4 ff ff    	je     aac <_svfprintf_r+0xaac>
    1601:	8b 85 0c ff ff ff    	mov    -0xf4(%ebp),%eax
    1607:	83 c7 08             	add    $0x8,%edi
    160a:	89 47 f8             	mov    %eax,-0x8(%edi)
    160d:	8b 85 08 ff ff ff    	mov    -0xf8(%ebp),%eax
    1613:	89 47 fc             	mov    %eax,-0x4(%edi)
    1616:	8d 14 01             	lea    (%ecx,%eax,1),%edx
    1619:	8b 85 78 ff ff ff    	mov    -0x88(%ebp),%eax
    161f:	89 95 7c ff ff ff    	mov    %edx,-0x84(%ebp)
    1625:	83 c0 01             	add    $0x1,%eax
    1628:	83 f8 07             	cmp    $0x7,%eax
    162b:	89 85 78 ff ff ff    	mov    %eax,-0x88(%ebp)
    1631:	0f 8f 60 03 00 00    	jg     1997 <_svfprintf_r+0x1997>
    1637:	f7 db                	neg    %ebx
    1639:	85 db                	test   %ebx,%ebx
    163b:	0f 8e 21 03 00 00    	jle    1962 <_svfprintf_r+0x1962>
    1641:	83 fb 10             	cmp    $0x10,%ebx
    1644:	0f 8e c3 02 00 00    	jle    190d <_svfprintf_r+0x190d>
    164a:	8d b5 74 ff ff ff    	lea    -0x8c(%ebp),%esi
    1650:	eb 12                	jmp    1664 <_svfprintf_r+0x1664>
    1652:	8d b6 00 00 00 00    	lea    0x0(%esi),%esi
    1658:	83 eb 10             	sub    $0x10,%ebx
    165b:	83 fb 10             	cmp    $0x10,%ebx
    165e:	0f 8e a9 02 00 00    	jle    190d <_svfprintf_r+0x190d>
    1664:	83 c0 01             	add    $0x1,%eax
    1667:	83 c2 10             	add    $0x10,%edx
    166a:	c7 07 64 01 00 00    	movl   $0x164,(%edi)
    1670:	83 c7 08             	add    $0x8,%edi
    1673:	c7 47 fc 10 00 00 00 	movl   $0x10,-0x4(%edi)
    167a:	83 f8 07             	cmp    $0x7,%eax
    167d:	89 95 7c ff ff ff    	mov    %edx,-0x84(%ebp)
    1683:	89 85 78 ff ff ff    	mov    %eax,-0x88(%ebp)
    1689:	7e cd                	jle    1658 <_svfprintf_r+0x1658>
    168b:	8b 45 0c             	mov    0xc(%ebp),%eax
    168e:	89 74 24 08          	mov    %esi,0x8(%esp)
    1692:	89 44 24 04          	mov    %eax,0x4(%esp)
    1696:	8b 45 08             	mov    0x8(%ebp),%eax
    1699:	89 04 24             	mov    %eax,(%esp)
    169c:	e8 fc ff ff ff       	call   169d <_svfprintf_r+0x169d>
    16a1:	85 c0                	test   %eax,%eax
    16a3:	0f 85 27 eb ff ff    	jne    1d0 <_svfprintf_r+0x1d0>
    16a9:	8b 95 7c ff ff ff    	mov    -0x84(%ebp),%edx
    16af:	8d 7d a8             	lea    -0x58(%ebp),%edi
    16b2:	8b 85 78 ff ff ff    	mov    -0x88(%ebp),%eax
    16b8:	eb 9e                	jmp    1658 <_svfprintf_r+0x1658>
    16ba:	8b 9d 24 ff ff ff    	mov    -0xdc(%ebp),%ebx
    16c0:	83 e3 df             	and    $0xffffffdf,%ebx
    16c3:	83 bd 44 ff ff ff ff 	cmpl   $0xffffffff,-0xbc(%ebp)
    16ca:	0f 84 05 03 00 00    	je     19d5 <_svfprintf_r+0x19d5>
    16d0:	83 fb 47             	cmp    $0x47,%ebx
    16d3:	75 16                	jne    16eb <_svfprintf_r+0x16eb>
    16d5:	8b 95 44 ff ff ff    	mov    -0xbc(%ebp),%edx
    16db:	b8 01 00 00 00       	mov    $0x1,%eax
    16e0:	85 d2                	test   %edx,%edx
    16e2:	0f 45 c2             	cmovne %edx,%eax
    16e5:	89 85 44 ff ff ff    	mov    %eax,-0xbc(%ebp)
    16eb:	8b 85 4c ff ff ff    	mov    -0xb4(%ebp),%eax
    16f1:	dd 85 10 ff ff ff    	fldl   -0xf0(%ebp)
    16f7:	dd 95 38 ff ff ff    	fstl   -0xc8(%ebp)
    16fd:	80 cc 01             	or     $0x1,%ah
    1700:	89 85 30 ff ff ff    	mov    %eax,-0xd0(%ebp)
    1706:	8b 85 3c ff ff ff    	mov    -0xc4(%ebp),%eax
    170c:	c6 85 48 ff ff ff 00 	movb   $0x0,-0xb8(%ebp)
    1713:	85 c0                	test   %eax,%eax
    1715:	0f 88 ba 05 00 00    	js     1cd5 <_svfprintf_r+0x1cd5>
    171b:	83 fb 46             	cmp    $0x46,%ebx
    171e:	0f 94 c0             	sete   %al
    1721:	89 c6                	mov    %eax,%esi
    1723:	0f 84 d4 03 00 00    	je     1afd <_svfprintf_r+0x1afd>
    1729:	83 fb 45             	cmp    $0x45,%ebx
    172c:	0f 85 99 05 00 00    	jne    1ccb <_svfprintf_r+0x1ccb>
    1732:	8b 85 44 ff ff ff    	mov    -0xbc(%ebp),%eax
    1738:	dd 54 24 04          	fstl   0x4(%esp)
    173c:	c7 44 24 0c 02 00 00 	movl   $0x2,0xc(%esp)
    1743:	00 
    1744:	dd 9d 38 ff ff ff    	fstpl  -0xc8(%ebp)
    174a:	8d 70 01             	lea    0x1(%eax),%esi
    174d:	8d 85 6c ff ff ff    	lea    -0x94(%ebp),%eax
    1753:	89 44 24 1c          	mov    %eax,0x1c(%esp)
    1757:	8d 85 60 ff ff ff    	lea    -0xa0(%ebp),%eax
    175d:	89 44 24 18          	mov    %eax,0x18(%esp)
    1761:	8d 85 5c ff ff ff    	lea    -0xa4(%ebp),%eax
    1767:	89 44 24 14          	mov    %eax,0x14(%esp)
    176b:	8b 45 08             	mov    0x8(%ebp),%eax
    176e:	89 74 24 10          	mov    %esi,0x10(%esp)
    1772:	89 04 24             	mov    %eax,(%esp)
    1775:	e8 fc ff ff ff       	call   1776 <_svfprintf_r+0x1776>
    177a:	89 85 28 ff ff ff    	mov    %eax,-0xd8(%ebp)
    1780:	8d 0c 30             	lea    (%eax,%esi,1),%ecx
    1783:	dd 85 38 ff ff ff    	fldl   -0xc8(%ebp)
    1789:	d9 ee                	fldz   
    178b:	d9 c9                	fxch   %st(1)
    178d:	df e9                	fucomip %st(1),%st
    178f:	dd d8                	fstp   %st(0)
    1791:	0f 8a fd 00 00 00    	jp     1894 <_svfprintf_r+0x1894>
    1797:	89 c8                	mov    %ecx,%eax
    1799:	0f 85 f5 00 00 00    	jne    1894 <_svfprintf_r+0x1894>
    179f:	2b 85 28 ff ff ff    	sub    -0xd8(%ebp),%eax
    17a5:	83 fb 47             	cmp    $0x47,%ebx
    17a8:	89 85 1c ff ff ff    	mov    %eax,-0xe4(%ebp)
    17ae:	0f 84 1e 04 00 00    	je     1bd2 <_svfprintf_r+0x1bd2>
    17b4:	83 bd 24 ff ff ff 65 	cmpl   $0x65,-0xdc(%ebp)
    17bb:	8b 85 5c ff ff ff    	mov    -0xa4(%ebp),%eax
    17c1:	0f 8e 65 04 00 00    	jle    1c2c <_svfprintf_r+0x1c2c>
    17c7:	83 bd 24 ff ff ff 66 	cmpl   $0x66,-0xdc(%ebp)
    17ce:	89 85 20 ff ff ff    	mov    %eax,-0xe0(%ebp)
    17d4:	0f 84 3c 05 00 00    	je     1d16 <_svfprintf_r+0x1d16>
    17da:	8b 85 20 ff ff ff    	mov    -0xe0(%ebp),%eax
    17e0:	39 85 1c ff ff ff    	cmp    %eax,-0xe4(%ebp)
    17e6:	0f 8f f7 04 00 00    	jg     1ce3 <_svfprintf_r+0x1ce3>
    17ec:	8b 85 4c ff ff ff    	mov    -0xb4(%ebp),%eax
    17f2:	83 e0 01             	and    $0x1,%eax
    17f5:	0f 85 e2 05 00 00    	jne    1ddd <_svfprintf_r+0x1ddd>
    17fb:	8b 95 20 ff ff ff    	mov    -0xe0(%ebp),%edx
    1801:	c7 85 24 ff ff ff 67 	movl   $0x67,-0xdc(%ebp)
    1808:	00 00 00 
    180b:	85 d2                	test   %edx,%edx
    180d:	0f 49 c2             	cmovns %edx,%eax
    1810:	89 95 38 ff ff ff    	mov    %edx,-0xc8(%ebp)
    1816:	80 bd 48 ff ff ff 00 	cmpb   $0x0,-0xb8(%ebp)
    181d:	0f 85 68 03 00 00    	jne    1b8b <_svfprintf_r+0x1b8b>
    1823:	89 85 48 ff ff ff    	mov    %eax,-0xb8(%ebp)
    1829:	8b 85 30 ff ff ff    	mov    -0xd0(%ebp),%eax
    182f:	0f b6 9d 59 ff ff ff 	movzbl -0xa7(%ebp),%ebx
    1836:	c7 85 44 ff ff ff 00 	movl   $0x0,-0xbc(%ebp)
    183d:	00 00 00 
    1840:	89 85 4c ff ff ff    	mov    %eax,-0xb4(%ebp)
    1846:	e9 4d ea ff ff       	jmp    298 <_svfprintf_r+0x298>
    184b:	8d 85 74 ff ff ff    	lea    -0x8c(%ebp),%eax
    1851:	89 44 24 08          	mov    %eax,0x8(%esp)
    1855:	8b 45 0c             	mov    0xc(%ebp),%eax
    1858:	89 44 24 04          	mov    %eax,0x4(%esp)
    185c:	8b 45 08             	mov    0x8(%ebp),%eax
    185f:	89 04 24             	mov    %eax,(%esp)
    1862:	e8 fc ff ff ff       	call   1863 <_svfprintf_r+0x1863>
    1867:	85 c0                	test   %eax,%eax
    1869:	0f 85 61 e9 ff ff    	jne    1d0 <_svfprintf_r+0x1d0>
    186f:	8b 8d 7c ff ff ff    	mov    -0x84(%ebp),%ecx
    1875:	8d 7d a8             	lea    -0x58(%ebp),%edi
    1878:	e9 f2 f3 ff ff       	jmp    c6f <_svfprintf_r+0xc6f>
    187d:	89 d0                	mov    %edx,%eax
    187f:	e9 d1 fa ff ff       	jmp    1355 <_svfprintf_r+0x1355>
    1884:	8d 74 26 00          	lea    0x0(%esi,%eiz,1),%esi
    1888:	8d 50 01             	lea    0x1(%eax),%edx
    188b:	89 95 6c ff ff ff    	mov    %edx,-0x94(%ebp)
    1891:	c6 00 30             	movb   $0x30,(%eax)
    1894:	8b 85 6c ff ff ff    	mov    -0x94(%ebp),%eax
    189a:	39 c1                	cmp    %eax,%ecx
    189c:	77 ea                	ja     1888 <_svfprintf_r+0x1888>
    189e:	e9 fc fe ff ff       	jmp    179f <_svfprintf_r+0x179f>
    18a3:	8b 45 08             	mov    0x8(%ebp),%eax
    18a6:	c7 44 24 04 40 00 00 	movl   $0x40,0x4(%esp)
    18ad:	00 
    18ae:	89 04 24             	mov    %eax,(%esp)
    18b1:	e8 fc ff ff ff       	call   18b2 <_svfprintf_r+0x18b2>
    18b6:	8b 55 0c             	mov    0xc(%ebp),%edx
    18b9:	85 c0                	test   %eax,%eax
    18bb:	89 02                	mov    %eax,(%edx)
    18bd:	89 42 10             	mov    %eax,0x10(%edx)
    18c0:	0f 84 15 06 00 00    	je     1edb <_svfprintf_r+0x1edb>
    18c6:	8b 45 0c             	mov    0xc(%ebp),%eax
    18c9:	c7 40 14 40 00 00 00 	movl   $0x40,0x14(%eax)
    18d0:	e9 6c e7 ff ff       	jmp    41 <_svfprintf_r+0x41>
    18d5:	8d 85 74 ff ff ff    	lea    -0x8c(%ebp),%eax
    18db:	89 44 24 08          	mov    %eax,0x8(%esp)
    18df:	8b 45 0c             	mov    0xc(%ebp),%eax
    18e2:	89 44 24 04          	mov    %eax,0x4(%esp)
    18e6:	8b 45 08             	mov    0x8(%ebp),%eax
    18e9:	89 04 24             	mov    %eax,(%esp)
    18ec:	e8 fc ff ff ff       	call   18ed <_svfprintf_r+0x18ed>
    18f1:	85 c0                	test   %eax,%eax
    18f3:	0f 85 d7 e8 ff ff    	jne    1d0 <_svfprintf_r+0x1d0>
    18f9:	8b 9d 5c ff ff ff    	mov    -0xa4(%ebp),%ebx
    18ff:	8d 7d a8             	lea    -0x58(%ebp),%edi
    1902:	8b 8d 7c ff ff ff    	mov    -0x84(%ebp),%ecx
    1908:	e9 d9 fc ff ff       	jmp    15e6 <_svfprintf_r+0x15e6>
    190d:	83 c0 01             	add    $0x1,%eax
    1910:	01 da                	add    %ebx,%edx
    1912:	c7 07 64 01 00 00    	movl   $0x164,(%edi)
    1918:	83 c7 08             	add    $0x8,%edi
    191b:	89 5f fc             	mov    %ebx,-0x4(%edi)
    191e:	83 f8 07             	cmp    $0x7,%eax
    1921:	89 95 7c ff ff ff    	mov    %edx,-0x84(%ebp)
    1927:	89 85 78 ff ff ff    	mov    %eax,-0x88(%ebp)
    192d:	7e 33                	jle    1962 <_svfprintf_r+0x1962>
    192f:	8d 85 74 ff ff ff    	lea    -0x8c(%ebp),%eax
    1935:	89 44 24 08          	mov    %eax,0x8(%esp)
    1939:	8b 45 0c             	mov    0xc(%ebp),%eax
    193c:	89 44 24 04          	mov    %eax,0x4(%esp)
    1940:	8b 45 08             	mov    0x8(%ebp),%eax
    1943:	89 04 24             	mov    %eax,(%esp)
    1946:	e8 fc ff ff ff       	call   1947 <_svfprintf_r+0x1947>
    194b:	85 c0                	test   %eax,%eax
    194d:	0f 85 7d e8 ff ff    	jne    1d0 <_svfprintf_r+0x1d0>
    1953:	8b 95 7c ff ff ff    	mov    -0x84(%ebp),%edx
    1959:	8d 7d a8             	lea    -0x58(%ebp),%edi
    195c:	8b 85 78 ff ff ff    	mov    -0x88(%ebp),%eax
    1962:	8b 9d 28 ff ff ff    	mov    -0xd8(%ebp),%ebx
    1968:	83 c0 01             	add    $0x1,%eax
    196b:	89 85 78 ff ff ff    	mov    %eax,-0x88(%ebp)
    1971:	89 1f                	mov    %ebx,(%edi)
    1973:	8b 9d 1c ff ff ff    	mov    -0xe4(%ebp),%ebx
    1979:	01 da                	add    %ebx,%edx
    197b:	83 f8 07             	cmp    $0x7,%eax
    197e:	89 5f 04             	mov    %ebx,0x4(%edi)
    1981:	89 95 7c ff ff ff    	mov    %edx,-0x84(%ebp)
    1987:	0f 8f 86 f5 ff ff    	jg     f13 <_svfprintf_r+0xf13>
    198d:	83 c7 08             	add    $0x8,%edi
    1990:	89 d1                	mov    %edx,%ecx
    1992:	e9 15 f1 ff ff       	jmp    aac <_svfprintf_r+0xaac>
    1997:	8d 85 74 ff ff ff    	lea    -0x8c(%ebp),%eax
    199d:	89 44 24 08          	mov    %eax,0x8(%esp)
    19a1:	8b 45 0c             	mov    0xc(%ebp),%eax
    19a4:	89 44 24 04          	mov    %eax,0x4(%esp)
    19a8:	8b 45 08             	mov    0x8(%ebp),%eax
    19ab:	89 04 24             	mov    %eax,(%esp)
    19ae:	e8 fc ff ff ff       	call   19af <_svfprintf_r+0x19af>
    19b3:	85 c0                	test   %eax,%eax
    19b5:	0f 85 15 e8 ff ff    	jne    1d0 <_svfprintf_r+0x1d0>
    19bb:	8b 9d 5c ff ff ff    	mov    -0xa4(%ebp),%ebx
    19c1:	8d 7d a8             	lea    -0x58(%ebp),%edi
    19c4:	8b 95 7c ff ff ff    	mov    -0x84(%ebp),%edx
    19ca:	8b 85 78 ff ff ff    	mov    -0x88(%ebp),%eax
    19d0:	e9 62 fc ff ff       	jmp    1637 <_svfprintf_r+0x1637>
    19d5:	c7 85 44 ff ff ff 06 	movl   $0x6,-0xbc(%ebp)
    19dc:	00 00 00 
    19df:	e9 07 fd ff ff       	jmp    16eb <_svfprintf_r+0x16eb>
    19e4:	8b 85 28 ff ff ff    	mov    -0xd8(%ebp),%eax
    19ea:	89 04 24             	mov    %eax,(%esp)
    19ed:	e8 fc ff ff ff       	call   19ee <_svfprintf_r+0x19ee>
    19f2:	e9 6a e8 ff ff       	jmp    261 <_svfprintf_r+0x261>
    19f7:	8d 85 74 ff ff ff    	lea    -0x8c(%ebp),%eax
    19fd:	89 44 24 08          	mov    %eax,0x8(%esp)
    1a01:	8b 45 0c             	mov    0xc(%ebp),%eax
    1a04:	89 44 24 04          	mov    %eax,0x4(%esp)
    1a08:	8b 45 08             	mov    0x8(%ebp),%eax
    1a0b:	89 04 24             	mov    %eax,(%esp)
    1a0e:	e8 fc ff ff ff       	call   1a0f <_svfprintf_r+0x1a0f>
    1a13:	85 c0                	test   %eax,%eax
    1a15:	0f 85 b5 e7 ff ff    	jne    1d0 <_svfprintf_r+0x1d0>
    1a1b:	8b 8d 7c ff ff ff    	mov    -0x84(%ebp),%ecx
    1a21:	8d 7d a8             	lea    -0x58(%ebp),%edi
    1a24:	e9 76 f6 ff ff       	jmp    109f <_svfprintf_r+0x109f>
    1a29:	8d 85 74 ff ff ff    	lea    -0x8c(%ebp),%eax
    1a2f:	89 44 24 08          	mov    %eax,0x8(%esp)
    1a33:	8b 45 0c             	mov    0xc(%ebp),%eax
    1a36:	89 44 24 04          	mov    %eax,0x4(%esp)
    1a3a:	8b 45 08             	mov    0x8(%ebp),%eax
    1a3d:	89 04 24             	mov    %eax,(%esp)
    1a40:	e8 fc ff ff ff       	call   1a41 <_svfprintf_r+0x1a41>
    1a45:	85 c0                	test   %eax,%eax
    1a47:	0f 85 83 e7 ff ff    	jne    1d0 <_svfprintf_r+0x1d0>
    1a4d:	8b 85 5c ff ff ff    	mov    -0xa4(%ebp),%eax
    1a53:	8d 7d a8             	lea    -0x58(%ebp),%edi
    1a56:	8b 8d 7c ff ff ff    	mov    -0x84(%ebp),%ecx
    1a5c:	e9 f4 f8 ff ff       	jmp    1355 <_svfprintf_r+0x1355>
    1a61:	8d 85 74 ff ff ff    	lea    -0x8c(%ebp),%eax
    1a67:	89 44 24 08          	mov    %eax,0x8(%esp)
    1a6b:	8b 45 0c             	mov    0xc(%ebp),%eax
    1a6e:	89 44 24 04          	mov    %eax,0x4(%esp)
    1a72:	8b 45 08             	mov    0x8(%ebp),%eax
    1a75:	89 04 24             	mov    %eax,(%esp)
    1a78:	e8 fc ff ff ff       	call   1a79 <_svfprintf_r+0x1a79>
    1a7d:	85 c0                	test   %eax,%eax
    1a7f:	0f 85 4b e7 ff ff    	jne    1d0 <_svfprintf_r+0x1d0>
    1a85:	8b b5 1c ff ff ff    	mov    -0xe4(%ebp),%esi
    1a8b:	8d 7d a8             	lea    -0x58(%ebp),%edi
    1a8e:	2b b5 5c ff ff ff    	sub    -0xa4(%ebp),%esi
    1a94:	8b 8d 7c ff ff ff    	mov    -0x84(%ebp),%ecx
    1a9a:	e9 fa f8 ff ff       	jmp    1399 <_svfprintf_r+0x1399>
    1a9f:	8b 95 44 ff ff ff    	mov    -0xbc(%ebp),%edx
    1aa5:	b0 06                	mov    $0x6,%al
    1aa7:	89 75 14             	mov    %esi,0x14(%ebp)
    1aaa:	c7 85 44 ff ff ff 00 	movl   $0x0,-0xbc(%ebp)
    1ab1:	00 00 00 
    1ab4:	c7 85 20 ff ff ff 00 	movl   $0x0,-0xe0(%ebp)
    1abb:	00 00 00 
    1abe:	83 fa 06             	cmp    $0x6,%edx
    1ac1:	0f 46 c2             	cmovbe %edx,%eax
    1ac4:	8b 95 28 ff ff ff    	mov    -0xd8(%ebp),%edx
    1aca:	85 c0                	test   %eax,%eax
    1acc:	89 85 38 ff ff ff    	mov    %eax,-0xc8(%ebp)
    1ad2:	c7 85 28 ff ff ff 32 	movl   $0x32,-0xd8(%ebp)
    1ad9:	00 00 00 
    1adc:	0f 49 d0             	cmovns %eax,%edx
    1adf:	31 db                	xor    %ebx,%ebx
    1ae1:	89 95 48 ff ff ff    	mov    %edx,-0xb8(%ebp)
    1ae7:	e9 b7 e7 ff ff       	jmp    2a3 <_svfprintf_r+0x2a3>
    1aec:	c6 85 59 ff ff ff 2d 	movb   $0x2d,-0xa7(%ebp)
    1af3:	bb 2d 00 00 00       	mov    $0x2d,%ebx
    1af8:	e9 9d ea ff ff       	jmp    59a <_svfprintf_r+0x59a>
    1afd:	ba 03 00 00 00       	mov    $0x3,%edx
    1b02:	8d 85 6c ff ff ff    	lea    -0x94(%ebp),%eax
    1b08:	89 44 24 1c          	mov    %eax,0x1c(%esp)
    1b0c:	8d 85 60 ff ff ff    	lea    -0xa0(%ebp),%eax
    1b12:	89 44 24 18          	mov    %eax,0x18(%esp)
    1b16:	8d 85 5c ff ff ff    	lea    -0xa4(%ebp),%eax
    1b1c:	89 44 24 14          	mov    %eax,0x14(%esp)
    1b20:	8b 85 44 ff ff ff    	mov    -0xbc(%ebp),%eax
    1b26:	dd 54 24 04          	fstl   0x4(%esp)
    1b2a:	89 54 24 0c          	mov    %edx,0xc(%esp)
    1b2e:	dd 9d 38 ff ff ff    	fstpl  -0xc8(%ebp)
    1b34:	89 44 24 10          	mov    %eax,0x10(%esp)
    1b38:	8b 45 08             	mov    0x8(%ebp),%eax
    1b3b:	89 04 24             	mov    %eax,(%esp)
    1b3e:	e8 fc ff ff ff       	call   1b3f <_svfprintf_r+0x1b3f>
    1b43:	83 fb 47             	cmp    $0x47,%ebx
    1b46:	89 85 28 ff ff ff    	mov    %eax,-0xd8(%ebp)
    1b4c:	dd 85 38 ff ff ff    	fldl   -0xc8(%ebp)
    1b52:	75 09                	jne    1b5d <_svfprintf_r+0x1b5d>
    1b54:	f6 85 4c ff ff ff 01 	testb  $0x1,-0xb4(%ebp)
    1b5b:	74 5b                	je     1bb8 <_svfprintf_r+0x1bb8>
    1b5d:	8b 95 28 ff ff ff    	mov    -0xd8(%ebp),%edx
    1b63:	89 f0                	mov    %esi,%eax
    1b65:	8b 8d 44 ff ff ff    	mov    -0xbc(%ebp),%ecx
    1b6b:	01 d1                	add    %edx,%ecx
    1b6d:	84 c0                	test   %al,%al
    1b6f:	0f 84 14 fc ff ff    	je     1789 <_svfprintf_r+0x1789>
    1b75:	80 3a 30             	cmpb   $0x30,(%edx)
    1b78:	0f 84 37 02 00 00    	je     1db5 <_svfprintf_r+0x1db5>
    1b7e:	8b 85 5c ff ff ff    	mov    -0xa4(%ebp),%eax
    1b84:	01 c1                	add    %eax,%ecx
    1b86:	e9 fe fb ff ff       	jmp    1789 <_svfprintf_r+0x1789>
    1b8b:	89 85 48 ff ff ff    	mov    %eax,-0xb8(%ebp)
    1b91:	8b 85 30 ff ff ff    	mov    -0xd0(%ebp),%eax
    1b97:	bb 2d 00 00 00       	mov    $0x2d,%ebx
    1b9c:	c6 85 59 ff ff ff 2d 	movb   $0x2d,-0xa7(%ebp)
    1ba3:	c7 85 44 ff ff ff 00 	movl   $0x0,-0xbc(%ebp)
    1baa:	00 00 00 
    1bad:	89 85 4c ff ff ff    	mov    %eax,-0xb4(%ebp)
    1bb3:	e9 e4 e6 ff ff       	jmp    29c <_svfprintf_r+0x29c>
    1bb8:	dd d8                	fstp   %st(0)
    1bba:	8b 85 6c ff ff ff    	mov    -0x94(%ebp),%eax
    1bc0:	89 85 1c ff ff ff    	mov    %eax,-0xe4(%ebp)
    1bc6:	8b 85 28 ff ff ff    	mov    -0xd8(%ebp),%eax
    1bcc:	29 85 1c ff ff ff    	sub    %eax,-0xe4(%ebp)
    1bd2:	8b 85 5c ff ff ff    	mov    -0xa4(%ebp),%eax
    1bd8:	83 f8 fd             	cmp    $0xfffffffd,%eax
    1bdb:	7c 48                	jl     1c25 <_svfprintf_r+0x1c25>
    1bdd:	39 85 44 ff ff ff    	cmp    %eax,-0xbc(%ebp)
    1be3:	7c 40                	jl     1c25 <_svfprintf_r+0x1c25>
    1be5:	89 85 20 ff ff ff    	mov    %eax,-0xe0(%ebp)
    1beb:	e9 ea fb ff ff       	jmp    17da <_svfprintf_r+0x17da>
    1bf0:	8b 85 44 ff ff ff    	mov    -0xbc(%ebp),%eax
    1bf6:	0f b6 9d 59 ff ff ff 	movzbl -0xa7(%ebp),%ebx
    1bfd:	89 75 14             	mov    %esi,0x14(%ebp)
    1c00:	c7 85 44 ff ff ff 00 	movl   $0x0,-0xbc(%ebp)
    1c07:	00 00 00 
    1c0a:	89 85 48 ff ff ff    	mov    %eax,-0xb8(%ebp)
    1c10:	89 85 38 ff ff ff    	mov    %eax,-0xc8(%ebp)
    1c16:	c7 85 20 ff ff ff 00 	movl   $0x0,-0xe0(%ebp)
    1c1d:	00 00 00 
    1c20:	e9 73 e6 ff ff       	jmp    298 <_svfprintf_r+0x298>
    1c25:	83 ad 24 ff ff ff 02 	subl   $0x2,-0xdc(%ebp)
    1c2c:	8d 48 ff             	lea    -0x1(%eax),%ecx
    1c2f:	0f b6 85 24 ff ff ff 	movzbl -0xdc(%ebp),%eax
    1c36:	85 c9                	test   %ecx,%ecx
    1c38:	89 8d 5c ff ff ff    	mov    %ecx,-0xa4(%ebp)
    1c3e:	88 85 65 ff ff ff    	mov    %al,-0x9b(%ebp)
    1c44:	0f 88 2c 02 00 00    	js     1e76 <_svfprintf_r+0x1e76>
    1c4a:	c6 85 66 ff ff ff 2b 	movb   $0x2b,-0x9a(%ebp)
    1c51:	83 f9 09             	cmp    $0x9,%ecx
    1c54:	0f 8f ea 00 00 00    	jg     1d44 <_svfprintf_r+0x1d44>
    1c5a:	83 c1 30             	add    $0x30,%ecx
    1c5d:	c6 85 67 ff ff ff 30 	movb   $0x30,-0x99(%ebp)
    1c64:	8d 85 69 ff ff ff    	lea    -0x97(%ebp),%eax
    1c6a:	88 8d 68 ff ff ff    	mov    %cl,-0x98(%ebp)
    1c70:	8b 9d 1c ff ff ff    	mov    -0xe4(%ebp),%ebx
    1c76:	8d 95 65 ff ff ff    	lea    -0x9b(%ebp),%edx
    1c7c:	29 d0                	sub    %edx,%eax
    1c7e:	89 85 04 ff ff ff    	mov    %eax,-0xfc(%ebp)
    1c84:	89 da                	mov    %ebx,%edx
    1c86:	01 c2                	add    %eax,%edx
    1c88:	83 fb 01             	cmp    $0x1,%ebx
    1c8b:	89 95 38 ff ff ff    	mov    %edx,-0xc8(%ebp)
    1c91:	0f 8e 21 02 00 00    	jle    1eb8 <_svfprintf_r+0x1eb8>
    1c97:	31 c0                	xor    %eax,%eax
    1c99:	83 85 38 ff ff ff 01 	addl   $0x1,-0xc8(%ebp)
    1ca0:	0f 49 85 38 ff ff ff 	cmovns -0xc8(%ebp),%eax
    1ca7:	c7 85 20 ff ff ff 00 	movl   $0x0,-0xe0(%ebp)
    1cae:	00 00 00 
    1cb1:	e9 60 fb ff ff       	jmp    1816 <_svfprintf_r+0x1816>
    1cb6:	8b 8d 48 ff ff ff    	mov    -0xb8(%ebp),%ecx
    1cbc:	c7 85 44 ff ff ff 00 	movl   $0x0,-0xbc(%ebp)
    1cc3:	00 00 00 
    1cc6:	e9 68 e4 ff ff       	jmp    133 <_svfprintf_r+0x133>
    1ccb:	ba 02 00 00 00       	mov    $0x2,%edx
    1cd0:	e9 2d fe ff ff       	jmp    1b02 <_svfprintf_r+0x1b02>
    1cd5:	d9 e0                	fchs   
    1cd7:	c6 85 48 ff ff ff 2d 	movb   $0x2d,-0xb8(%ebp)
    1cde:	e9 38 fa ff ff       	jmp    171b <_svfprintf_r+0x171b>
    1ce3:	8b 8d 20 ff ff ff    	mov    -0xe0(%ebp),%ecx
    1ce9:	ba 01 00 00 00       	mov    $0x1,%edx
    1cee:	85 c9                	test   %ecx,%ecx
    1cf0:	0f 8e 5a 01 00 00    	jle    1e50 <_svfprintf_r+0x1e50>
    1cf6:	31 c0                	xor    %eax,%eax
    1cf8:	03 95 1c ff ff ff    	add    -0xe4(%ebp),%edx
    1cfe:	c7 85 24 ff ff ff 67 	movl   $0x67,-0xdc(%ebp)
    1d05:	00 00 00 
    1d08:	89 95 38 ff ff ff    	mov    %edx,-0xc8(%ebp)
    1d0e:	0f 49 c2             	cmovns %edx,%eax
    1d11:	e9 00 fb ff ff       	jmp    1816 <_svfprintf_r+0x1816>
    1d16:	85 c0                	test   %eax,%eax
    1d18:	0f 8e 06 01 00 00    	jle    1e24 <_svfprintf_r+0x1e24>
    1d1e:	8b b5 44 ff ff ff    	mov    -0xbc(%ebp),%esi
    1d24:	85 f6                	test   %esi,%esi
    1d26:	0f 85 d4 00 00 00    	jne    1e00 <_svfprintf_r+0x1e00>
    1d2c:	f6 85 4c ff ff ff 01 	testb  $0x1,-0xb4(%ebp)
    1d33:	0f 85 c7 00 00 00    	jne    1e00 <_svfprintf_r+0x1e00>
    1d39:	89 85 38 ff ff ff    	mov    %eax,-0xc8(%ebp)
    1d3f:	e9 d2 fa ff ff       	jmp    1816 <_svfprintf_r+0x1816>
    1d44:	8d b5 73 ff ff ff    	lea    -0x8d(%ebp),%esi
    1d4a:	89 f3                	mov    %esi,%ebx
    1d4c:	b8 67 66 66 66       	mov    $0x66666667,%eax
    1d51:	83 eb 01             	sub    $0x1,%ebx
    1d54:	f7 e9                	imul   %ecx
    1d56:	89 c8                	mov    %ecx,%eax
    1d58:	c1 f8 1f             	sar    $0x1f,%eax
    1d5b:	c1 fa 02             	sar    $0x2,%edx
    1d5e:	29 c2                	sub    %eax,%edx
    1d60:	8d 04 92             	lea    (%edx,%edx,4),%eax
    1d63:	01 c0                	add    %eax,%eax
    1d65:	29 c1                	sub    %eax,%ecx
    1d67:	83 fa 09             	cmp    $0x9,%edx
    1d6a:	8d 41 30             	lea    0x30(%ecx),%eax
    1d6d:	89 d1                	mov    %edx,%ecx
    1d6f:	88 03                	mov    %al,(%ebx)
    1d71:	7f d9                	jg     1d4c <_svfprintf_r+0x1d4c>
    1d73:	8d 43 ff             	lea    -0x1(%ebx),%eax
    1d76:	83 c1 30             	add    $0x30,%ecx
    1d79:	39 f0                	cmp    %esi,%eax
    1d7b:	88 4b ff             	mov    %cl,-0x1(%ebx)
    1d7e:	0f 83 6a 01 00 00    	jae    1eee <_svfprintf_r+0x1eee>
    1d84:	8d 95 67 ff ff ff    	lea    -0x99(%ebp),%edx
    1d8a:	eb 07                	jmp    1d93 <_svfprintf_r+0x1d93>
    1d8c:	8d 74 26 00          	lea    0x0(%esi,%eiz,1),%esi
    1d90:	0f b6 08             	movzbl (%eax),%ecx
    1d93:	83 c0 01             	add    $0x1,%eax
    1d96:	83 c2 01             	add    $0x1,%edx
    1d99:	39 f0                	cmp    %esi,%eax
    1d9b:	88 4a ff             	mov    %cl,-0x1(%edx)
    1d9e:	75 f0                	jne    1d90 <_svfprintf_r+0x1d90>
    1da0:	8d 85 74 ff ff ff    	lea    -0x8c(%ebp),%eax
    1da6:	29 d8                	sub    %ebx,%eax
    1da8:	8d 95 67 ff ff ff    	lea    -0x99(%ebp),%edx
    1dae:	01 d0                	add    %edx,%eax
    1db0:	e9 bb fe ff ff       	jmp    1c70 <_svfprintf_r+0x1c70>
    1db5:	d9 ee                	fldz   
    1db7:	d9 c9                	fxch   %st(1)
    1db9:	db e9                	fucomi %st(1),%st
    1dbb:	dd d9                	fstp   %st(1)
    1dbd:	7a 06                	jp     1dc5 <_svfprintf_r+0x1dc5>
    1dbf:	0f 84 b9 fd ff ff    	je     1b7e <_svfprintf_r+0x1b7e>
    1dc5:	b8 01 00 00 00       	mov    $0x1,%eax
    1dca:	2b 85 44 ff ff ff    	sub    -0xbc(%ebp),%eax
    1dd0:	89 85 5c ff ff ff    	mov    %eax,-0xa4(%ebp)
    1dd6:	01 c1                	add    %eax,%ecx
    1dd8:	e9 ac f9 ff ff       	jmp    1789 <_svfprintf_r+0x1789>
    1ddd:	8b 95 20 ff ff ff    	mov    -0xe0(%ebp),%edx
    1de3:	31 c0                	xor    %eax,%eax
    1de5:	c7 85 24 ff ff ff 67 	movl   $0x67,-0xdc(%ebp)
    1dec:	00 00 00 
    1def:	83 c2 01             	add    $0x1,%edx
    1df2:	89 95 38 ff ff ff    	mov    %edx,-0xc8(%ebp)
    1df8:	0f 49 c2             	cmovns %edx,%eax
    1dfb:	e9 16 fa ff ff       	jmp    1816 <_svfprintf_r+0x1816>
    1e00:	8b 95 20 ff ff ff    	mov    -0xe0(%ebp),%edx
    1e06:	8b 85 44 ff ff ff    	mov    -0xbc(%ebp),%eax
    1e0c:	8d 44 10 01          	lea    0x1(%eax,%edx,1),%eax
    1e10:	89 c2                	mov    %eax,%edx
    1e12:	89 85 38 ff ff ff    	mov    %eax,-0xc8(%ebp)
    1e18:	31 c0                	xor    %eax,%eax
    1e1a:	85 d2                	test   %edx,%edx
    1e1c:	0f 49 c2             	cmovns %edx,%eax
    1e1f:	e9 f2 f9 ff ff       	jmp    1816 <_svfprintf_r+0x1816>
    1e24:	8b 9d 44 ff ff ff    	mov    -0xbc(%ebp),%ebx
    1e2a:	85 db                	test   %ebx,%ebx
    1e2c:	75 2f                	jne    1e5d <_svfprintf_r+0x1e5d>
    1e2e:	f6 85 4c ff ff ff 01 	testb  $0x1,-0xb4(%ebp)
    1e35:	75 26                	jne    1e5d <_svfprintf_r+0x1e5d>
    1e37:	b8 01 00 00 00       	mov    $0x1,%eax
    1e3c:	c7 85 38 ff ff ff 01 	movl   $0x1,-0xc8(%ebp)
    1e43:	00 00 00 
    1e46:	e9 cb f9 ff ff       	jmp    1816 <_svfprintf_r+0x1816>
    1e4b:	90                   	nop
    1e4c:	8d 74 26 00          	lea    0x0(%esi,%eiz,1),%esi
    1e50:	b2 02                	mov    $0x2,%dl
    1e52:	2b 95 20 ff ff ff    	sub    -0xe0(%ebp),%edx
    1e58:	e9 99 fe ff ff       	jmp    1cf6 <_svfprintf_r+0x1cf6>
    1e5d:	8b 95 44 ff ff ff    	mov    -0xbc(%ebp),%edx
    1e63:	31 c0                	xor    %eax,%eax
    1e65:	83 c2 02             	add    $0x2,%edx
    1e68:	89 95 38 ff ff ff    	mov    %edx,-0xc8(%ebp)
    1e6e:	0f 49 c2             	cmovns %edx,%eax
    1e71:	e9 a0 f9 ff ff       	jmp    1816 <_svfprintf_r+0x1816>
    1e76:	f7 d9                	neg    %ecx
    1e78:	c6 85 66 ff ff ff 2d 	movb   $0x2d,-0x9a(%ebp)
    1e7f:	e9 cd fd ff ff       	jmp    1c51 <_svfprintf_r+0x1c51>
    1e84:	8b 55 14             	mov    0x14(%ebp),%edx
    1e87:	8b 45 14             	mov    0x14(%ebp),%eax
    1e8a:	8b 8d 48 ff ff ff    	mov    -0xb8(%ebp),%ecx
    1e90:	8b 12                	mov    (%edx),%edx
    1e92:	83 c0 04             	add    $0x4,%eax
    1e95:	89 45 14             	mov    %eax,0x14(%ebp)
    1e98:	85 d2                	test   %edx,%edx
    1e9a:	89 95 44 ff ff ff    	mov    %edx,-0xbc(%ebp)
    1ea0:	0f 89 a9 e2 ff ff    	jns    14f <_svfprintf_r+0x14f>
    1ea6:	c7 85 44 ff ff ff ff 	movl   $0xffffffff,-0xbc(%ebp)
    1ead:	ff ff ff 
    1eb0:	89 c8                	mov    %ecx,%eax
    1eb2:	e9 76 e2 ff ff       	jmp    12d <_svfprintf_r+0x12d>
    1eb7:	90                   	nop
    1eb8:	8b 85 4c ff ff ff    	mov    -0xb4(%ebp),%eax
    1ebe:	83 e0 01             	and    $0x1,%eax
    1ec1:	0f 85 d0 fd ff ff    	jne    1c97 <_svfprintf_r+0x1c97>
    1ec7:	85 d2                	test   %edx,%edx
    1ec9:	0f 49 c2             	cmovns %edx,%eax
    1ecc:	c7 85 20 ff ff ff 00 	movl   $0x0,-0xe0(%ebp)
    1ed3:	00 00 00 
    1ed6:	e9 3b f9 ff ff       	jmp    1816 <_svfprintf_r+0x1816>
    1edb:	8b 45 08             	mov    0x8(%ebp),%eax
    1ede:	c7 00 0c 00 00 00    	movl   $0xc,(%eax)
    1ee4:	b8 ff ff ff ff       	mov    $0xffffffff,%eax
    1ee9:	e9 f5 e2 ff ff       	jmp    1e3 <_svfprintf_r+0x1e3>
    1eee:	8d 85 67 ff ff ff    	lea    -0x99(%ebp),%eax
    1ef4:	e9 77 fd ff ff       	jmp    1c70 <_svfprintf_r+0x1c70>

Disassembly of section .rodata.str1.1:

00000000 <.rodata.str1.1>:
   0:	49                   	dec    %ecx
   1:	4e                   	dec    %esi
   2:	46                   	inc    %esi
   3:	00 69 6e             	add    %ch,0x6e(%ecx)
   6:	66 00 4e 41          	data16 add %cl,0x41(%esi)
   a:	4e                   	dec    %esi
   b:	00 6e 61             	add    %ch,0x61(%esi)
   e:	6e                   	outsb  %ds:(%esi),(%dx)
   f:	00 30                	add    %dh,(%eax)
  11:	31 32                	xor    %esi,(%edx)
  13:	33 34 35 36 37 38 39 	xor    0x39383736(,%esi,1),%esi
  1a:	41                   	inc    %ecx
  1b:	42                   	inc    %edx
  1c:	43                   	inc    %ebx
  1d:	44                   	inc    %esp
  1e:	45                   	inc    %ebp
  1f:	46                   	inc    %esi
  20:	00 30                	add    %dh,(%eax)
  22:	31 32                	xor    %esi,(%edx)
  24:	33 34 35 36 37 38 39 	xor    0x39383736(,%esi,1),%esi
  2b:	61                   	popa   
  2c:	62 63 64             	bound  %esp,0x64(%ebx)
  2f:	65 66 00 28          	data16 add %ch,%gs:(%eax)
  33:	6e                   	outsb  %ds:(%esi),(%dx)
  34:	75 6c                	jne    a2 <_svfprintf_r+0xa2>
  36:	6c                   	insb   (%dx),%es:(%edi)
  37:	29 00                	sub    %eax,(%eax)
  39:	30 00                	xor    %al,(%eax)

Disassembly of section .rodata:

00000000 <zeroes.3939-0x164>:
   0:	7e 04                	jle    6 <zeroes.3939-0x15e>
   2:	00 00                	add    %al,(%eax)
   4:	ce                   	into   
   5:	08 00                	or     %al,(%eax)
   7:	00 ce                	add    %cl,%dh
   9:	08 00                	or     %al,(%eax)
   b:	00 8a 04 00 00 ce    	add    %cl,-0x31fffffc(%edx)
  11:	08 00                	or     %al,(%eax)
  13:	00 ce                	add    %cl,%dh
  15:	08 00                	or     %al,(%eax)
  17:	00 ce                	add    %cl,%dh
  19:	08 00                	or     %al,(%eax)
  1b:	00 ce                	add    %cl,%dh
  1d:	08 00                	or     %al,(%eax)
  1f:	00 ce                	add    %cl,%dh
  21:	08 00                	or     %al,(%eax)
  23:	00 ce                	add    %cl,%dh
  25:	08 00                	or     %al,(%eax)
  27:	00 53 01             	add    %dl,0x1(%ebx)
  2a:	00 00                	add    %al,(%eax)
  2c:	ee                   	out    %al,(%dx)
  2d:	01 00                	add    %eax,(%eax)
  2f:	00 ce                	add    %cl,%dh
  31:	08 00                	or     %al,(%eax)
  33:	00 71 01             	add    %dh,0x1(%ecx)
  36:	00 00                	add    %al,(%eax)
  38:	eb 05                	jmp    3f <zeroes.3939-0x125>
  3a:	00 00                	add    %al,(%eax)
  3c:	ce                   	into   
  3d:	08 00                	or     %al,(%eax)
  3f:	00 98 04 00 00 a9    	add    %bl,-0x56fffffc(%eax)
  45:	04 00                	add    $0x0,%al
  47:	00 a9 04 00 00 a9    	add    %ch,-0x56fffffc(%ecx)
  4d:	04 00                	add    $0x0,%al
  4f:	00 a9 04 00 00 a9    	add    %ch,-0x56fffffc(%ecx)
  55:	04 00                	add    $0x0,%al
  57:	00 a9 04 00 00 a9    	add    %ch,-0x56fffffc(%ecx)
  5d:	04 00                	add    $0x0,%al
  5f:	00 a9 04 00 00 a9    	add    %ch,-0x56fffffc(%ecx)
  65:	04 00                	add    $0x0,%al
  67:	00 ce                	add    %cl,%dh
  69:	08 00                	or     %al,(%eax)
  6b:	00 ce                	add    %cl,%dh
  6d:	08 00                	or     %al,(%eax)
  6f:	00 ce                	add    %cl,%dh
  71:	08 00                	or     %al,(%eax)
  73:	00 ce                	add    %cl,%dh
  75:	08 00                	or     %al,(%eax)
  77:	00 ce                	add    %cl,%dh
  79:	08 00                	or     %al,(%eax)
  7b:	00 ce                	add    %cl,%dh
  7d:	08 00                	or     %al,(%eax)
  7f:	00 ce                	add    %cl,%dh
  81:	08 00                	or     %al,(%eax)
  83:	00 ce                	add    %cl,%dh
  85:	08 00                	or     %al,(%eax)
  87:	00 ce                	add    %cl,%dh
  89:	08 00                	or     %al,(%eax)
  8b:	00 ce                	add    %cl,%dh
  8d:	08 00                	or     %al,(%eax)
  8f:	00 e6                	add    %ah,%dh
  91:	04 00                	add    $0x0,%al
  93:	00 3b                	add    %bh,(%ebx)
  95:	05 00 00 ce 08       	add    $0x8ce0000,%eax
  9a:	00 00                	add    %al,(%eax)
  9c:	3b 05 00 00 ce 08    	cmp    0x8ce0000,%eax
  a2:	00 00                	add    %al,(%eax)
  a4:	ce                   	into   
  a5:	08 00                	or     %al,(%eax)
  a7:	00 ce                	add    %cl,%dh
  a9:	08 00                	or     %al,(%eax)
  ab:	00 ce                	add    %cl,%dh
  ad:	08 00                	or     %al,(%eax)
  af:	00 d1                	add    %dl,%cl
  b1:	06                   	push   %es
  b2:	00 00                	add    %al,(%eax)
  b4:	ce                   	into   
  b5:	08 00                	or     %al,(%eax)
  b7:	00 ce                	add    %cl,%dh
  b9:	08 00                	or     %al,(%eax)
  bb:	00 1f                	add    %bl,(%edi)
  bd:	07                   	pop    %es
  be:	00 00                	add    %al,(%eax)
  c0:	ce                   	into   
  c1:	08 00                	or     %al,(%eax)
  c3:	00 ce                	add    %cl,%dh
  c5:	08 00                	or     %al,(%eax)
  c7:	00 ce                	add    %cl,%dh
  c9:	08 00                	or     %al,(%eax)
  cb:	00 ce                	add    %cl,%dh
  cd:	08 00                	or     %al,(%eax)
  cf:	00 ce                	add    %cl,%dh
  d1:	08 00                	or     %al,(%eax)
  d3:	00 9c 08 00 00 ce 08 	add    %bl,0x8ce0000(%eax,%ecx,1)
  da:	00 00                	add    %al,(%eax)
  dc:	ce                   	into   
  dd:	08 00                	or     %al,(%eax)
  df:	00 14 08             	add    %dl,(%eax,%ecx,1)
  e2:	00 00                	add    %al,(%eax)
  e4:	ce                   	into   
  e5:	08 00                	or     %al,(%eax)
  e7:	00 ce                	add    %cl,%dh
  e9:	08 00                	or     %al,(%eax)
  eb:	00 ce                	add    %cl,%dh
  ed:	08 00                	or     %al,(%eax)
  ef:	00 ce                	add    %cl,%dh
  f1:	08 00                	or     %al,(%eax)
  f3:	00 ce                	add    %cl,%dh
  f5:	08 00                	or     %al,(%eax)
  f7:	00 ce                	add    %cl,%dh
  f9:	08 00                	or     %al,(%eax)
  fb:	00 ce                	add    %cl,%dh
  fd:	08 00                	or     %al,(%eax)
  ff:	00 ce                	add    %cl,%dh
 101:	08 00                	or     %al,(%eax)
 103:	00 ce                	add    %cl,%dh
 105:	08 00                	or     %al,(%eax)
 107:	00 ce                	add    %cl,%dh
 109:	08 00                	or     %al,(%eax)
 10b:	00 43 08             	add    %al,0x8(%ebx)
 10e:	00 00                	add    %al,(%eax)
 110:	4e                   	dec    %esi
 111:	07                   	pop    %es
 112:	00 00                	add    %al,(%eax)
 114:	3b 05 00 00 3b 05    	cmp    0x53b0000,%eax
 11a:	00 00                	add    %al,(%eax)
 11c:	3b 05 00 00 95 07    	cmp    0x7950000,%eax
 122:	00 00                	add    %al,(%eax)
 124:	4e                   	dec    %esi
 125:	07                   	pop    %es
 126:	00 00                	add    %al,(%eax)
 128:	ce                   	into   
 129:	08 00                	or     %al,(%eax)
 12b:	00 ce                	add    %cl,%dh
 12d:	08 00                	or     %al,(%eax)
 12f:	00 48 01             	add    %cl,0x1(%eax)
 132:	00 00                	add    %al,(%eax)
 134:	ce                   	into   
 135:	08 00                	or     %al,(%eax)
 137:	00 df                	add    %bl,%bh
 139:	06                   	push   %es
 13a:	00 00                	add    %al,(%eax)
 13c:	9f                   	lahf   
 13d:	06                   	push   %es
 13e:	00 00                	add    %al,(%eax)
 140:	5e                   	pop    %esi
 141:	06                   	push   %es
 142:	00 00                	add    %al,(%eax)
 144:	48                   	dec    %eax
 145:	01 00                	add    %eax,(%eax)
 147:	00 ce                	add    %cl,%dh
 149:	08 00                	or     %al,(%eax)
 14b:	00 fa                	add    %bh,%dl
 14d:	01 00                	add    %eax,(%eax)
 14f:	00 ce                	add    %cl,%dh
 151:	08 00                	or     %al,(%eax)
 153:	00 a6 03 00 00 ce    	add    %ah,-0x31fffffd(%esi)
 159:	08 00                	or     %al,(%eax)
 15b:	00 ce                	add    %cl,%dh
 15d:	08 00                	or     %al,(%eax)
 15f:	00 a3 07 00 00 30    	add    %ah,0x30000007(%ebx)

00000164 <zeroes.3939>:
 164:	30 30                	xor    %dh,(%eax)
 166:	30 30                	xor    %dh,(%eax)
 168:	30 30                	xor    %dh,(%eax)
 16a:	30 30                	xor    %dh,(%eax)
 16c:	30 30                	xor    %dh,(%eax)
 16e:	30 30                	xor    %dh,(%eax)
 170:	30 30                	xor    %dh,(%eax)
 172:	30 30                	xor    %dh,(%eax)

00000174 <blanks.3938>:
 174:	20 20                	and    %ah,(%eax)
 176:	20 20                	and    %ah,(%eax)
 178:	20 20                	and    %ah,(%eax)
 17a:	20 20                	and    %ah,(%eax)
 17c:	20 20                	and    %ah,(%eax)
 17e:	20 20                	and    %ah,(%eax)
 180:	20 20                	and    %ah,(%eax)
 182:	20 20                	and    %ah,(%eax)

Disassembly of section .debug_info:

00000000 <.debug_info>:
       0:	f6 16                	notb   (%esi)
       2:	00 00                	add    %al,(%eax)
       4:	04 00                	add    $0x0,%al
       6:	00 00                	add    %al,(%eax)
       8:	00 00                	add    %al,(%eax)
       a:	04 01                	add    $0x1,%al
       c:	22 04 00             	and    (%eax,%eax,1),%al
       f:	00 01                	add    %al,(%ecx)
      11:	0f 05                	syscall 
      13:	00 00                	add    %al,(%eax)
      15:	65 07                	gs pop %es
      17:	00 00                	add    %al,(%eax)
      19:	00 00                	add    %al,(%eax)
      1b:	00 00                	add    %al,(%eax)
      1d:	f9                   	stc    
      1e:	1e                   	push   %ds
      1f:	00 00                	add    %al,(%eax)
      21:	00 00                	add    %al,(%eax)
      23:	00 00                	add    %al,(%eax)
      25:	02 08                	add    (%eax),%cl
      27:	04 34                	add    $0x34,%al
      29:	08 00                	or     %al,(%eax)
      2b:	00 03                	add    %al,(%ebx)
      2d:	04 05                	add    $0x5,%al
      2f:	69 6e 74 00 04 55 02 	imul   $0x2550400,0x74(%esi),%ebp
      36:	00 00                	add    %al,(%eax)
      38:	02 d4                	add    %ah,%dl
      3a:	3e 00 00             	add    %al,%ds:(%eax)
      3d:	00 02                	add    %al,(%edx)
      3f:	04 07                	add    $0x7,%al
      41:	61                   	popa   
      42:	00 00                	add    %al,(%eax)
      44:	00 02                	add    %al,(%edx)
      46:	04 05                	add    $0x5,%al
      48:	a7                   	cmpsl  %es:(%edi),%ds:(%esi)
      49:	05 00 00 02 01       	add    $0x1020000,%eax
      4e:	06                   	push   %es
      4f:	f1                   	icebp  
      50:	07                   	pop    %es
      51:	00 00                	add    %al,(%eax)
      53:	02 01                	add    (%ecx),%al
      55:	08 1e                	or     %bl,(%esi)
      57:	07                   	pop    %es
      58:	00 00                	add    %al,(%eax)
      5a:	02 02                	add    (%edx),%al
      5c:	05 7f 05 00 00       	add    $0x57f,%eax
      61:	02 02                	add    (%edx),%al
      63:	07                   	pop    %es
      64:	04 08                	add    $0x8,%al
      66:	00 00                	add    %al,(%eax)
      68:	04 2c                	add    $0x2c,%al
      6a:	07                   	pop    %es
      6b:	00 00                	add    %al,(%eax)
      6d:	03 38                	add    (%eax),%edi
      6f:	3e 00 00             	add    %al,%ds:(%eax)
      72:	00 02                	add    %al,(%edx)
      74:	08 05 c4 03 00 00    	or     %al,0x3c4
      7a:	02 08                	add    (%eax),%cl
      7c:	07                   	pop    %es
      7d:	9f                   	lahf   
      7e:	01 00                	add    %eax,(%eax)
      80:	00 04 4f             	add    %al,(%edi,%ecx,2)
      83:	05 00 00 03 a9       	add    $0xa9030000,%eax
      88:	3e 00 00             	add    %al,%ds:(%eax)
      8b:	00 04 a2             	add    %al,(%edx,%eiz,4)
      8e:	00 00                	add    %al,(%eax)
      90:	00 04 07             	add    %al,(%edi,%eax,1)
      93:	2c 00                	sub    $0x0,%al
      95:	00 00                	add    %al,(%eax)
      97:	04 3b                	add    $0x3b,%al
      99:	08 00                	or     %al,(%eax)
      9b:	00 05 10 45 00 00    	add    %al,0x4510
      a1:	00 04 db             	add    %al,(%ebx,%ebx,8)
      a4:	00 00                	add    %al,(%eax)
      a6:	00 05 27 45 00 00    	add    %al,0x4527
      ac:	00 04 e8             	add    %al,(%eax,%ebp,8)
      af:	07                   	pop    %es
      b0:	00 00                	add    %al,(%eax)
      b2:	05 37 2c 00 00       	add    $0x2c37,%eax
      b7:	00 05 e3 06 00 00    	add    %al,0x6e3
      bd:	02 61 01             	add    0x1(%ecx),%ah
      c0:	3e 00 00             	add    %al,%ds:(%eax)
      c3:	00 06                	add    %al,(%esi)
      c5:	04 05                	add    $0x5,%al
      c7:	4a                   	dec    %edx
      c8:	e3 00                	jecxz  ca <.debug_info+0xca>
      ca:	00 00                	add    %al,(%eax)
      cc:	07                   	pop    %es
      cd:	6e                   	outsb  %ds:(%esi),(%dx)
      ce:	03 00                	add    (%eax),%eax
      d0:	00 05 4c b8 00 00    	add    %al,0xb84c
      d6:	00 07                	add    %al,(%edi)
      d8:	f7 05 00 00 05 4d e3 	testl  $0xe3,0x4d050000
      df:	00 00 00 
      e2:	00 08                	add    %cl,(%eax)
      e4:	53                   	push   %ebx
      e5:	00 00                	add    %al,(%eax)
      e7:	00 f3                	add    %dh,%bl
      e9:	00 00                	add    %al,(%eax)
      eb:	00 09                	add    %cl,(%ecx)
      ed:	f3 00 00             	repz add %al,(%eax)
      f0:	00 03                	add    %al,(%ebx)
      f2:	00 02                	add    %al,(%edx)
      f4:	04 07                	add    $0x7,%al
      f6:	c1 06 00             	roll   $0x0,(%esi)
      f9:	00 0a                	add    %cl,(%edx)
      fb:	08 05 47 1b 01 00    	or     %al,0x11b47
     101:	00 0b                	add    %cl,(%ebx)
     103:	4d                   	dec    %ebp
     104:	01 00                	add    %eax,(%eax)
     106:	00 05 49 2c 00 00    	add    %al,0x2c49
     10c:	00 00                	add    %al,(%eax)
     10e:	0b e1                	or     %ecx,%esp
     110:	02 00                	add    (%eax),%al
     112:	00 05 4e c4 00 00    	add    %al,0xc44e
     118:	00 04 00             	add    %al,(%eax,%eax,1)
     11b:	04 ad                	add    $0xad,%al
     11d:	04 00                	add    $0x0,%al
     11f:	00 05 4f fa 00 00    	add    %al,0xfa4f
     125:	00 04 65 03 00 00 05 	add    %al,0x5000003(,%eiz,2)
     12c:	53                   	push   %ebx
     12d:	8c 00                	mov    %es,(%eax)
     12f:	00 00                	add    %al,(%eax)
     131:	0c 04                	or     $0x4,%al
     133:	04 f0                	add    $0xf0,%al
     135:	03 00                	add    (%eax),%eax
     137:	00 06                	add    %al,(%esi)
     139:	16                   	push   %ss
     13a:	3e 01 00             	add    %eax,%ds:(%eax)
     13d:	00 02                	add    %al,(%edx)
     13f:	04 07                	add    $0x7,%al
     141:	ca 06 00             	lret   $0x6
     144:	00 0d 13 01 00 00    	add    %cl,0x113
     14a:	18 06                	sbb    %al,(%esi)
     14c:	2d 98 01 00 00       	sub    $0x198,%eax
     151:	0b 9a 02 00 00 06    	or     0x6000002(%edx),%ebx
     157:	2f                   	das    
     158:	98                   	cwtl   
     159:	01 00                	add    %eax,(%eax)
     15b:	00 00                	add    %al,(%eax)
     15d:	0e                   	push   %cs
     15e:	5f                   	pop    %edi
     15f:	6b 00 06             	imul   $0x6,(%eax),%eax
     162:	30 2c 00             	xor    %ch,(%eax,%eax,1)
     165:	00 00                	add    %al,(%eax)
     167:	04 0b                	add    $0xb,%al
     169:	71 06                	jno    171 <.debug_info+0x171>
     16b:	00 00                	add    %al,(%eax)
     16d:	06                   	push   %es
     16e:	30 2c 00             	xor    %ch,(%eax,%eax,1)
     171:	00 00                	add    %al,(%eax)
     173:	08 0b                	or     %cl,(%ebx)
     175:	d4 05                	aam    $0x5
     177:	00 00                	add    %al,(%eax)
     179:	06                   	push   %es
     17a:	30 2c 00             	xor    %ch,(%eax,%eax,1)
     17d:	00 00                	add    %al,(%eax)
     17f:	0c 0b                	or     $0xb,%al
     181:	d5 01                	aad    $0x1
     183:	00 00                	add    %al,(%eax)
     185:	06                   	push   %es
     186:	30 2c 00             	xor    %ch,(%eax,%eax,1)
     189:	00 00                	add    %al,(%eax)
     18b:	10 0e                	adc    %cl,(%esi)
     18d:	5f                   	pop    %edi
     18e:	78 00                	js     190 <.debug_info+0x190>
     190:	06                   	push   %es
     191:	31 9e 01 00 00 14    	xor    %ebx,0x14000001(%esi)
     197:	00 0f                	add    %cl,(%edi)
     199:	04 45                	add    $0x45,%al
     19b:	01 00                	add    %eax,(%eax)
     19d:	00 08                	add    %cl,(%eax)
     19f:	33 01                	xor    (%ecx),%eax
     1a1:	00 00                	add    %al,(%eax)
     1a3:	ae                   	scas   %es:(%edi),%al
     1a4:	01 00                	add    %eax,(%eax)
     1a6:	00 09                	add    %cl,(%ecx)
     1a8:	f3 00 00             	repz add %al,(%eax)
     1ab:	00 00                	add    %al,(%eax)
     1ad:	00 0d a8 06 00 00    	add    %cl,0x6a8
     1b3:	24 06                	and    $0x6,%al
     1b5:	35 27 02 00 00       	xor    $0x227,%eax
     1ba:	0b 74 02 00          	or     0x0(%edx,%eax,1),%esi
     1be:	00 06                	add    %al,(%esi)
     1c0:	37                   	aaa    
     1c1:	2c 00                	sub    $0x0,%al
     1c3:	00 00                	add    %al,(%eax)
     1c5:	00 0b                	add    %cl,(%ebx)
     1c7:	5b                   	pop    %ebx
     1c8:	01 00                	add    %eax,(%eax)
     1ca:	00 06                	add    %al,(%esi)
     1cc:	38 2c 00             	cmp    %ch,(%eax,%eax,1)
     1cf:	00 00                	add    %al,(%eax)
     1d1:	04 0b                	add    $0xb,%al
     1d3:	2d 01 00 00 06       	sub    $0x6000001,%eax
     1d8:	39 2c 00             	cmp    %ebp,(%eax,%eax,1)
     1db:	00 00                	add    %al,(%eax)
     1dd:	08 0b                	or     %cl,(%ebx)
     1df:	30 03                	xor    %al,(%ebx)
     1e1:	00 00                	add    %al,(%eax)
     1e3:	06                   	push   %es
     1e4:	3a 2c 00             	cmp    (%eax,%eax,1),%ch
     1e7:	00 00                	add    %al,(%eax)
     1e9:	0c 0b                	or     $0xb,%al
     1eb:	f3 04 00             	repz add $0x0,%al
     1ee:	00 06                	add    %al,(%esi)
     1f0:	3b 2c 00             	cmp    (%eax,%eax,1),%ebp
     1f3:	00 00                	add    %al,(%eax)
     1f5:	10 0b                	adc    %cl,(%ebx)
     1f7:	11 06                	adc    %eax,(%esi)
     1f9:	00 00                	add    %al,(%eax)
     1fb:	06                   	push   %es
     1fc:	3c 2c                	cmp    $0x2c,%al
     1fe:	00 00                	add    %al,(%eax)
     200:	00 14 0b             	add    %dl,(%ebx,%ecx,1)
     203:	1b 01                	sbb    (%ecx),%eax
     205:	00 00                	add    %al,(%eax)
     207:	06                   	push   %es
     208:	3d 2c 00 00 00       	cmp    $0x2c,%eax
     20d:	18 0b                	sbb    %cl,(%ebx)
     20f:	7d 02                	jge    213 <.debug_info+0x213>
     211:	00 00                	add    %al,(%eax)
     213:	06                   	push   %es
     214:	3e 2c 00             	ds sub $0x0,%al
     217:	00 00                	add    %al,(%eax)
     219:	1c 0b                	sbb    $0xb,%al
     21b:	c5 04 00             	lds    (%eax,%eax,1),%eax
     21e:	00 06                	add    %al,(%esi)
     220:	3f                   	aas    
     221:	2c 00                	sub    $0x0,%al
     223:	00 00                	add    %al,(%eax)
     225:	20 00                	and    %al,(%eax)
     227:	10 15 00 00 00 08    	adc    %dl,0x8000000
     22d:	01 06                	add    %eax,(%esi)
     22f:	48                   	dec    %eax
     230:	67 02 00             	add    (%bx,%si),%al
     233:	00 0b                	add    %cl,(%ebx)
     235:	b8 04 00 00 06       	mov    $0x6000004,%eax
     23a:	49                   	dec    %ecx
     23b:	67 02 00             	add    (%bx,%si),%al
     23e:	00 00                	add    %al,(%eax)
     240:	0b f8                	or     %eax,%edi
     242:	06                   	push   %es
     243:	00 00                	add    %al,(%eax)
     245:	06                   	push   %es
     246:	4a                   	dec    %edx
     247:	67 02 00             	add    (%bx,%si),%al
     24a:	00 80 11 25 08 00    	add    %al,0x82511(%eax)
     250:	00 06                	add    %al,(%esi)
     252:	4c                   	dec    %esp
     253:	33 01                	xor    (%ecx),%eax
     255:	00 00                	add    %al,(%eax)
     257:	00 01                	add    %al,(%ecx)
     259:	11 7a 08             	adc    %edi,0x8(%edx)
     25c:	00 00                	add    %al,(%eax)
     25e:	06                   	push   %es
     25f:	4f                   	dec    %edi
     260:	33 01                	xor    (%ecx),%eax
     262:	00 00                	add    %al,(%eax)
     264:	04 01                	add    $0x1,%al
     266:	00 08                	add    %cl,(%eax)
     268:	31 01                	xor    %eax,(%ecx)
     26a:	00 00                	add    %al,(%eax)
     26c:	77 02                	ja     270 <.debug_info+0x270>
     26e:	00 00                	add    %al,(%eax)
     270:	09 f3                	or     %esi,%ebx
     272:	00 00                	add    %al,(%eax)
     274:	00 1f                	add    %bl,(%edi)
     276:	00 10                	add    %dl,(%eax)
     278:	5b                   	pop    %ebx
     279:	05 00 00 90 01       	add    $0x1900000,%eax
     27e:	06                   	push   %es
     27f:	5b                   	pop    %ebx
     280:	b5 02                	mov    $0x2,%ch
     282:	00 00                	add    %al,(%eax)
     284:	0b 9a 02 00 00 06    	or     0x6000002(%edx),%ebx
     28a:	5c                   	pop    %esp
     28b:	b5 02                	mov    $0x2,%ch
     28d:	00 00                	add    %al,(%eax)
     28f:	00 0b                	add    %cl,(%ebx)
     291:	8c 02                	mov    %es,(%edx)
     293:	00 00                	add    %al,(%eax)
     295:	06                   	push   %es
     296:	5d                   	pop    %ebp
     297:	2c 00                	sub    $0x0,%al
     299:	00 00                	add    %al,(%eax)
     29b:	04 0b                	add    $0xb,%al
     29d:	f7 00 00 00 06 5f    	testl  $0x5f060000,(%eax)
     2a3:	bb 02 00 00 08       	mov    $0x8000002,%ebx
     2a8:	0b 15 00 00 00 06    	or     0x6000000,%edx
     2ae:	60                   	pusha  
     2af:	27                   	daa    
     2b0:	02 00                	add    (%eax),%al
     2b2:	00 88 00 0f 04 77    	add    %cl,0x77040f00(%eax)
     2b8:	02 00                	add    (%eax),%al
     2ba:	00 08                	add    %cl,(%eax)
     2bc:	cb                   	lret   
     2bd:	02 00                	add    (%eax),%al
     2bf:	00 cb                	add    %cl,%bl
     2c1:	02 00                	add    (%eax),%al
     2c3:	00 09                	add    %cl,(%ecx)
     2c5:	f3 00 00             	repz add %al,(%eax)
     2c8:	00 1f                	add    %bl,(%edi)
     2ca:	00 0f                	add    %cl,(%edi)
     2cc:	04 d1                	add    $0xd1,%al
     2ce:	02 00                	add    (%eax),%al
     2d0:	00 12                	add    %dl,(%edx)
     2d2:	0d 5e 07 00 00       	or     $0x75e,%eax
     2d7:	08 06                	or     %al,(%esi)
     2d9:	73 f7                	jae    2d2 <.debug_info+0x2d2>
     2db:	02 00                	add    (%eax),%al
     2dd:	00 0b                	add    %cl,(%ebx)
     2df:	d2 03                	rolb   %cl,(%ebx)
     2e1:	00 00                	add    %al,(%eax)
     2e3:	06                   	push   %es
     2e4:	74 f7                	je     2dd <.debug_info+0x2dd>
     2e6:	02 00                	add    (%eax),%al
     2e8:	00 00                	add    %al,(%eax)
     2ea:	0b 2e                	or     (%esi),%ebp
     2ec:	08 00                	or     %al,(%eax)
     2ee:	00 06                	add    %al,(%esi)
     2f0:	75 2c                	jne    31e <.debug_info+0x31e>
     2f2:	00 00                	add    %al,(%eax)
     2f4:	00 04 00             	add    %al,(%eax,%eax,1)
     2f7:	0f 04                	(bad)  
     2f9:	53                   	push   %ebx
     2fa:	00 00                	add    %al,(%eax)
     2fc:	00 0d cd 01 00 00    	add    %cl,0x1cd
     302:	68 06 b3 27 04       	push   $0x427b306
     307:	00 00                	add    %al,(%eax)
     309:	0e                   	push   %cs
     30a:	5f                   	pop    %edi
     30b:	70 00                	jo     30d <.debug_info+0x30d>
     30d:	06                   	push   %es
     30e:	b4 f7                	mov    $0xf7,%ah
     310:	02 00                	add    (%eax),%al
     312:	00 00                	add    %al,(%eax)
     314:	0e                   	push   %cs
     315:	5f                   	pop    %edi
     316:	72 00                	jb     318 <.debug_info+0x318>
     318:	06                   	push   %es
     319:	b5 2c                	mov    $0x2c,%ch
     31b:	00 00                	add    %al,(%eax)
     31d:	00 04 0e             	add    %al,(%esi,%ecx,1)
     320:	5f                   	pop    %edi
     321:	77 00                	ja     323 <.debug_info+0x323>
     323:	06                   	push   %es
     324:	b6 2c                	mov    $0x2c,%dh
     326:	00 00                	add    %al,(%eax)
     328:	00 08                	add    %cl,(%eax)
     32a:	0b 77 00             	or     0x0(%edi),%esi
     32d:	00 00                	add    %al,(%eax)
     32f:	06                   	push   %es
     330:	b7 5a                	mov    $0x5a,%bh
     332:	00 00                	add    %al,(%eax)
     334:	00 0c 0b             	add    %cl,(%ebx,%ecx,1)
     337:	1c 04                	sbb    $0x4,%al
     339:	00 00                	add    %al,(%eax)
     33b:	06                   	push   %es
     33c:	b8 5a 00 00 00       	mov    $0x5a,%eax
     341:	0e                   	push   %cs
     342:	0e                   	push   %cs
     343:	5f                   	pop    %edi
     344:	62 66 00             	bound  %esp,0x0(%esi)
     347:	06                   	push   %es
     348:	b9 d2 02 00 00       	mov    $0x2d2,%ecx
     34d:	10 0b                	adc    %cl,(%ebx)
     34f:	6e                   	outsb  %ds:(%esi),(%dx)
     350:	00 00                	add    %al,(%eax)
     352:	00 06                	add    %al,(%esi)
     354:	ba 2c 00 00 00       	mov    $0x2c,%edx
     359:	18 0b                	sbb    %cl,(%ebx)
     35b:	fc                   	cld    
     35c:	00 00                	add    %al,(%eax)
     35e:	00 06                	add    %al,(%esi)
     360:	c1                   	(bad)  
     361:	31 01                	xor    %eax,(%ecx)
     363:	00 00                	add    %al,(%eax)
     365:	1c 0b                	sbb    $0xb,%al
     367:	ba 00 00 00 06       	mov    $0x6000000,%edx
     36c:	c3                   	ret    
     36d:	8a 05 00 00 20 0b    	mov    0xb200000,%al
     373:	48                   	dec    %eax
     374:	05 00 00 06 c5       	add    $0xc5060000,%eax
     379:	b9 05 00 00 24       	mov    $0x24000005,%ecx
     37e:	0b b0 08 00 00 06    	or     0x6000008(%eax),%esi
     384:	c8 dd 05 00          	enter  $0x5dd,$0x0
     388:	00 28                	add    %ch,(%eax)
     38a:	0b 83 03 00 00 06    	or     0x6000003(%ebx),%eax
     390:	c9                   	leave  
     391:	f7 05 00 00 2c 0e 5f 	testl  $0x62755f,0xe2c0000
     398:	75 62 00 
     39b:	06                   	push   %es
     39c:	cc                   	int3   
     39d:	d2 02                	rolb   %cl,(%edx)
     39f:	00 00                	add    %al,(%eax)
     3a1:	30 0e                	xor    %cl,(%esi)
     3a3:	5f                   	pop    %edi
     3a4:	75 70                	jne    416 <.debug_info+0x416>
     3a6:	00 06                	add    %al,(%esi)
     3a8:	cd f7                	int    $0xf7
     3aa:	02 00                	add    (%eax),%al
     3ac:	00 38                	add    %bh,(%eax)
     3ae:	0e                   	push   %cs
     3af:	5f                   	pop    %edi
     3b0:	75 72                	jne    424 <.debug_info+0x424>
     3b2:	00 06                	add    %al,(%esi)
     3b4:	ce                   	into   
     3b5:	2c 00                	sub    $0x0,%al
     3b7:	00 00                	add    %al,(%eax)
     3b9:	3c 0b                	cmp    $0xb,%al
     3bb:	d5 08                	aad    $0x8
     3bd:	00 00                	add    %al,(%eax)
     3bf:	06                   	push   %es
     3c0:	d1 fd                	sar    %ebp
     3c2:	05 00 00 40 0b       	add    $0xb400000,%eax
     3c7:	54                   	push   %esp
     3c8:	08 00                	or     %al,(%eax)
     3ca:	00 06                	add    %al,(%esi)
     3cc:	d2 0d 06 00 00 43    	rorb   %cl,0x43000006
     3d2:	0e                   	push   %cs
     3d3:	5f                   	pop    %edi
     3d4:	6c                   	insb   (%dx),%es:(%edi)
     3d5:	62 00                	bound  %eax,(%eax)
     3d7:	06                   	push   %es
     3d8:	d5 d2                	aad    $0xd2
     3da:	02 00                	add    (%eax),%al
     3dc:	00 44 0b 95          	add    %al,-0x6b(%ebx,%ecx,1)
     3e0:	06                   	push   %es
     3e1:	00 00                	add    %al,(%eax)
     3e3:	06                   	push   %es
     3e4:	d8 2c 00             	fsubrs (%eax,%eax,1)
     3e7:	00 00                	add    %al,(%eax)
     3e9:	4c                   	dec    %esp
     3ea:	0b 0e                	or     (%esi),%ecx
     3ec:	02 00                	add    (%eax),%al
     3ee:	00 06                	add    %al,(%esi)
     3f0:	d9 97 00 00 00 50    	fsts   0x50000000(%edi)
     3f6:	0b ea                	or     %edx,%ebp
     3f8:	05 00 00 06 dc       	add    $0xdc060000,%eax
     3fd:	45                   	inc    %ebp
     3fe:	04 00                	add    $0x0,%al
     400:	00 54 0b b3          	add    %dl,-0x4d(%ebx,%ecx,1)
     404:	06                   	push   %es
     405:	00 00                	add    %al,(%eax)
     407:	06                   	push   %es
     408:	e0 26                	loopne 430 <.debug_info+0x430>
     40a:	01 00                	add    %eax,(%eax)
     40c:	00 58 0b             	add    %bl,0xb(%eax)
     40f:	63 05 00 00 06 e2    	arpl   %ax,0xe2060000
     415:	1b 01                	sbb    (%ecx),%eax
     417:	00 00                	add    %al,(%eax)
     419:	5c                   	pop    %esp
     41a:	0b 72 08             	or     0x8(%edx),%esi
     41d:	00 00                	add    %al,(%eax)
     41f:	06                   	push   %es
     420:	e3 2c                	jecxz  44e <.debug_info+0x44e>
     422:	00 00                	add    %al,(%eax)
     424:	00 64 00 13          	add    %ah,0x13(%eax,%eax,1)
     428:	ad                   	lods   %ds:(%esi),%eax
     429:	00 00                	add    %al,(%eax)
     42b:	00 45 04             	add    %al,0x4(%ebp)
     42e:	00 00                	add    %al,(%eax)
     430:	14 45                	adc    $0x45,%al
     432:	04 00                	add    $0x0,%al
     434:	00 14 31             	add    %dl,(%ecx,%esi,1)
     437:	01 00                	add    %eax,(%eax)
     439:	00 14 7d 05 00 00 14 	add    %dl,0x14000005(,%edi,2)
     440:	2c 00                	sub    $0x0,%al
     442:	00 00                	add    %al,(%eax)
     444:	00 0f                	add    %cl,(%edi)
     446:	04 4b                	add    $0x4b,%al
     448:	04 00                	add    $0x0,%al
     44a:	00 15 fd 07 00 00    	add    %dl,0x7fd
     450:	24 04                	and    $0x4,%al
     452:	06                   	push   %es
     453:	39 02                	cmp    %eax,(%edx)
     455:	7d 05                	jge    45c <.debug_info+0x45c>
     457:	00 00                	add    %al,(%eax)
     459:	16                   	push   %ss
     45a:	7e 00                	jle    45c <.debug_info+0x45c>
     45c:	00 00                	add    %al,(%eax)
     45e:	06                   	push   %es
     45f:	3b 02                	cmp    (%edx),%eax
     461:	2c 00                	sub    $0x0,%al
     463:	00 00                	add    %al,(%eax)
     465:	00 16                	add    %dl,(%esi)
     467:	ae                   	scas   %es:(%edi),%al
     468:	03 00                	add    (%eax),%eax
     46a:	00 06                	add    %al,(%esi)
     46c:	40                   	inc    %eax
     46d:	02 64 06 00          	add    0x0(%esi,%eax,1),%ah
     471:	00 04 16             	add    %al,(%esi,%edx,1)
     474:	d3 00                	roll   %cl,(%eax)
     476:	00 00                	add    %al,(%eax)
     478:	06                   	push   %es
     479:	40                   	inc    %eax
     47a:	02 64 06 00          	add    0x0(%esi,%eax,1),%ah
     47e:	00 08                	add    %cl,(%eax)
     480:	16                   	push   %ss
     481:	c4 08                	les    (%eax),%ecx
     483:	00 00                	add    %al,(%eax)
     485:	06                   	push   %es
     486:	40                   	inc    %eax
     487:	02 64 06 00          	add    0x0(%esi,%eax,1),%ah
     48b:	00 0c 16             	add    %cl,(%esi,%edx,1)
     48e:	87 02                	xchg   %eax,(%edx)
     490:	00 00                	add    %al,(%eax)
     492:	06                   	push   %es
     493:	42                   	inc    %edx
     494:	02 2c 00             	add    (%eax,%eax,1),%ch
     497:	00 00                	add    %al,(%eax)
     499:	10 16                	adc    %dl,(%esi)
     49b:	25 02 00 00 06       	and    $0x6000002,%eax
     4a0:	43                   	inc    %ebx
     4a1:	02 46 08             	add    0x8(%esi),%al
     4a4:	00 00                	add    %al,(%eax)
     4a6:	14 16                	adc    $0x16,%al
     4a8:	83 06 00             	addl   $0x0,(%esi)
     4ab:	00 06                	add    %al,(%esi)
     4ad:	45                   	inc    %ebp
     4ae:	02 2c 00             	add    (%eax,%eax,1),%ch
     4b1:	00 00                	add    %al,(%eax)
     4b3:	30 16                	xor    %dl,(%esi)
     4b5:	da 05 00 00 06 46    	fiaddl 0x46060000
     4bb:	02 ae 05 00 00 34    	add    0x34000005(%esi),%ch
     4c1:	16                   	push   %ss
     4c2:	8a 03                	mov    (%ebx),%al
     4c4:	00 00                	add    %al,(%eax)
     4c6:	06                   	push   %es
     4c7:	48                   	dec    %eax
     4c8:	02 2c 00             	add    (%eax,%eax,1),%ch
     4cb:	00 00                	add    %al,(%eax)
     4cd:	38 16                	cmp    %dl,(%esi)
     4cf:	a3 04 00 00 06       	mov    %eax,0x6000004
     4d4:	4a                   	dec    %edx
     4d5:	02 61 08             	add    0x8(%ecx),%ah
     4d8:	00 00                	add    %al,(%eax)
     4da:	3c 16                	cmp    $0x16,%al
     4dc:	25 01 00 00 06       	and    $0x6000001,%eax
     4e1:	4d                   	dec    %ebp
     4e2:	02 98 01 00 00 40    	add    0x40000001(%eax),%bl
     4e8:	16                   	push   %ss
     4e9:	95                   	xchg   %eax,%ebp
     4ea:	01 00                	add    %eax,(%eax)
     4ec:	00 06                	add    %al,(%esi)
     4ee:	4e                   	dec    %esi
     4ef:	02 2c 00             	add    (%eax,%eax,1),%ch
     4f2:	00 00                	add    %al,(%eax)
     4f4:	44                   	inc    %esp
     4f5:	16                   	push   %ss
     4f6:	e9 02 00 00 06       	jmp    60004fd <blanks.3938+0x6000389>
     4fb:	4f                   	dec    %edi
     4fc:	02 98 01 00 00 48    	add    0x48000001(%eax),%bl
     502:	16                   	push   %ss
     503:	e0 03                	loopne 508 <.debug_info+0x508>
     505:	00 00                	add    %al,(%eax)
     507:	06                   	push   %es
     508:	50                   	push   %eax
     509:	02 67 08             	add    0x8(%edi),%ah
     50c:	00 00                	add    %al,(%eax)
     50e:	4c                   	dec    %esp
     50f:	16                   	push   %ss
     510:	69 06 00 00 06 53    	imul   $0x53060000,(%esi),%eax
     516:	02 2c 00             	add    (%eax,%eax,1),%ch
     519:	00 00                	add    %al,(%eax)
     51b:	50                   	push   %eax
     51c:	16                   	push   %ss
     51d:	16                   	push   %ss
     51e:	07                   	pop    %es
     51f:	00 00                	add    %al,(%eax)
     521:	06                   	push   %es
     522:	54                   	push   %esp
     523:	02 7d 05             	add    0x5(%ebp),%bh
     526:	00 00                	add    %al,(%eax)
     528:	54                   	push   %esp
     529:	16                   	push   %ss
     52a:	4a                   	dec    %edx
     52b:	06                   	push   %es
     52c:	00 00                	add    %al,(%eax)
     52e:	06                   	push   %es
     52f:	77 02                	ja     533 <.debug_info+0x533>
     531:	24 08                	and    $0x8,%al
     533:	00 00                	add    %al,(%eax)
     535:	58                   	pop    %eax
     536:	17                   	pop    %ss
     537:	5b                   	pop    %ebx
     538:	05 00 00 06 7b       	add    $0x7b060000,%eax
     53d:	02 b5 02 00 00 48    	add    0x48000002(%ebp),%dh
     543:	01 17                	add    %edx,(%edi)
     545:	53                   	push   %ebx
     546:	03 00                	add    (%eax),%eax
     548:	00 06                	add    %al,(%esi)
     54a:	7c 02                	jl     54e <.debug_info+0x54e>
     54c:	77 02                	ja     550 <.debug_info+0x550>
     54e:	00 00                	add    %al,(%eax)
     550:	4c                   	dec    %esp
     551:	01 17                	add    %edx,(%edi)
     553:	3a 03                	cmp    (%ebx),%al
     555:	00 00                	add    %al,(%eax)
     557:	06                   	push   %es
     558:	80 02 78             	addb   $0x78,(%edx)
     55b:	08 00                	or     %al,(%eax)
     55d:	00 dc                	add    %bl,%ah
     55f:	02 17                	add    (%edi),%dl
     561:	b5 07                	mov    $0x7,%ch
     563:	00 00                	add    %al,(%eax)
     565:	06                   	push   %es
     566:	85 02                	test   %eax,(%edx)
     568:	29 06                	sub    %eax,(%esi)
     56a:	00 00                	add    %al,(%eax)
     56c:	e0 02                	loopne 570 <.debug_info+0x570>
     56e:	17                   	pop    %ss
     56f:	cf                   	iret   
     570:	05 00 00 06 86       	add    $0x86060000,%eax
     575:	02 84 08 00 00 ec 02 	add    0x2ec0000(%eax,%ecx,1),%al
     57c:	00 0f                	add    %cl,(%edi)
     57e:	04 83                	add    $0x83,%al
     580:	05 00 00 02 01       	add    $0x1020000,%eax
     585:	06                   	push   %es
     586:	2b 03                	sub    (%ebx),%eax
     588:	00 00                	add    %al,(%eax)
     58a:	0f 04                	(bad)  
     58c:	27                   	daa    
     58d:	04 00                	add    $0x0,%al
     58f:	00 13                	add    %dl,(%ebx)
     591:	ad                   	lods   %ds:(%esi),%eax
     592:	00 00                	add    %al,(%eax)
     594:	00 ae 05 00 00 14    	add    %ch,0x14000005(%esi)
     59a:	45                   	inc    %ebp
     59b:	04 00                	add    $0x0,%al
     59d:	00 14 31             	add    %dl,(%ecx,%esi,1)
     5a0:	01 00                	add    %eax,(%eax)
     5a2:	00 14 ae             	add    %dl,(%esi,%ebp,4)
     5a5:	05 00 00 14 2c       	add    $0x2c140000,%eax
     5aa:	00 00                	add    %al,(%eax)
     5ac:	00 00                	add    %al,(%eax)
     5ae:	0f 04                	(bad)  
     5b0:	b4 05                	mov    $0x5,%ah
     5b2:	00 00                	add    %al,(%eax)
     5b4:	18 83 05 00 00 0f    	sbb    %al,0xf000005(%ebx)
     5ba:	04 90                	add    $0x90,%al
     5bc:	05 00 00 13 a2       	add    $0xa2130000,%eax
     5c1:	00 00                	add    %al,(%eax)
     5c3:	00 dd                	add    %bl,%ch
     5c5:	05 00 00 14 45       	add    $0x45140000,%eax
     5ca:	04 00                	add    $0x0,%al
     5cc:	00 14 31             	add    %dl,(%ecx,%esi,1)
     5cf:	01 00                	add    %eax,(%eax)
     5d1:	00 14 a2             	add    %dl,(%edx,%eiz,4)
     5d4:	00 00                	add    %al,(%eax)
     5d6:	00 14 2c             	add    %dl,(%esp,%ebp,1)
     5d9:	00 00                	add    %al,(%eax)
     5db:	00 00                	add    %al,(%eax)
     5dd:	0f 04                	(bad)  
     5df:	bf 05 00 00 13       	mov    $0x13000005,%edi
     5e4:	2c 00                	sub    $0x0,%al
     5e6:	00 00                	add    %al,(%eax)
     5e8:	f7 05 00 00 14 45 04 	testl  $0x14000004,0x45140000
     5ef:	00 00 14 
     5f2:	31 01                	xor    %eax,(%ecx)
     5f4:	00 00                	add    %al,(%eax)
     5f6:	00 0f                	add    %cl,(%edi)
     5f8:	04 e3                	add    $0xe3,%al
     5fa:	05 00 00 08 53       	add    $0x53080000,%eax
     5ff:	00 00                	add    %al,(%eax)
     601:	00 0d 06 00 00 09    	add    %cl,0x9000006
     607:	f3 00 00             	repz add %al,(%eax)
     60a:	00 02                	add    %al,(%edx)
     60c:	00 08                	add    %cl,(%eax)
     60e:	53                   	push   %ebx
     60f:	00 00                	add    %al,(%eax)
     611:	00 1d 06 00 00 09    	add    %bl,0x9000006
     617:	f3 00 00             	repz add %al,(%eax)
     61a:	00 00                	add    %al,(%eax)
     61c:	00 05 00 02 00 00    	add    %al,0x200
     622:	06                   	push   %es
     623:	1d 01 fd 02 00       	sbb    $0x2fd01,%eax
     628:	00 19                	add    %bl,(%ecx)
     62a:	a8 07                	test   $0x7,%al
     62c:	00 00                	add    %al,(%eax)
     62e:	0c 06                	or     $0x6,%al
     630:	21 01                	and    %eax,(%ecx)
     632:	5e                   	pop    %esi
     633:	06                   	push   %es
     634:	00 00                	add    %al,(%eax)
     636:	16                   	push   %ss
     637:	9a 02 00 00 06 23 01 	lcall  $0x123,$0x6000002
     63e:	5e                   	pop    %esi
     63f:	06                   	push   %es
     640:	00 00                	add    %al,(%eax)
     642:	00 16                	add    %dl,(%esi)
     644:	dc 06                	faddl  (%esi)
     646:	00 00                	add    %al,(%eax)
     648:	06                   	push   %es
     649:	24 01                	and    $0x1,%al
     64b:	2c 00                	sub    $0x0,%al
     64d:	00 00                	add    %al,(%eax)
     64f:	04 16                	add    $0x16,%al
     651:	74 03                	je     656 <.debug_info+0x656>
     653:	00 00                	add    %al,(%eax)
     655:	06                   	push   %es
     656:	25 01 64 06 00       	and    $0x66401,%eax
     65b:	00 08                	add    %cl,(%eax)
     65d:	00 0f                	add    %cl,(%edi)
     65f:	04 29                	add    $0x29,%al
     661:	06                   	push   %es
     662:	00 00                	add    %al,(%eax)
     664:	0f 04                	(bad)  
     666:	1d 06 00 00 19       	sbb    $0x19000006,%eax
     66b:	8d 01                	lea    (%ecx),%eax
     66d:	00 00                	add    %al,(%eax)
     66f:	0e                   	push   %cs
     670:	06                   	push   %es
     671:	3d 01 9f 06 00       	cmp    $0x69f01,%eax
     676:	00 16                	add    %dl,(%esi)
     678:	82                   	(bad)  
     679:	08 00                	or     %al,(%eax)
     67b:	00 06                	add    %al,(%esi)
     67d:	3e 01 9f 06 00 00 00 	add    %ebx,%ds:0x6(%edi)
     684:	16                   	push   %ss
     685:	ea 03 00 00 06 3f 01 	ljmp   $0x13f,$0x6000003
     68c:	9f                   	lahf   
     68d:	06                   	push   %es
     68e:	00 00                	add    %al,(%eax)
     690:	06                   	push   %es
     691:	16                   	push   %ss
     692:	59                   	pop    %ecx
     693:	07                   	pop    %es
     694:	00 00                	add    %al,(%eax)
     696:	06                   	push   %es
     697:	40                   	inc    %eax
     698:	01 61 00             	add    %esp,0x0(%ecx)
     69b:	00 00                	add    %al,(%eax)
     69d:	0c 00                	or     $0x0,%al
     69f:	08 61 00             	or     %ah,0x0(%ecx)
     6a2:	00 00                	add    %al,(%eax)
     6a4:	af                   	scas   %es:(%edi),%eax
     6a5:	06                   	push   %es
     6a6:	00 00                	add    %al,(%eax)
     6a8:	09 f3                	or     %esi,%ebx
     6aa:	00 00                	add    %al,(%eax)
     6ac:	00 02                	add    %al,(%edx)
     6ae:	00 1a                	add    %bl,(%edx)
     6b0:	cc                   	int3   
     6b1:	06                   	push   %es
     6b2:	58                   	pop    %eax
     6b3:	02 b0 07 00 00 16    	add    0x16000007(%eax),%dh
     6b9:	5a                   	pop    %edx
     6ba:	08 00                	or     %al,(%eax)
     6bc:	00 06                	add    %al,(%esi)
     6be:	5a                   	pop    %edx
     6bf:	02 3e                	add    (%esi),%bh
     6c1:	00 00                	add    %al,(%eax)
     6c3:	00 00                	add    %al,(%eax)
     6c5:	16                   	push   %ss
     6c6:	bd 07 00 00 06       	mov    $0x6000007,%ebp
     6cb:	5b                   	pop    %ebx
     6cc:	02 7d 05             	add    0x5(%ebp),%bh
     6cf:	00 00                	add    %al,(%eax)
     6d1:	04 16                	add    $0x16,%al
     6d3:	b6 01                	mov    $0x1,%dh
     6d5:	00 00                	add    %al,(%eax)
     6d7:	06                   	push   %es
     6d8:	5c                   	pop    %esp
     6d9:	02 b0 07 00 00 08    	add    0x8000007(%eax),%dh
     6df:	16                   	push   %ss
     6e0:	2c 06                	sub    $0x6,%al
     6e2:	00 00                	add    %al,(%eax)
     6e4:	06                   	push   %es
     6e5:	5d                   	pop    %ebp
     6e6:	02 ae 01 00 00 24    	add    0x24000001(%esi),%ch
     6ec:	16                   	push   %ss
     6ed:	b5 03                	mov    $0x3,%ch
     6ef:	00 00                	add    %al,(%eax)
     6f1:	06                   	push   %es
     6f2:	5e                   	pop    %esi
     6f3:	02 2c 00             	add    (%eax,%eax,1),%ch
     6f6:	00 00                	add    %al,(%eax)
     6f8:	48                   	dec    %eax
     6f9:	16                   	push   %ss
     6fa:	88 08                	mov    %cl,(%eax)
     6fc:	00 00                	add    %al,(%eax)
     6fe:	06                   	push   %es
     6ff:	5f                   	pop    %edi
     700:	02 7a 00             	add    0x0(%edx),%bh
     703:	00 00                	add    %al,(%eax)
     705:	4c                   	dec    %esp
     706:	16                   	push   %ss
     707:	50                   	push   %eax
     708:	00 00                	add    %al,(%eax)
     70a:	00 06                	add    %al,(%esi)
     70c:	60                   	pusha  
     70d:	02 6a 06             	add    0x6(%edx),%ch
     710:	00 00                	add    %al,(%eax)
     712:	54                   	push   %esp
     713:	16                   	push   %ss
     714:	1e                   	push   %ds
     715:	03 00                	add    (%eax),%eax
     717:	00 06                	add    %al,(%esi)
     719:	61                   	popa   
     71a:	02 1b                	add    (%ebx),%bl
     71c:	01 00                	add    %eax,(%eax)
     71e:	00 64 16 ca          	add    %ah,-0x36(%esi,%edx,1)
     722:	07                   	pop    %es
     723:	00 00                	add    %al,(%eax)
     725:	06                   	push   %es
     726:	62 02                	bound  %eax,(%edx)
     728:	1b 01                	sbb    (%ecx),%eax
     72a:	00 00                	add    %al,(%eax)
     72c:	6c                   	insb   (%dx),%es:(%edi)
     72d:	16                   	push   %ss
     72e:	3c 00                	cmp    $0x0,%al
     730:	00 00                	add    %al,(%eax)
     732:	06                   	push   %es
     733:	63 02                	arpl   %ax,(%edx)
     735:	1b 01                	sbb    (%ecx),%eax
     737:	00 00                	add    %al,(%eax)
     739:	74 16                	je     751 <.debug_info+0x751>
     73b:	79 06                	jns    743 <.debug_info+0x743>
     73d:	00 00                	add    %al,(%eax)
     73f:	06                   	push   %es
     740:	64 02 c0             	fs add %al,%al
     743:	07                   	pop    %es
     744:	00 00                	add    %al,(%eax)
     746:	7c 16                	jl     75e <.debug_info+0x75e>
     748:	55                   	push   %ebp
     749:	00 00                	add    %al,(%eax)
     74b:	00 06                	add    %al,(%esi)
     74d:	65 02 d0             	gs add %al,%dl
     750:	07                   	pop    %es
     751:	00 00                	add    %al,(%eax)
     753:	84 16                	test   %dl,(%esi)
     755:	3e 07                	ds pop %es
     757:	00 00                	add    %al,(%eax)
     759:	06                   	push   %es
     75a:	66 02 2c 00          	data16 add (%eax,%eax,1),%ch
     75e:	00 00                	add    %al,(%eax)
     760:	9c                   	pushf  
     761:	16                   	push   %ss
     762:	c5 00                	lds    (%eax),%eax
     764:	00 00                	add    %al,(%eax)
     766:	06                   	push   %es
     767:	67 02 1b             	add    (%bp,%di),%bl
     76a:	01 00                	add    %eax,(%eax)
     76c:	00 a0 16 44 03 00    	add    %ah,0x34416(%eax)
     772:	00 06                	add    %al,(%esi)
     774:	68 02 1b 01 00       	push   $0x11b02
     779:	00 a8 16 b0 02 00    	add    %ch,0x2b016(%eax)
     77f:	00 06                	add    %al,(%esi)
     781:	69 02 1b 01 00 00    	imul   $0x11b,(%edx),%eax
     787:	b0 16                	mov    $0x16,%al
     789:	05 04 00 00 06       	add    $0x6000004,%eax
     78e:	6a 02                	push   $0x2
     790:	1b 01                	sbb    (%ecx),%eax
     792:	00 00                	add    %al,(%eax)
     794:	b8 16 0d 03 00       	mov    $0x30d16,%eax
     799:	00 06                	add    %al,(%esi)
     79b:	6b 02 1b             	imul   $0x1b,(%edx),%eax
     79e:	01 00                	add    %eax,(%eax)
     7a0:	00 c0                	add    %al,%al
     7a2:	16                   	push   %ss
     7a3:	d8 04 00             	fadds  (%eax,%eax,1)
     7a6:	00 06                	add    %al,(%esi)
     7a8:	6c                   	insb   (%dx),%es:(%edi)
     7a9:	02 2c 00             	add    (%eax,%eax,1),%ch
     7ac:	00 00                	add    %al,(%eax)
     7ae:	c8 00 08 83          	enter  $0x800,$0x83
     7b2:	05 00 00 c0 07       	add    $0x7c00000,%eax
     7b7:	00 00                	add    %al,(%eax)
     7b9:	09 f3                	or     %esi,%ebx
     7bb:	00 00                	add    %al,(%eax)
     7bd:	00 19                	add    %bl,(%ecx)
     7bf:	00 08                	add    %cl,(%eax)
     7c1:	83 05 00 00 d0 07 00 	addl   $0x0,0x7d00000
     7c8:	00 09                	add    %cl,(%ecx)
     7ca:	f3 00 00             	repz add %al,(%eax)
     7cd:	00 07                	add    %al,(%edi)
     7cf:	00 08                	add    %cl,(%eax)
     7d1:	83 05 00 00 e0 07 00 	addl   $0x0,0x7e00000
     7d8:	00 09                	add    %cl,(%ecx)
     7da:	f3 00 00             	repz add %al,(%eax)
     7dd:	00 17                	add    %dl,(%edi)
     7df:	00 1a                	add    %bl,(%edx)
     7e1:	f0 06                	lock push %es
     7e3:	71 02                	jno    7e7 <.debug_info+0x7e7>
     7e5:	04 08                	add    $0x8,%al
     7e7:	00 00                	add    %al,(%eax)
     7e9:	16                   	push   %ss
     7ea:	72 01                	jb     7ed <.debug_info+0x7ed>
     7ec:	00 00                	add    %al,(%eax)
     7ee:	06                   	push   %es
     7ef:	74 02                	je     7f3 <.debug_info+0x7f3>
     7f1:	04 08                	add    $0x8,%al
     7f3:	00 00                	add    %al,(%eax)
     7f5:	00 16                	add    %dl,(%esi)
     7f7:	cc                   	int3   
     7f8:	08 00                	or     %al,(%eax)
     7fa:	00 06                	add    %al,(%esi)
     7fc:	75 02                	jne    800 <.debug_info+0x800>
     7fe:	14 08                	adc    $0x8,%al
     800:	00 00                	add    %al,(%eax)
     802:	78 00                	js     804 <.debug_info+0x804>
     804:	08 f7                	or     %dh,%bh
     806:	02 00                	add    (%eax),%al
     808:	00 14 08             	add    %dl,(%eax,%ecx,1)
     80b:	00 00                	add    %al,(%eax)
     80d:	09 f3                	or     %esi,%ebx
     80f:	00 00                	add    %al,(%eax)
     811:	00 1d 00 08 3e 00    	add    %bl,0x3e0800
     817:	00 00                	add    %al,(%eax)
     819:	24 08                	and    $0x8,%al
     81b:	00 00                	add    %al,(%eax)
     81d:	09 f3                	or     %esi,%ebx
     81f:	00 00                	add    %al,(%eax)
     821:	00 1d 00 1b f0 06    	add    %bl,0x6f01b00
     827:	56                   	push   %esi
     828:	02 46 08             	add    0x8(%esi),%al
     82b:	00 00                	add    %al,(%eax)
     82d:	1c fd                	sbb    $0xfd,%al
     82f:	07                   	pop    %es
     830:	00 00                	add    %al,(%eax)
     832:	06                   	push   %es
     833:	6d                   	insl   (%dx),%es:(%edi)
     834:	02 af 06 00 00 1c    	add    0x1c000006(%edi),%ch
     83a:	3b 06                	cmp    (%esi),%eax
     83c:	00 00                	add    %al,(%eax)
     83e:	06                   	push   %es
     83f:	76 02                	jbe    843 <.debug_info+0x843>
     841:	e0 07                	loopne 84a <.debug_info+0x84a>
     843:	00 00                	add    %al,(%eax)
     845:	00 08                	add    %cl,(%eax)
     847:	83 05 00 00 56 08 00 	addl   $0x0,0x8560000
     84e:	00 09                	add    %cl,(%ecx)
     850:	f3 00 00             	repz add %al,(%eax)
     853:	00 18                	add    %bl,(%eax)
     855:	00 1d 61 08 00 00    	add    %bl,0x861
     85b:	14 45                	adc    $0x45,%al
     85d:	04 00                	add    $0x0,%al
     85f:	00 00                	add    %al,(%eax)
     861:	0f 04                	(bad)  
     863:	56                   	push   %esi
     864:	08 00                	or     %al,(%eax)
     866:	00 0f                	add    %cl,(%edi)
     868:	04 98                	add    $0x98,%al
     86a:	01 00                	add    %eax,(%eax)
     86c:	00 1d 78 08 00 00    	add    %bl,0x878
     872:	14 2c                	adc    $0x2c,%al
     874:	00 00                	add    %al,(%eax)
     876:	00 00                	add    %al,(%eax)
     878:	0f 04                	(bad)  
     87a:	7e 08                	jle    884 <.debug_info+0x884>
     87c:	00 00                	add    %al,(%eax)
     87e:	0f 04                	(bad)  
     880:	6d                   	insl   (%dx),%es:(%edi)
     881:	08 00                	or     %al,(%eax)
     883:	00 08                	add    %cl,(%eax)
     885:	1d 06 00 00 94       	sbb    $0x94000006,%eax
     88a:	08 00                	or     %al,(%eax)
     88c:	00 09                	add    %cl,(%ecx)
     88e:	f3 00 00             	repz add %al,(%eax)
     891:	00 02                	add    %al,(%edx)
     893:	00 04 3a             	add    %al,(%edx,%edi,1)
     896:	02 00                	add    (%eax),%al
     898:	00 07                	add    %al,(%edi)
     89a:	28 9f 08 00 00 1e    	sub    %bl,0x1e000008(%edi)
     8a0:	04 42                	add    $0x42,%al
     8a2:	08 00                	or     %al,(%eax)
     8a4:	00 83 05 00 00 04    	add    %al,0x4000005(%ebx)
     8aa:	b9 06 00 00 08       	mov    $0x8000006,%ecx
     8af:	61                   	popa   
     8b0:	61                   	popa   
     8b1:	00 00                	add    %al,(%eax)
     8b3:	00 04 37             	add    %al,(%edi,%esi,1)
     8b6:	07                   	pop    %es
     8b7:	00 00                	add    %al,(%eax)
     8b9:	08 69 3e             	or     %ch,0x3e(%ecx)
     8bc:	01 00                	add    %eax,(%eax)
     8be:	00 0f                	add    %cl,(%edi)
     8c0:	04 c5                	add    $0xc5,%al
     8c2:	08 00                	or     %al,(%eax)
     8c4:	00 1f                	add    %bl,(%edi)
     8c6:	04 9e                	add    $0x9e,%al
     8c8:	06                   	push   %es
     8c9:	00 00                	add    %al,(%eax)
     8cb:	09 bf 81 00 00 00    	or     %edi,0x81(%edi)
     8d1:	04 a6                	add    $0xa6,%al
     8d3:	03 00                	add    (%eax),%eax
     8d5:	00 07                	add    %al,(%edi)
     8d7:	62 94 08 00 00 0d f9 	bound  %edx,-0x6f30000(%eax,%ecx,1)
     8de:	01 00                	add    %eax,(%eax)
     8e0:	00 08                	add    %cl,(%eax)
     8e2:	0a 18                	or     (%eax),%bl
     8e4:	01 09                	add    %ecx,(%ecx)
     8e6:	00 00                	add    %al,(%eax)
     8e8:	0b 7a 03             	or     0x3(%edx),%edi
     8eb:	00 00                	add    %al,(%eax)
     8ed:	0a 19                	or     (%ecx),%bl
     8ef:	bf 08 00 00 00       	mov    $0x8,%edi
     8f4:	0b 14 04             	or     (%esp,%eax,1),%edx
     8f7:	00 00                	add    %al,(%eax)
     8f9:	0a 1a                	or     (%edx),%bl
     8fb:	33 00                	xor    (%eax),%eax
     8fd:	00 00                	add    %al,(%eax)
     8ff:	04 00                	add    $0x0,%al
     901:	0d 08 05 00 00       	or     $0x508,%eax
     906:	0c 0a                	or     $0xa,%al
     908:	1c 32                	sbb    $0x32,%al
     90a:	09 00                	or     %eax,(%eax)
     90c:	00 0b                	add    %cl,(%ebx)
     90e:	95                   	xchg   %eax,%ebp
     90f:	03 00                	add    (%eax),%eax
     911:	00 0a                	add    %cl,(%edx)
     913:	1d 32 09 00 00       	sbb    $0x932,%eax
     918:	00 0b                	add    %cl,(%ebx)
     91a:	67 08 00             	or     %al,(%bx,%si)
     91d:	00 0a                	add    %cl,(%edx)
     91f:	1e                   	push   %ds
     920:	2c 00                	sub    $0x0,%al
     922:	00 00                	add    %al,(%eax)
     924:	04 0b                	add    $0xb,%al
     926:	c3                   	ret    
     927:	01 00                	add    %eax,(%eax)
     929:	00 0a                	add    %cl,(%edx)
     92b:	1f                   	pop    %ds
     92c:	33 00                	xor    (%eax),%eax
     92e:	00 00                	add    %al,(%eax)
     930:	08 00                	or     %al,(%eax)
     932:	0f 04                	(bad)  
     934:	dc 08                	fmull  (%eax)
     936:	00 00                	add    %al,(%eax)
     938:	02 04 04             	add    (%esp,%eax,1),%al
     93b:	55                   	push   %ebp
     93c:	01 00                	add    %eax,(%eax)
     93e:	00 02                	add    %al,(%edx)
     940:	0c 04                	or     $0x4,%al
     942:	fc                   	cld    
     943:	04 00                	add    $0x0,%al
     945:	00 20                	add    %ah,(%eax)
     947:	72 05                	jb     94e <.debug_info+0x94e>
     949:	00 00                	add    %al,(%eax)
     94b:	08 0b                	or     %cl,(%ebx)
     94d:	90                   	nop
     94e:	65 09 00             	or     %eax,%gs:(%eax)
     951:	00 21                	add    %ah,(%ecx)
     953:	64 00 0b             	add    %cl,%fs:(%ebx)
     956:	92                   	xchg   %eax,%edx
     957:	25 00 00 00 21       	and    $0x21000000,%eax
     95c:	69 00 0b 93 65 09    	imul   $0x965930b,(%eax),%eax
     962:	00 00                	add    %al,(%eax)
     964:	00 08                	add    %cl,(%eax)
     966:	68 00 00 00 75       	push   $0x75000000
     96b:	09 00                	or     %eax,(%eax)
     96d:	00 09                	add    %cl,(%ecx)
     96f:	f3 00 00             	repz add %al,(%eax)
     972:	00 01                	add    %al,(%ecx)
     974:	00 0d e3 00 00 00    	add    %cl,0xe3
     97a:	38 0c 19             	cmp    %cl,(%ecx,%ebx,1)
     97d:	a2 0a 00 00 0b       	mov    %al,0xb00000a
     982:	e9 00 00 00 0c       	jmp    c000987 <blanks.3938+0xc000813>
     987:	1b 7d 05             	sbb    0x5(%ebp),%edi
     98a:	00 00                	add    %al,(%eax)
     98c:	00 0b                	add    %cl,(%ebx)
     98e:	4b                   	dec    %ebx
     98f:	07                   	pop    %es
     990:	00 00                	add    %al,(%eax)
     992:	0c 1c                	or     $0x1c,%al
     994:	7d 05                	jge    99b <.debug_info+0x99b>
     996:	00 00                	add    %al,(%eax)
     998:	04 0b                	add    $0xb,%al
     99a:	ff 02                	incl   (%edx)
     99c:	00 00                	add    %al,(%eax)
     99e:	0c 1d                	or     $0x1d,%al
     9a0:	7d 05                	jge    9a7 <.debug_info+0x9a7>
     9a2:	00 00                	add    %al,(%eax)
     9a4:	08 0b                	or     %cl,(%ebx)
     9a6:	97                   	xchg   %eax,%edi
     9a7:	05 00 00 0c 1e       	add    $0x1e0c0000,%eax
     9ac:	7d 05                	jge    9b3 <.debug_info+0x9b3>
     9ae:	00 00                	add    %al,(%eax)
     9b0:	0c 0b                	or     $0xb,%al
     9b2:	98                   	cwtl   
     9b3:	07                   	pop    %es
     9b4:	00 00                	add    %al,(%eax)
     9b6:	0c 1f                	or     $0x1f,%al
     9b8:	7d 05                	jge    9bf <.debug_info+0x9bf>
     9ba:	00 00                	add    %al,(%eax)
     9bc:	10 0b                	adc    %cl,(%ebx)
     9be:	90                   	nop
     9bf:	00 00                	add    %al,(%eax)
     9c1:	00 0c 20             	add    %cl,(%eax,%eiz,1)
     9c4:	7d 05                	jge    9cb <.debug_info+0x9cb>
     9c6:	00 00                	add    %al,(%eax)
     9c8:	14 0b                	adc    $0xb,%al
     9ca:	04 07                	add    $0x7,%al
     9cc:	00 00                	add    %al,(%eax)
     9ce:	0c 21                	or     $0x21,%al
     9d0:	7d 05                	jge    9d7 <.debug_info+0x9d7>
     9d2:	00 00                	add    %al,(%eax)
     9d4:	18 0b                	sbb    %cl,(%ebx)
     9d6:	f8                   	clc    
     9d7:	03 00                	add    (%eax),%eax
     9d9:	00 0c 22             	add    %cl,(%edx,%eiz,1)
     9dc:	7d 05                	jge    9e3 <.debug_info+0x9e3>
     9de:	00 00                	add    %al,(%eax)
     9e0:	1c 0b                	sbb    $0xb,%al
     9e2:	7f 01                	jg     9e5 <.debug_info+0x9e5>
     9e4:	00 00                	add    %al,(%eax)
     9e6:	0c 23                	or     $0x23,%al
     9e8:	7d 05                	jge    9ef <.debug_info+0x9ef>
     9ea:	00 00                	add    %al,(%eax)
     9ec:	20 0b                	and    %cl,(%ebx)
     9ee:	d3 02                	roll   %cl,(%edx)
     9f0:	00 00                	add    %al,(%eax)
     9f2:	0c 24                	or     $0x24,%al
     9f4:	7d 05                	jge    9fb <.debug_info+0x9fb>
     9f6:	00 00                	add    %al,(%eax)
     9f8:	24 0b                	and    $0xb,%al
     9fa:	a0 02 00 00 0c       	mov    0xc000002,%al
     9ff:	25 83 05 00 00       	and    $0x583,%eax
     a04:	28 0b                	sub    %cl,(%ebx)
     a06:	b0 05                	mov    $0x5,%al
     a08:	00 00                	add    %al,(%eax)
     a0a:	0c 26                	or     $0x26,%al
     a0c:	83 05 00 00 29 0b b6 	addl   $0xffffffb6,0xb290000
     a13:	08 00                	or     %al,(%eax)
     a15:	00 0c 27             	add    %cl,(%edi,%eiz,1)
     a18:	83 05 00 00 2a 0b 37 	addl   $0x37,0xb2a0000
     a1f:	01 00                	add    %eax,(%eax)
     a21:	00 0c 28             	add    %cl,(%eax,%ebp,1)
     a24:	83 05 00 00 2b 0b 17 	addl   $0x17,0xb2b0000
     a2b:	08 00                	or     %al,(%eax)
     a2d:	00 0c 29             	add    %cl,(%ecx,%ebp,1)
     a30:	83 05 00 00 2c 0b 04 	addl   $0x4,0xb2c0000
     a37:	01 00                	add    %eax,(%eax)
     a39:	00 0c 2a             	add    %cl,(%edx,%ebp,1)
     a3c:	83 05 00 00 2d 0b 49 	addl   $0x49,0xb2d0000
     a43:	02 00                	add    (%eax),%al
     a45:	00 0c 2b             	add    %cl,(%ebx,%ebp,1)
     a48:	83 05 00 00 2e 0b c3 	addl   $0xffffffc3,0xb2e0000
     a4f:	05 00 00 0c 2c       	add    $0x2c0c0000,%eax
     a54:	83 05 00 00 2f 0b c1 	addl   $0xffffffc1,0xb2f0000
     a5b:	02 00                	add    (%eax),%al
     a5d:	00 0c 2d 83 05 00 00 	add    %cl,0x583(,%ebp,1)
     a64:	30 0b                	xor    %cl,(%ebx)
     a66:	fe 05 00 00 0c 2e    	incb   0x2e0c0000
     a6c:	83 05 00 00 31 0b da 	addl   $0xffffffda,0xb310000
     a73:	01 00                	add    %eax,(%eax)
     a75:	00 0c 2f             	add    %cl,(%edi,%ebp,1)
     a78:	83 05 00 00 32 0b 5c 	addl   $0x5c,0xb320000
     a7f:	02 00                	add    (%eax),%al
     a81:	00 0c 30             	add    %cl,(%eax,%esi,1)
     a84:	83 05 00 00 33 0b 56 	addl   $0x56,0xb330000
     a8b:	06                   	push   %es
     a8c:	00 00                	add    %al,(%eax)
     a8e:	0c 31                	or     $0x31,%al
     a90:	83 05 00 00 34 0b 93 	addl   $0xffffff93,0xb340000
     a97:	08 00                	or     %al,(%eax)
     a99:	00 0c 32             	add    %cl,(%edx,%esi,1)
     a9c:	83 05 00 00 35 00 0f 	addl   $0xf,0x350000
     aa3:	04 2c                	add    $0x2c,%al
     aa5:	00 00                	add    %al,(%eax)
     aa7:	00 22                	add    %ah,(%edx)
     aa9:	63 76 74             	arpl   %si,0x74(%esi)
     aac:	00 01                	add    %al,(%ecx)
     aae:	0d 07 7d 05 00       	or     $0x57d07,%eax
     ab3:	00 01                	add    %al,(%ecx)
     ab5:	6c                   	insb   (%dx),%es:(%edi)
     ab6:	0b 00                	or     (%eax),%eax
     ab8:	00 23                	add    %ah,(%ebx)
     aba:	ee                   	out    %al,(%dx)
     abb:	04 00                	add    $0x0,%al
     abd:	00 01                	add    %al,(%ecx)
     abf:	0d 07 45 04 00       	or     $0x44507,%eax
     ac4:	00 23                	add    %ah,(%ebx)
     ac6:	16                   	push   %ss
     ac7:	02 00                	add    (%eax),%al
     ac9:	00 01                	add    %al,(%ecx)
     acb:	0d 07 25 00 00       	or     $0x2507,%eax
     ad0:	00 23                	add    %ah,(%ebx)
     ad2:	d0 04 00             	rolb   (%eax,%eax,1)
     ad5:	00 01                	add    %al,(%ecx)
     ad7:	0d 07 2c 00 00       	or     $0x2c07,%eax
     adc:	00 23                	add    %ah,(%ebx)
     ade:	4a                   	dec    %edx
     adf:	00 00                	add    %al,(%eax)
     ae1:	00 01                	add    %al,(%ecx)
     ae3:	0d 07 2c 00 00       	or     $0x2c07,%eax
     ae8:	00 23                	add    %ah,(%ebx)
     aea:	1b 06                	sbb    (%esi),%eax
     aec:	00 00                	add    %al,(%eax)
     aee:	01 0e                	add    %ecx,(%esi)
     af0:	07                   	pop    %es
     af1:	7d 05                	jge    af8 <.debug_info+0xaf8>
     af3:	00 00                	add    %al,(%eax)
     af5:	23 85 00 00 00 01    	and    0x1000000(%ebp),%eax
     afb:	0e                   	push   %cs
     afc:	07                   	pop    %es
     afd:	a2 0a 00 00 24       	mov    %al,0x2400000a
     b02:	63 68 00             	arpl   %bp,0x0(%eax)
     b05:	01 0e                	add    %ecx,(%esi)
     b07:	07                   	pop    %es
     b08:	2c 00                	sub    $0x0,%al
     b0a:	00 00                	add    %al,(%eax)
     b0c:	23 bc 05 00 00 01 0e 	and    0xe010000(%ebp,%eax,1),%edi
     b13:	07                   	pop    %es
     b14:	a2 0a 00 00 24       	mov    %al,0x2400000a
     b19:	62 75 66             	bound  %esi,0x66(%ebp)
     b1c:	00 01                	add    %al,(%ecx)
     b1e:	0e                   	push   %cs
     b1f:	07                   	pop    %es
     b20:	7d 05                	jge    b27 <.debug_info+0xb27>
     b22:	00 00                	add    %al,(%eax)
     b24:	25 c0 00 00 00       	and    $0xc0,%eax
     b29:	01 10                	add    %edx,(%eax)
     b2b:	07                   	pop    %es
     b2c:	2c 00                	sub    $0x0,%al
     b2e:	00 00                	add    %al,(%eax)
     b30:	25 27 06 00 00       	and    $0x627,%eax
     b35:	01 10                	add    %edx,(%eax)
     b37:	07                   	pop    %es
     b38:	2c 00                	sub    $0x0,%al
     b3a:	00 00                	add    %al,(%eax)
     b3c:	25 07 02 00 00       	and    $0x207,%eax
     b41:	01 11                	add    %edx,(%ecx)
     b43:	07                   	pop    %es
     b44:	7d 05                	jge    b4b <.debug_info+0xb4b>
     b46:	00 00                	add    %al,(%eax)
     b48:	26 62 70 00          	bound  %esi,%es:0x0(%eax)
     b4c:	01 11                	add    %edx,(%ecx)
     b4e:	07                   	pop    %es
     b4f:	7d 05                	jge    b56 <.debug_info+0xb56>
     b51:	00 00                	add    %al,(%eax)
     b53:	26 72 76             	es jb  bcc <.debug_info+0xbcc>
     b56:	65 00 01             	add    %al,%gs:(%ecx)
     b59:	11 07                	adc    %eax,(%edi)
     b5b:	7d 05                	jge    b62 <.debug_info+0xb62>
     b5d:	00 00                	add    %al,(%eax)
     b5f:	26 74 6d             	es je  bcf <.debug_info+0xbcf>
     b62:	70 00                	jo     b64 <.debug_info+0xb64>
     b64:	01 13                	add    %edx,(%ebx)
     b66:	07                   	pop    %es
     b67:	46                   	inc    %esi
     b68:	09 00                	or     %eax,(%eax)
     b6a:	00 00                	add    %al,(%eax)
     b6c:	27                   	daa    
     b6d:	05 00 00 00 01       	add    $0x1000000,%eax
     b72:	6b 07 2c             	imul   $0x2c,(%edi),%eax
     b75:	00 00                	add    %al,(%eax)
     b77:	00 01                	add    %al,(%ecx)
     b79:	c1 0b 00             	rorl   $0x0,(%ebx)
     b7c:	00 24 70             	add    %ah,(%eax,%esi,2)
     b7f:	30 00                	xor    %al,(%eax)
     b81:	01 6b 07             	add    %ebp,0x7(%ebx)
     b84:	7d 05                	jge    b8b <.debug_info+0xb8b>
     b86:	00 00                	add    %al,(%eax)
     b88:	24 65                	and    $0x65,%al
     b8a:	78 70                	js     bfc <.debug_info+0xbfc>
     b8c:	00 01                	add    %al,(%ecx)
     b8e:	6b 07 2c             	imul   $0x2c,(%edi),%eax
     b91:	00 00                	add    %al,(%eax)
     b93:	00 23                	add    %ah,(%ebx)
     b95:	ad                   	lods   %ds:(%esi),%eax
     b96:	06                   	push   %es
     b97:	00 00                	add    %al,(%eax)
     b99:	01 6b 07             	add    %ebp,0x7(%ebx)
     b9c:	2c 00                	sub    $0x0,%al
     b9e:	00 00                	add    %al,(%eax)
     ba0:	26 70 00             	es jo  ba3 <.debug_info+0xba3>
     ba3:	01 6d 07             	add    %ebp,0x7(%ebp)
     ba6:	7d 05                	jge    bad <.debug_info+0xbad>
     ba8:	00 00                	add    %al,(%eax)
     baa:	26 74 00             	es je  bad <.debug_info+0xbad>
     bad:	01 6d 07             	add    %ebp,0x7(%ebp)
     bb0:	7d 05                	jge    bb7 <.debug_info+0xbb7>
     bb2:	00 00                	add    %al,(%eax)
     bb4:	25 23 00 00 00       	and    $0x23,%eax
     bb9:	01 6e 07             	add    %ebp,0x7(%esi)
     bbc:	c1 0b 00             	rorl   $0x0,(%ebx)
     bbf:	00 00                	add    %al,(%eax)
     bc1:	08 83 05 00 00 d1    	or     %al,-0x2efffffb(%ebx)
     bc7:	0b 00                	or     (%eax),%eax
     bc9:	00 09                	add    %cl,(%ecx)
     bcb:	f3 00 00             	repz add %al,(%eax)
     bce:	00 06                	add    %al,(%esi)
     bd0:	00 28                	add    %ch,(%eax)
     bd2:	a3 08 00 00 01       	mov    %eax,0x1000008
     bd7:	97                   	xchg   %eax,%edi
     bd8:	02 2c 00             	add    (%eax,%eax,1),%ch
     bdb:	00 00                	add    %al,(%eax)
     bdd:	00 00                	add    %al,(%eax)
     bdf:	00 00                	add    %al,(%eax)
     be1:	f9                   	stc    
     be2:	1e                   	push   %ds
     be3:	00 00                	add    %al,(%eax)
     be5:	01 9c d6 15 00 00 29 	add    %ebx,0x29000015(%esi,%edx,8)
     bec:	ee                   	out    %al,(%dx)
     bed:	04 00                	add    $0x0,%al
     bef:	00 01                	add    %al,(%ecx)
     bf1:	97                   	xchg   %eax,%edi
     bf2:	02 45 04             	add    0x4(%ebp),%al
     bf5:	00 00                	add    %al,(%eax)
     bf7:	02 91 00 2a 66 70    	add    0x70662a00(%ecx),%dl
     bfd:	00 01                	add    %al,(%ecx)
     bff:	97                   	xchg   %eax,%edi
     c00:	02 64 06 00          	add    0x0(%esi,%eax,1),%ah
     c04:	00 02                	add    %al,(%edx)
     c06:	91                   	xchg   %eax,%ecx
     c07:	04 29                	add    $0x29,%al
     c09:	35 02 00 00 01       	xor    $0x1000002,%eax
     c0e:	97                   	xchg   %eax,%edi
     c0f:	02 ae 05 00 00 02    	add    0x2000005(%esi),%ch
     c15:	91                   	xchg   %eax,%ecx
     c16:	08 2b                	or     %ch,(%ebx)
     c18:	61                   	popa   
     c19:	70 00                	jo     c1b <.debug_info+0xc1b>
     c1b:	01 97 02 d1 08 00    	add    %edx,0x8d102(%edi)
     c21:	00 00                	add    %al,(%eax)
     c23:	00 00                	add    %al,(%eax)
     c25:	00 2c 66             	add    %ch,(%esi,%eiz,2)
     c28:	6d                   	insl   (%dx),%es:(%edi)
     c29:	74 00                	je     c2b <.debug_info+0xc2b>
     c2b:	01 9d 02 7d 05 00    	add    %ebx,0x57d02(%ebp)
     c31:	00 8e 02 00 00 2c    	add    %cl,0x2c000002(%esi)
     c37:	63 68 00             	arpl   %bp,0x0(%eax)
     c3a:	01 9e 02 2c 00 00    	add    %ebx,0x2c02(%esi)
     c40:	00 16                	add    %dl,(%esi)
     c42:	05 00 00 2c 6e       	add    $0x6e2c0000,%eax
     c47:	00 01                	add    %al,(%ecx)
     c49:	9f                   	lahf   
     c4a:	02 2c 00             	add    (%eax,%eax,1),%ch
     c4d:	00 00                	add    %al,(%eax)
     c4f:	ce                   	into   
     c50:	08 00                	or     %al,(%eax)
     c52:	00 2c 6d 00 01 9f 02 	add    %ch,0x29f0100(,%ebp,2)
     c59:	2c 00                	sub    $0x0,%al
     c5b:	00 00                	add    %al,(%eax)
     c5d:	39 0a                	cmp    %ecx,(%edx)
     c5f:	00 00                	add    %al,(%eax)
     c61:	2c 63                	sub    $0x63,%al
     c63:	70 00                	jo     c65 <.debug_info+0xc65>
     c65:	01 a0 02 7d 05 00    	add    %esp,0x57d02(%eax)
     c6b:	00 68 0a             	add    %ch,0xa(%eax)
     c6e:	00 00                	add    %al,(%eax)
     c70:	2d 4a 00 00 00       	sub    $0x4a,%eax
     c75:	01 a1 02 2c 00 00    	add    %esp,0x2c02(%ecx)
     c7b:	00 5c 0d 00          	add    %bl,0x0(%ebp,%ecx,1)
     c7f:	00 2d d8 07 00 00    	add    %ch,0x7d8
     c85:	01 a2 02 7d 05 00    	add    %esp,0x57d02(%edx)
     c8b:	00 b1 0e 00 00 2c    	add    %dh,0x2c00000e(%ecx)
     c91:	72 65                	jb     cf8 <.debug_info+0xcf8>
     c93:	74 00                	je     c95 <.debug_info+0xc95>
     c95:	01 ad 02 2c 00 00    	add    %ebp,0x2c02(%ebp)
     c9b:	00 d1                	add    %dl,%cl
     c9d:	0e                   	push   %cs
     c9e:	00 00                	add    %al,(%eax)
     ca0:	2d 6e 02 00 00       	sub    $0x26e,%eax
     ca5:	01 ae 02 2c 00 00    	add    %ebp,0x2c02(%esi)
     cab:	00 26                	add    %ah,(%esi)
     cad:	0f 00 00             	sldt   (%eax)
     cb0:	2d 8b 00 00 00       	sub    $0x8b,%eax
     cb5:	01 af 02 2c 00 00    	add    %ebp,0x2c02(%edi)
     cbb:	00 ad 0f 00 00 2e    	add    %ch,0x2e00000f(%ebp)
     cc1:	1b 06                	sbb    (%esi),%eax
     cc3:	00 00                	add    %al,(%eax)
     cc5:	01 b0 02 83 05 00    	add    %esi,0x58302(%eax)
     ccb:	00 03                	add    %al,(%ebx)
     ccd:	91                   	xchg   %eax,%ecx
     cce:	d1 7e 2d             	sarl   0x2d(%esi)
     cd1:	e9 00 00 00 01       	jmp    1000cd6 <blanks.3938+0x1000b62>
     cd6:	b8 02 7d 05 00       	mov    $0x57d02,%eax
     cdb:	00 10                	add    %dl,(%eax)
     cdd:	11 00                	adc    %eax,(%eax)
     cdf:	00 2d 91 02 00 00    	add    %ch,0x291
     ce5:	01 b9 02 33 00 00    	add    %edi,0x3302(%ecx)
     ceb:	00 4a 11             	add    %cl,0x11(%edx)
     cee:	00 00                	add    %al,(%eax)
     cf0:	2d 1c 02 00 00       	sub    $0x21c,%eax
     cf5:	01 ba 02 83 05 00    	add    %edi,0x58302(%edx)
     cfb:	00 84 11 00 00 1b 08 	add    %al,0x81b0000(%ecx,%edx,1)
     d02:	01 bb 02 1f 0d 00    	add    %edi,0xd1f02(%ebx)
     d08:	00 2f                	add    %ch,(%edi)
     d0a:	69 00 01 bb 02 2c    	imul   $0x2c02bb01,(%eax),%eax
     d10:	00 00                	add    %al,(%eax)
     d12:	00 2f                	add    %ch,(%edi)
     d14:	66 70 00             	data16 jo d17 <.debug_info+0xd17>
     d17:	01 bb 02 25 00 00    	add    %edi,0x2502(%ebx)
     d1d:	00 00                	add    %al,(%eax)
     d1f:	2d 64 01 00 00       	sub    $0x164,%eax
     d24:	01 bb 02 00 0d 00    	add    %edi,0xd0002(%ebx)
     d2a:	00 0e                	add    %cl,(%esi)
     d2c:	12 00                	adc    (%eax),%al
     d2e:	00 2e                	add    %ch,(%esi)
     d30:	30 02                	xor    %al,(%edx)
     d32:	00 00                	add    %al,(%eax)
     d34:	01 bd 02 2c 00 00    	add    %edi,0x2c02(%ebp)
     d3a:	00 03                	add    %al,(%ebx)
     d3c:	91                   	xchg   %eax,%ecx
     d3d:	d4 7e                	aam    $0x7e
     d3f:	2d d8 03 00 00       	sub    $0x3d8,%eax
     d44:	01 be 02 2c 00 00    	add    %edi,0x2c02(%esi)
     d4a:	00 ce                	add    %cl,%dh
     d4c:	12 00                	adc    (%eax),%al
     d4e:	00 2e                	add    %ch,(%esi)
     d50:	20 06                	and    %al,(%esi)
     d52:	00 00                	add    %al,(%eax)
     d54:	01 bf 02 c1 0b 00    	add    %edi,0xbc102(%edi)
     d5a:	00 03                	add    %al,(%ebx)
     d5c:	91                   	xchg   %eax,%ecx
     d5d:	dd 7e 2d             	fnstsw 0x2d(%esi)
     d60:	08 03                	or     %al,(%ebx)
     d62:	00 00                	add    %al,(%eax)
     d64:	01 c0                	add    %eax,%eax
     d66:	02 2c 00             	add    (%eax,%eax,1),%ch
     d69:	00 00                	add    %al,(%eax)
     d6b:	48                   	dec    %eax
     d6c:	13 00                	adc    (%eax),%eax
     d6e:	00 2d e3 07 00 00    	add    %ch,0x7e3
     d74:	01 c3                	add    %eax,%ebx
     d76:	02 2c 00             	add    (%eax,%eax,1),%ch
     d79:	00 00                	add    %al,(%eax)
     d7b:	38 14 00             	cmp    %dl,(%eax,%eax,1)
     d7e:	00 2d f2 01 00 00    	add    %ch,0x1f2
     d84:	01 c9                	add    %ecx,%ecx
     d86:	02 3e                	add    (%esi),%bh
     d88:	01 00                	add    %eax,(%eax)
     d8a:	00 ca                	add    %cl,%dl
     d8c:	14 00                	adc    $0x0,%al
     d8e:	00 30                	add    %dh,(%eax)
     d90:	01 01                	add    %eax,(%ecx)
     d92:	ca 02 ab             	lret   $0xab02
     d95:	0d 00 00 31 4f       	or     $0x4f310000,%eax
     d9a:	43                   	inc    %ebx
     d9b:	54                   	push   %esp
     d9c:	00 00                	add    %al,(%eax)
     d9e:	31 44 45 43          	xor    %eax,0x43(%ebp,%eax,2)
     da2:	00 01                	add    %al,(%ecx)
     da4:	31 48 45             	xor    %ecx,0x45(%eax)
     da7:	58                   	pop    %eax
     da8:	00 02                	add    %al,(%edx)
     daa:	00 2d 6d 01 00 00    	add    %ch,0x16d
     db0:	01 ca                	add    %ecx,%edx
     db2:	02 8f 0d 00 00 58    	add    0x5800000d(%edi),%cl
     db8:	15 00 00 2d 6c       	adc    $0x6c2d0000,%eax
     dbd:	05 00 00 01 cb       	add    $0xcb010000,%eax
     dc2:	02 2c 00             	add    (%eax,%eax,1),%ch
     dc5:	00 00                	add    %al,(%eax)
     dc7:	af                   	scas   %es:(%edi),%eax
     dc8:	15 00 00 2d 43       	adc    $0x432d0000,%eax
     dcd:	06                   	push   %es
     dce:	00 00                	add    %al,(%eax)
     dd0:	01 cc                	add    %ecx,%esp
     dd2:	02 2c 00             	add    (%eax,%eax,1),%ch
     dd5:	00 00                	add    %al,(%eax)
     dd7:	9b                   	fwait
     dd8:	16                   	push   %ss
     dd9:	00 00                	add    %al,(%eax)
     ddb:	2d c0 04 00 00       	sub    $0x4c0,%eax
     de0:	01 cd                	add    %ecx,%ebp
     de2:	02 2c 00             	add    (%eax,%eax,1),%ch
     de5:	00 00                	add    %al,(%eax)
     de7:	55                   	push   %ebp
     de8:	17                   	pop    %ss
     de9:	00 00                	add    %al,(%eax)
     deb:	2d 79 01 00 00       	sub    $0x179,%eax
     df0:	01 ce                	add    %ecx,%esi
     df2:	02 7d 05             	add    0x5(%ebp),%bh
     df5:	00 00                	add    %al,(%eax)
     df7:	ae                   	scas   %es:(%edi),%al
     df8:	18 00                	sbb    %al,(%eax)
     dfa:	00 32                	add    %dh,(%edx)
     dfc:	75 69                	jne    e67 <.debug_info+0xe67>
     dfe:	6f                   	outsl  %ds:(%esi),(%dx)
     dff:	00 01                	add    %al,(%ecx)
     e01:	d1 02                	roll   (%edx)
     e03:	01 09                	add    %ecx,(%ecx)
     e05:	00 00                	add    %al,(%eax)
     e07:	03 91 ec 7e 32 69    	add    0x69327eec(%ecx),%edx
     e0d:	6f                   	outsl  %ds:(%esi),(%dx)
     e0e:	76 00                	jbe    e10 <.debug_info+0xe10>
     e10:	01 d2                	add    %edx,%edx
     e12:	02 d6                	add    %dh,%dl
     e14:	15 00 00 03 91       	adc    $0x91030000,%eax
     e19:	a0 7f 2d 00 00       	mov    0x2d7f,%al
     e1e:	00 00                	add    %al,(%eax)
     e20:	01 d3                	add    %edx,%ebx
     e22:	02 32                	add    (%edx),%dh
     e24:	09 00                	or     %eax,(%eax)
     e26:	00 52 19             	add    %dl,0x19(%edx)
     e29:	00 00                	add    %al,(%eax)
     e2b:	32 62 75             	xor    0x75(%edx),%ah
     e2e:	66 00 01             	data16 add %al,(%ecx)
     e31:	d5 02                	aad    $0x2
     e33:	e6 15                	out    %al,$0x15
     e35:	00 00                	add    %al,(%eax)
     e37:	03 91 f8 7e 32 6f    	add    0x6f327ef8(%ecx),%edx
     e3d:	78 00                	js     e3f <.debug_info+0xe3f>
     e3f:	01 d6                	add    %edx,%esi
     e41:	02 f6                	add    %dh,%dh
     e43:	15 00 00 03 91       	adc    $0x91030000,%eax
     e48:	d2 7e 33             	sarb   %cl,0x33(%esi)
     e4b:	98                   	cwtl   
     e4c:	04 00                	add    $0x0,%al
     e4e:	00 01                	add    %al,(%ecx)
     e50:	db 02                	fildl  (%edx)
     e52:	7d 05                	jge    e59 <.debug_info+0xe59>
     e54:	00 00                	add    %al,(%eax)
     e56:	00 2e                	add    %ch,(%esi)
     e58:	ae                   	scas   %es:(%edi),%al
     e59:	07                   	pop    %es
     e5a:	00 00                	add    %al,(%eax)
     e5c:	01 e3                	add    %esp,%ebx
     e5e:	02 16                	add    (%esi),%dl
     e60:	16                   	push   %ss
     e61:	00 00                	add    %al,(%eax)
     e63:	05 03 74 01 00       	add    $0x17403,%eax
     e68:	00 2e                	add    %ch,(%esi)
     e6a:	f0 05 00 00 01 e5    	lock add $0xe5010000,%eax
     e70:	02 1b                	add    (%ebx),%bl
     e72:	16                   	push   %ss
     e73:	00 00                	add    %al,(%eax)
     e75:	05 03 64 01 00       	add    $0x16403,%eax
     e7a:	00 34 b4             	add    %dh,(%esp,%esi,4)
     e7d:	00 00                	add    %al,(%eax)
     e7f:	00 01                	add    %al,(%ecx)
     e81:	f9                   	stc    
     e82:	06                   	push   %es
     e83:	d0 01                	rolb   (%ecx)
     e85:	00 00                	add    %al,(%eax)
     e87:	34 e9                	xor    $0xe9,%al
     e89:	04 00                	add    $0x0,%al
     e8b:	00 01                	add    %al,(%ecx)
     e8d:	f7 06 a8 01 00 00    	testl  $0x1a8,(%esi)
     e93:	35 2a 00 00 00       	xor    $0x2a,%eax
     e98:	01 be 03 35 5c 03    	add    %edi,0x35c3503(%esi)
     e9e:	00 00                	add    %al,(%eax)
     ea0:	01 bf 03 34 4f 06    	add    %edi,0x64f3403(%edi)
     ea6:	00 00                	add    %al,(%eax)
     ea8:	01 1d 06 e9 03 00    	add    %ebx,0x3e906
     eae:	00 34 46             	add    %dh,(%esi,%eax,2)
     eb1:	01 00                	add    %eax,(%eax)
     eb3:	00 01                	add    %al,(%ecx)
     eb5:	17                   	pop    %ss
     eb6:	06                   	push   %es
     eb7:	e0 03                	loopne ebc <.debug_info+0xebc>
     eb9:	00 00                	add    %al,(%eax)
     ebb:	36 68 65 78 00 01    	ss push $0x1007865
     ec1:	0a 06                	or     (%esi),%al
     ec3:	a3 07 00 00 34       	mov    %eax,0x34000007
     ec8:	9d                   	popf   
     ec9:	03 00                	add    (%eax),%eax
     ecb:	00 01                	add    %al,(%ecx)
     ecd:	74 06                	je     ed5 <.debug_info+0xed5>
     ecf:	98                   	cwtl   
     ed0:	02 00                	add    (%eax),%al
     ed2:	00 37                	add    %dh,(%edi)
     ed4:	00 00                	add    %al,(%eax)
     ed6:	00 00                	add    %al,(%eax)
     ed8:	0d 0f 00 00 2c       	or     $0x2c00000f,%eax
     edd:	70 00                	jo     edf <.debug_info+0xedf>
     edf:	01 f2                	add    %esi,%edx
     ee1:	05 7d 05 00 00       	add    $0x57d,%eax
     ee6:	a5                   	movsl  %ds:(%esi),%es:(%edi)
     ee7:	1d 00 00 38 48       	sbb    $0x48380000,%eax
     eec:	02 00                	add    (%eax),%al
     eee:	00 20                	add    %ah,(%eax)
     ef0:	16                   	push   %ss
     ef1:	00 00                	add    %al,(%eax)
     ef3:	39 02                	cmp    %eax,(%edx)
     ef5:	74 00                	je     ef7 <.debug_info+0xef7>
     ef7:	04 91                	add    $0x91,%al
     ef9:	a0 7e 06 39 02       	mov    0x239067e,%al
     efe:	74 04                	je     f04 <.debug_info+0xf04>
     f00:	01 30                	add    %esi,(%eax)
     f02:	39 02                	cmp    %eax,(%edx)
     f04:	74 08                	je     f0e <.debug_info+0xf0e>
     f06:	04 91                	add    $0x91,%al
     f08:	bc 7e 06 00 00       	mov    $0x67e,%esp
     f0d:	37                   	aaa    
     f0e:	20 00                	and    %al,(%eax)
     f10:	00 00                	add    %al,(%eax)
     f12:	2c 10                	sub    $0x10,%al
     f14:	00 00                	add    %al,(%eax)
     f16:	2d ea 01 00 00       	sub    $0x1ea,%eax
     f1b:	01 bc 06 7d 05 00 00 	add    %edi,0x57d(%esi,%eax,1)
     f22:	c3                   	ret    
     f23:	1d 00 00 37 50       	sbb    $0x50370000,%eax
     f28:	00 00                	add    %al,(%eax)
     f2a:	00 aa 0f 00 00 2c    	add    %ch,0x2c00000f(%edx)
     f30:	6e                   	outsb  %ds:(%esi),(%dx)
     f31:	00 01                	add    %al,(%ecx)
     f33:	bd 06 2c 00 00       	mov    $0x2c06,%ebp
     f38:	00 ff                	add    %bh,%bh
     f3a:	1d 00 00 3a 19       	sbb    $0x193a0000,%eax
     f3f:	11 00                	adc    %eax,(%eax)
     f41:	00 3f                	add    %bh,(%edi)
     f43:	16                   	push   %ss
     f44:	00 00                	add    %al,(%eax)
     f46:	62 0f                	bound  %ecx,(%edi)
     f48:	00 00                	add    %al,(%eax)
     f4a:	39 02                	cmp    %eax,(%edx)
     f4c:	74 00                	je     f4e <.debug_info+0xf4e>
     f4e:	03 91 00 06 39 02    	add    0x2390600(%ecx),%edx
     f54:	74 04                	je     f5a <.debug_info+0xf5a>
     f56:	03 91 04 06 39 02    	add    0x2390604(%ecx),%edx
     f5c:	74 08                	je     f66 <.debug_info+0xf66>
     f5e:	02 73 00             	add    0x0(%ebx),%dh
     f61:	00 3a                	add    %bh,(%edx)
     f63:	e5 12                	in     $0x12,%eax
     f65:	00 00                	add    %al,(%eax)
     f67:	3f                   	aas    
     f68:	16                   	push   %ss
     f69:	00 00                	add    %al,(%eax)
     f6b:	87 0f                	xchg   %ecx,(%edi)
     f6d:	00 00                	add    %al,(%eax)
     f6f:	39 02                	cmp    %eax,(%edx)
     f71:	74 00                	je     f73 <.debug_info+0xf73>
     f73:	03 91 00 06 39 02    	add    0x2390600(%ecx),%edx
     f79:	74 04                	je     f7f <.debug_info+0xf7f>
     f7b:	03 91 04 06 39 02    	add    0x2390604(%ecx),%edx
     f81:	74 08                	je     f8b <.debug_info+0xf8b>
     f83:	02 73 00             	add    0x0(%ebx),%dh
     f86:	00 38                	add    %bh,(%eax)
     f88:	13 1a                	adc    (%edx),%ebx
     f8a:	00 00                	add    %al,(%eax)
     f8c:	3f                   	aas    
     f8d:	16                   	push   %ss
     f8e:	00 00                	add    %al,(%eax)
     f90:	39 02                	cmp    %eax,(%edx)
     f92:	74 00                	je     f94 <.debug_info+0xf94>
     f94:	03 91 00 06 39 02    	add    0x2390600(%ecx),%edx
     f9a:	74 04                	je     fa0 <.debug_info+0xfa0>
     f9c:	03 91 04 06 39 02    	add    0x2390604(%ecx),%edx
     fa2:	74 08                	je     fac <.debug_info+0xfac>
     fa4:	03 91 ec 7e 00 00    	add    0x7eec(%ecx),%edx
     faa:	37                   	aaa    
     fab:	70 00                	jo     fad <.debug_info+0xfad>
     fad:	00 00                	add    %al,(%eax)
     faf:	09 10                	or     %edx,(%eax)
     fb1:	00 00                	add    %al,(%eax)
     fb3:	2c 6e                	sub    $0x6e,%al
     fb5:	00 01                	add    %al,(%ecx)
     fb7:	d4 06                	aam    $0x6
     fb9:	2c 00                	sub    $0x0,%al
     fbb:	00 00                	add    %al,(%eax)
     fbd:	33 1e                	xor    (%esi),%ebx
     fbf:	00 00                	add    %al,(%eax)
     fc1:	3a 09                	cmp    (%ecx),%cl
     fc3:	14 00                	adc    $0x0,%al
     fc5:	00 3f                	add    %bh,(%edi)
     fc7:	16                   	push   %ss
     fc8:	00 00                	add    %al,(%eax)
     fca:	e6 0f                	out    %al,$0xf
     fcc:	00 00                	add    %al,(%eax)
     fce:	39 02                	cmp    %eax,(%edx)
     fd0:	74 00                	je     fd2 <.debug_info+0xfd2>
     fd2:	03 91 00 06 39 02    	add    0x2390600(%ecx),%edx
     fd8:	74 04                	je     fde <.debug_info+0xfde>
     fda:	03 91 04 06 39 02    	add    0x2390604(%ecx),%edx
     fe0:	74 08                	je     fea <.debug_info+0xfea>
     fe2:	02 73 00             	add    0x0(%ebx),%dh
     fe5:	00 38                	add    %bh,(%eax)
     fe7:	7d 1a                	jge    1003 <.debug_info+0x1003>
     fe9:	00 00                	add    %al,(%eax)
     feb:	3f                   	aas    
     fec:	16                   	push   %ss
     fed:	00 00                	add    %al,(%eax)
     fef:	39 02                	cmp    %eax,(%edx)
     ff1:	74 00                	je     ff3 <.debug_info+0xff3>
     ff3:	03 91 00 06 39 02    	add    0x2390600(%ecx),%edx
     ff9:	74 04                	je     fff <.debug_info+0xfff>
     ffb:	03 91 04 06 39 02    	add    0x2390604(%ecx),%edx
    1001:	74 08                	je     100b <.debug_info+0x100b>
    1003:	03 91 ec 7e 00 00    	add    0x7eec(%ecx),%edx
    1009:	38 45 1a             	cmp    %al,0x1a(%ebp)
    100c:	00 00                	add    %al,(%eax)
    100e:	3f                   	aas    
    100f:	16                   	push   %ss
    1010:	00 00                	add    %al,(%eax)
    1012:	39 02                	cmp    %eax,(%edx)
    1014:	74 00                	je     1016 <.debug_info+0x1016>
    1016:	03 91 00 06 39 02    	add    0x2390600(%ecx),%edx
    101c:	74 04                	je     1022 <.debug_info+0x1022>
    101e:	03 91 04 06 39 02    	add    0x2390604(%ecx),%edx
    1024:	74 08                	je     102e <.debug_info+0x102e>
    1026:	03 91 ec 7e 00 00    	add    0x7eec(%ecx),%edx
    102c:	3b a8 0a 00 00 f1    	cmp    -0xefffff6(%eax),%ebp
    1032:	16                   	push   %ss
    1033:	00 00                	add    %al,(%eax)
    1035:	90                   	nop
    1036:	00 00                	add    %al,(%eax)
    1038:	00 01                	add    %al,(%ecx)
    103a:	25 05 4a 11 00       	and    $0x114a05,%eax
    103f:	00 3c 18             	add    %bh,(%eax,%ebx,1)
    1042:	0b 00                	or     (%eax),%eax
    1044:	00 3d 0c 0b 00 00    	add    %bh,0xb0c
    104a:	5c                   	pop    %esp
    104b:	1e                   	push   %ds
    104c:	00 00                	add    %al,(%eax)
    104e:	3d 01 0b 00 00       	cmp    $0xb01,%eax
    1053:	d4 1e                	aam    $0x1e
    1055:	00 00                	add    %al,(%eax)
    1057:	3d f5 0a 00 00       	cmp    $0xaf5,%eax
    105c:	51                   	push   %ecx
    105d:	1f                   	pop    %ds
    105e:	00 00                	add    %al,(%eax)
    1060:	3d e9 0a 00 00       	cmp    $0xae9,%eax
    1065:	05 20 00 00 3d       	add    $0x3d000020,%eax
    106a:	dd 0a                	fisttpll (%edx)
    106c:	00 00                	add    %al,(%eax)
    106e:	7d 20                	jge    1090 <.debug_info+0x1090>
    1070:	00 00                	add    %al,(%eax)
    1072:	3d d1 0a 00 00       	cmp    $0xad1,%eax
    1077:	eb 20                	jmp    1099 <.debug_info+0x1099>
    1079:	00 00                	add    %al,(%eax)
    107b:	3d c5 0a 00 00       	cmp    $0xac5,%eax
    1080:	3f                   	aas    
    1081:	21 00                	and    %eax,(%eax)
    1083:	00 3d b9 0a 00 00    	add    %bh,0xab9
    1089:	11 22                	adc    %esp,(%edx)
    108b:	00 00                	add    %al,(%eax)
    108d:	3e 90                	ds nop
    108f:	00 00                	add    %al,(%eax)
    1091:	00 3f                	add    %bh,(%edi)
    1093:	24 0b                	and    $0xb,%al
    1095:	00 00                	add    %al,(%eax)
    1097:	6d                   	insl   (%dx),%es:(%edi)
    1098:	22 00                	and    (%eax),%al
    109a:	00 40 30             	add    %al,0x30(%eax)
    109d:	0b 00                	or     (%eax),%eax
    109f:	00 03                	add    %al,(%ebx)
    10a1:	91                   	xchg   %eax,%ecx
    10a2:	d8 7e 3f             	fdivrs 0x3f(%esi)
    10a5:	3c 0b                	cmp    $0xb,%al
    10a7:	00 00                	add    %al,(%eax)
    10a9:	8c 22                	mov    %fs,(%edx)
    10ab:	00 00                	add    %al,(%eax)
    10ad:	3f                   	aas    
    10ae:	48                   	dec    %eax
    10af:	0b 00                	or     (%eax),%eax
    10b1:	00 1d 23 00 00 40    	add    %bl,0x40000023
    10b7:	53                   	push   %ebx
    10b8:	0b 00                	or     (%eax),%eax
    10ba:	00 03                	add    %al,(%ebx)
    10bc:	91                   	xchg   %eax,%ecx
    10bd:	e4 7e                	in     $0x7e,%al
    10bf:	41                   	inc    %ecx
    10c0:	5f                   	pop    %edi
    10c1:	0b 00                	or     (%eax),%eax
    10c3:	00 3a                	add    %bh,(%edx)
    10c5:	7a 17                	jp     10de <.debug_info+0x10de>
    10c7:	00 00                	add    %al,(%eax)
    10c9:	65 16                	gs push %ss
    10cb:	00 00                	add    %al,(%eax)
    10cd:	0a 11                	or     (%ecx),%dl
    10cf:	00 00                	add    %al,(%eax)
    10d1:	39 02                	cmp    %eax,(%edx)
    10d3:	74 00                	je     10d5 <.debug_info+0x10d5>
    10d5:	03 91 00 06 39 02    	add    0x2390600(%ecx),%edx
    10db:	74 04                	je     10e1 <.debug_info+0x10e1>
    10dd:	06                   	push   %es
    10de:	91                   	xchg   %eax,%ecx
    10df:	b0 7e                	mov    $0x7e,%al
    10e1:	f6                   	(bad)  
    10e2:	08 25 39 02 74 0c    	or     %ah,0xc740239
    10e8:	01 32                	add    %esi,(%edx)
    10ea:	39 02                	cmp    %eax,(%edx)
    10ec:	74 10                	je     10fe <.debug_info+0x10fe>
    10ee:	02 76 00             	add    0x0(%esi),%dh
    10f1:	39 02                	cmp    %eax,(%edx)
    10f3:	74 14                	je     1109 <.debug_info+0x1109>
    10f5:	03 91 d4 7e 39 02    	add    0x2397ed4(%ecx),%edx
    10fb:	74 18                	je     1115 <.debug_info+0x1115>
    10fd:	03 91 d8 7e 39 02    	add    0x2397ed8(%ecx),%edx
    1103:	74 1c                	je     1121 <.debug_info+0x1121>
    1105:	03 91 e4 7e 00 38    	add    0x38007ee4(%ecx),%edx
    110b:	43                   	inc    %ebx
    110c:	1b 00                	sbb    (%eax),%eax
    110e:	00 65 16             	add    %ah,0x16(%ebp)
    1111:	00 00                	add    %al,(%eax)
    1113:	39 02                	cmp    %eax,(%edx)
    1115:	74 00                	je     1117 <.debug_info+0x1117>
    1117:	03 91 00 06 39 02    	add    0x2390600(%ecx),%edx
    111d:	74 04                	je     1123 <.debug_info+0x1123>
    111f:	06                   	push   %es
    1120:	91                   	xchg   %eax,%ecx
    1121:	b0 7e                	mov    $0x7e,%al
    1123:	f6                   	(bad)  
    1124:	08 25 39 02 74 10    	or     %ah,0x10740239
    112a:	04 91                	add    $0x91,%al
    112c:	bc 7e 06 39 02       	mov    $0x239067e,%esp
    1131:	74 14                	je     1147 <.debug_info+0x1147>
    1133:	03 91 d4 7e 39 02    	add    0x2397ed4(%ecx),%edx
    1139:	74 18                	je     1153 <.debug_info+0x1153>
    113b:	03 91 d8 7e 39 02    	add    0x2397ed8(%ecx),%edx
    1141:	74 1c                	je     115f <.debug_info+0x115f>
    1143:	03 91 e4 7e 00 00    	add    0x7ee4(%ecx),%edx
    1149:	00 3b                	add    %bh,(%ebx)
    114b:	6c                   	insb   (%dx),%es:(%edi)
    114c:	0b 00                	or     (%eax),%eax
    114e:	00 2f                	add    %ch,(%edi)
    1150:	1c 00                	sbb    $0x0,%al
    1152:	00 d8                	add    %bl,%al
    1154:	00 00                	add    %al,(%eax)
    1156:	00 01                	add    %al,(%ecx)
    1158:	34 05                	xor    $0x5,%al
    115a:	9b                   	fwait
    115b:	11 00                	adc    %eax,(%eax)
    115d:	00 3d 94 0b 00 00    	add    %bh,0xb94
    1163:	72 23                	jb     1188 <.debug_info+0x1188>
    1165:	00 00                	add    %al,(%eax)
    1167:	3d 88 0b 00 00       	cmp    $0xb88,%eax
    116c:	bb 23 00 00 3d       	mov    $0x3d000023,%ebx
    1171:	7d 0b                	jge    117e <.debug_info+0x117e>
    1173:	00 00                	add    %al,(%eax)
    1175:	14 24                	adc    $0x24,%al
    1177:	00 00                	add    %al,(%eax)
    1179:	3e d8 00             	fadds  %ds:(%eax)
    117c:	00 00                	add    %al,(%eax)
    117e:	3f                   	aas    
    117f:	a0 0b 00 00 7b       	mov    0x7b00000b,%al
    1184:	24 00                	and    $0x0,%al
    1186:	00 3f                	add    %bh,(%edi)
    1188:	aa                   	stos   %al,%es:(%edi)
    1189:	0b 00                	or     (%eax),%eax
    118b:	00 14 25 00 00 40 b4 	add    %dl,-0x4bc00000(,%eiz,1)
    1192:	0b 00                	or     (%eax),%eax
    1194:	00 03                	add    %al,(%ebx)
    1196:	91                   	xchg   %eax,%ecx
    1197:	e4 7e                	in     $0x7e,%al
    1199:	00 00                	add    %al,(%eax)
    119b:	3a 17                	cmp    (%edi),%dl
    119d:	00 00                	add    %al,(%eax)
    119f:	00 9e 16 00 00 b1    	add    %bl,-0x4effffea(%esi)
    11a5:	11 00                	adc    %eax,(%eax)
    11a7:	00 39                	add    %bh,(%ecx)
    11a9:	02 74 00 03          	add    0x3(%eax,%eax,1),%dh
    11ad:	91                   	xchg   %eax,%ecx
    11ae:	00 06                	add    %al,(%esi)
    11b0:	00 3a                	add    %bh,(%edx)
    11b2:	27                   	daa    
    11b3:	00 00                	add    %al,(%eax)
    11b5:	00 b9 16 00 00 c8    	add    %bh,-0x37ffffea(%ecx)
    11bb:	11 00                	adc    %eax,(%eax)
    11bd:	00 39                	add    %bh,(%ecx)
    11bf:	02 74 00 04          	add    0x4(%eax,%eax,1),%dh
    11c3:	91                   	xchg   %eax,%ecx
    11c4:	84 7e 06             	test   %bh,0x6(%esi)
    11c7:	00 3a                	add    %bh,(%edx)
    11c9:	9c                   	pushf  
    11ca:	01 00                	add    %eax,(%eax)
    11cc:	00 3f                	add    %bh,(%edi)
    11ce:	16                   	push   %ss
    11cf:	00 00                	add    %al,(%eax)
    11d1:	ee                   	out    %al,(%dx)
    11d2:	11 00                	adc    %eax,(%eax)
    11d4:	00 39                	add    %bh,(%ecx)
    11d6:	02 74 00 03          	add    0x3(%eax,%eax,1),%dh
    11da:	91                   	xchg   %eax,%ecx
    11db:	00 06                	add    %al,(%esi)
    11dd:	39 02                	cmp    %eax,(%edx)
    11df:	74 04                	je     11e5 <.debug_info+0x11e5>
    11e1:	03 91 04 06 39 02    	add    0x2390604(%ecx),%edx
    11e7:	74 08                	je     11f1 <.debug_info+0x11f1>
    11e9:	03 91 ec 7e 00 3a    	add    0x3a007eec(%ecx),%edx
    11ef:	ce                   	into   
    11f0:	01 00                	add    %eax,(%eax)
    11f2:	00 3f                	add    %bh,(%edi)
    11f4:	16                   	push   %ss
    11f5:	00 00                	add    %al,(%eax)
    11f7:	14 12                	adc    $0x12,%al
    11f9:	00 00                	add    %al,(%eax)
    11fb:	39 02                	cmp    %eax,(%edx)
    11fd:	74 00                	je     11ff <.debug_info+0x11ff>
    11ff:	03 91 00 06 39 02    	add    0x2390600(%ecx),%edx
    1205:	74 04                	je     120b <.debug_info+0x120b>
    1207:	03 91 04 06 39 02    	add    0x2390604(%ecx),%edx
    120d:	74 08                	je     1217 <.debug_info+0x1217>
    120f:	03 91 ec 7e 00 3a    	add    0x3a007eec(%ecx),%edx
    1215:	55                   	push   %ebp
    1216:	03 00                	add    (%eax),%eax
    1218:	00 3f                	add    %bh,(%edi)
    121a:	16                   	push   %ss
    121b:	00 00                	add    %al,(%eax)
    121d:	39 12                	cmp    %edx,(%edx)
    121f:	00 00                	add    %al,(%eax)
    1221:	39 02                	cmp    %eax,(%edx)
    1223:	74 00                	je     1225 <.debug_info+0x1225>
    1225:	03 91 00 06 39 02    	add    0x2390600(%ecx),%edx
    122b:	74 04                	je     1231 <.debug_info+0x1231>
    122d:	03 91 04 06 39 02    	add    0x2390604(%ecx),%edx
    1233:	74 08                	je     123d <.debug_info+0x123d>
    1235:	02 73 00             	add    0x0(%ebx),%dh
    1238:	00 3a                	add    %bh,(%edx)
    123a:	76 05                	jbe    1241 <.debug_info+0x1241>
    123c:	00 00                	add    %al,(%eax)
    123e:	ce                   	into   
    123f:	16                   	push   %ss
    1240:	00 00                	add    %al,(%eax)
    1242:	52                   	push   %edx
    1243:	12 00                	adc    (%eax),%al
    1245:	00 39                	add    %bh,(%ecx)
    1247:	02 74 00 06          	add    0x6(%eax,%eax,1),%dh
    124b:	91                   	xchg   %eax,%ecx
    124c:	88 7e f6             	mov    %bh,-0xa(%esi)
    124f:	08 25 00 3a f5 09    	or     %ah,0x9f53a00
    1255:	00 00                	add    %al,(%eax)
    1257:	3f                   	aas    
    1258:	16                   	push   %ss
    1259:	00 00                	add    %al,(%eax)
    125b:	77 12                	ja     126f <.debug_info+0x126f>
    125d:	00 00                	add    %al,(%eax)
    125f:	39 02                	cmp    %eax,(%edx)
    1261:	74 00                	je     1263 <.debug_info+0x1263>
    1263:	03 91 00 06 39 02    	add    0x2390600(%ecx),%edx
    1269:	74 04                	je     126f <.debug_info+0x126f>
    126b:	03 91 04 06 39 02    	add    0x2390604(%ecx),%edx
    1271:	74 08                	je     127b <.debug_info+0x127b>
    1273:	02 73 00             	add    0x0(%ebx),%dh
    1276:	00 3a                	add    %bh,(%edx)
    1278:	52                   	push   %edx
    1279:	0a 00                	or     (%eax),%al
    127b:	00 3f                	add    %bh,(%edi)
    127d:	16                   	push   %ss
    127e:	00 00                	add    %al,(%eax)
    1280:	9c                   	pushf  
    1281:	12 00                	adc    (%eax),%al
    1283:	00 39                	add    %bh,(%ecx)
    1285:	02 74 00 03          	add    0x3(%eax,%eax,1),%dh
    1289:	91                   	xchg   %eax,%ecx
    128a:	00 06                	add    %al,(%esi)
    128c:	39 02                	cmp    %eax,(%edx)
    128e:	74 04                	je     1294 <.debug_info+0x1294>
    1290:	03 91 04 06 39 02    	add    0x2390604(%ecx),%edx
    1296:	74 08                	je     12a0 <.debug_info+0x12a0>
    1298:	02 73 00             	add    0x0(%ebx),%dh
    129b:	00 3a                	add    %bh,(%edx)
    129d:	25 0b 00 00 3f       	and    $0x3f00000b,%eax
    12a2:	16                   	push   %ss
    12a3:	00 00                	add    %al,(%eax)
    12a5:	c1 12 00             	rcll   $0x0,(%edx)
    12a8:	00 39                	add    %bh,(%ecx)
    12aa:	02 74 00 03          	add    0x3(%eax,%eax,1),%dh
    12ae:	91                   	xchg   %eax,%ecx
    12af:	00 06                	add    %al,(%esi)
    12b1:	39 02                	cmp    %eax,(%edx)
    12b3:	74 04                	je     12b9 <.debug_info+0x12b9>
    12b5:	03 91 04 06 39 02    	add    0x2390604(%ecx),%edx
    12bb:	74 08                	je     12c5 <.debug_info+0x12c5>
    12bd:	02 73 00             	add    0x0(%ebx),%dh
    12c0:	00 3a                	add    %bh,(%edx)
    12c2:	7f 0b                	jg     12cf <.debug_info+0x12cf>
    12c4:	00 00                	add    %al,(%eax)
    12c6:	3f                   	aas    
    12c7:	16                   	push   %ss
    12c8:	00 00                	add    %al,(%eax)
    12ca:	e6 12                	out    %al,$0x12
    12cc:	00 00                	add    %al,(%eax)
    12ce:	39 02                	cmp    %eax,(%edx)
    12d0:	74 00                	je     12d2 <.debug_info+0x12d2>
    12d2:	03 91 00 06 39 02    	add    0x2390600(%ecx),%edx
    12d8:	74 04                	je     12de <.debug_info+0x12de>
    12da:	03 91 04 06 39 02    	add    0x2390604(%ecx),%edx
    12e0:	74 08                	je     12ea <.debug_info+0x12ea>
    12e2:	02 73 00             	add    0x0(%ebx),%dh
    12e5:	00 3a                	add    %bh,(%edx)
    12e7:	e1 0c                	loope  12f5 <.debug_info+0x12f5>
    12e9:	00 00                	add    %al,(%eax)
    12eb:	3f                   	aas    
    12ec:	16                   	push   %ss
    12ed:	00 00                	add    %al,(%eax)
    12ef:	0b 13                	or     (%ebx),%edx
    12f1:	00 00                	add    %al,(%eax)
    12f3:	39 02                	cmp    %eax,(%edx)
    12f5:	74 00                	je     12f7 <.debug_info+0x12f7>
    12f7:	03 91 00 06 39 02    	add    0x2390600(%ecx),%edx
    12fd:	74 04                	je     1303 <.debug_info+0x1303>
    12ff:	03 91 04 06 39 02    	add    0x2390604(%ecx),%edx
    1305:	74 08                	je     130f <.debug_info+0x130f>
    1307:	02 73 00             	add    0x0(%ebx),%dh
    130a:	00 3a                	add    %bh,(%edx)
    130c:	b5 0d                	mov    $0xd,%ch
    130e:	00 00                	add    %al,(%eax)
    1310:	3f                   	aas    
    1311:	16                   	push   %ss
    1312:	00 00                	add    %al,(%eax)
    1314:	30 13                	xor    %dl,(%ebx)
    1316:	00 00                	add    %al,(%eax)
    1318:	39 02                	cmp    %eax,(%edx)
    131a:	74 00                	je     131c <.debug_info+0x131c>
    131c:	03 91 00 06 39 02    	add    0x2390600(%ecx),%edx
    1322:	74 04                	je     1328 <.debug_info+0x1328>
    1324:	03 91 04 06 39 02    	add    0x2390604(%ecx),%edx
    132a:	74 08                	je     1334 <.debug_info+0x1334>
    132c:	02 73 00             	add    0x0(%ebx),%dh
    132f:	00 3a                	add    %bh,(%edx)
    1331:	16                   	push   %ss
    1332:	0e                   	push   %cs
    1333:	00 00                	add    %al,(%eax)
    1335:	3f                   	aas    
    1336:	16                   	push   %ss
    1337:	00 00                	add    %al,(%eax)
    1339:	55                   	push   %ebp
    133a:	13 00                	adc    (%eax),%eax
    133c:	00 39                	add    %bh,(%ecx)
    133e:	02 74 00 03          	add    0x3(%eax,%eax,1),%dh
    1342:	91                   	xchg   %eax,%ecx
    1343:	00 06                	add    %al,(%esi)
    1345:	39 02                	cmp    %eax,(%edx)
    1347:	74 04                	je     134d <.debug_info+0x134d>
    1349:	03 91 04 06 39 02    	add    0x2390604(%ecx),%edx
    134f:	74 08                	je     1359 <.debug_info+0x1359>
    1351:	02 73 00             	add    0x0(%ebx),%dh
    1354:	00 3a                	add    %bh,(%edx)
    1356:	2f                   	das    
    1357:	0f 00 00             	sldt   (%eax)
    135a:	3f                   	aas    
    135b:	16                   	push   %ss
    135c:	00 00                	add    %al,(%eax)
    135e:	7b 13                	jnp    1373 <.debug_info+0x1373>
    1360:	00 00                	add    %al,(%eax)
    1362:	39 02                	cmp    %eax,(%edx)
    1364:	74 00                	je     1366 <.debug_info+0x1366>
    1366:	03 91 00 06 39 02    	add    0x2390600(%ecx),%edx
    136c:	74 04                	je     1372 <.debug_info+0x1372>
    136e:	03 91 04 06 39 02    	add    0x2390604(%ecx),%edx
    1374:	74 08                	je     137e <.debug_info+0x137e>
    1376:	03 91 ec 7e 00 3a    	add    0x3a007eec(%ecx),%edx
    137c:	64 0f 00 00          	sldt   %fs:(%eax)
    1380:	3f                   	aas    
    1381:	16                   	push   %ss
    1382:	00 00                	add    %al,(%eax)
    1384:	a1 13 00 00 39       	mov    0x39000013,%eax
    1389:	02 74 00 03          	add    0x3(%eax,%eax,1),%dh
    138d:	91                   	xchg   %eax,%ecx
    138e:	00 06                	add    %al,(%esi)
    1390:	39 02                	cmp    %eax,(%edx)
    1392:	74 04                	je     1398 <.debug_info+0x1398>
    1394:	03 91 04 06 39 02    	add    0x2390604(%ecx),%edx
    139a:	74 08                	je     13a4 <.debug_info+0x13a4>
    139c:	03 91 ec 7e 00 3a    	add    0x3a007eec(%ecx),%edx
    13a2:	94                   	xchg   %eax,%esp
    13a3:	0f 00 00             	sldt   (%eax)
    13a6:	3f                   	aas    
    13a7:	16                   	push   %ss
    13a8:	00 00                	add    %al,(%eax)
    13aa:	c7                   	(bad)  
    13ab:	13 00                	adc    (%eax),%eax
    13ad:	00 39                	add    %bh,(%ecx)
    13af:	02 74 00 03          	add    0x3(%eax,%eax,1),%dh
    13b3:	91                   	xchg   %eax,%ecx
    13b4:	00 06                	add    %al,(%esi)
    13b6:	39 02                	cmp    %eax,(%edx)
    13b8:	74 04                	je     13be <.debug_info+0x13be>
    13ba:	03 91 04 06 39 02    	add    0x2390604(%ecx),%edx
    13c0:	74 08                	je     13ca <.debug_info+0x13ca>
    13c2:	03 91 ec 7e 00 3a    	add    0x3a007eec(%ecx),%edx
    13c8:	cc                   	int3   
    13c9:	0f 00 00             	sldt   (%eax)
    13cc:	3f                   	aas    
    13cd:	16                   	push   %ss
    13ce:	00 00                	add    %al,(%eax)
    13d0:	ed                   	in     (%dx),%eax
    13d1:	13 00                	adc    (%eax),%eax
    13d3:	00 39                	add    %bh,(%ecx)
    13d5:	02 74 00 03          	add    0x3(%eax,%eax,1),%dh
    13d9:	91                   	xchg   %eax,%ecx
    13da:	00 06                	add    %al,(%esi)
    13dc:	39 02                	cmp    %eax,(%edx)
    13de:	74 04                	je     13e4 <.debug_info+0x13e4>
    13e0:	03 91 04 06 39 02    	add    0x2390604(%ecx),%edx
    13e6:	74 08                	je     13f0 <.debug_info+0x13f0>
    13e8:	03 91 ec 7e 00 3a    	add    0x3a007eec(%ecx),%edx
    13ee:	c9                   	leave  
    13ef:	11 00                	adc    %eax,(%eax)
    13f1:	00 3f                	add    %bh,(%edi)
    13f3:	16                   	push   %ss
    13f4:	00 00                	add    %al,(%eax)
    13f6:	12 14 00             	adc    (%eax,%eax,1),%dl
    13f9:	00 39                	add    %bh,(%ecx)
    13fb:	02 74 00 03          	add    0x3(%eax,%eax,1),%dh
    13ff:	91                   	xchg   %eax,%ecx
    1400:	00 06                	add    %al,(%esi)
    1402:	39 02                	cmp    %eax,(%edx)
    1404:	74 04                	je     140a <.debug_info+0x140a>
    1406:	03 91 04 06 39 02    	add    0x2390604(%ecx),%edx
    140c:	74 08                	je     1416 <.debug_info+0x1416>
    140e:	02 73 00             	add    0x0(%ebx),%dh
    1411:	00 3a                	add    %bh,(%edx)
    1413:	4d                   	dec    %ebp
    1414:	12 00                	adc    (%eax),%al
    1416:	00 3f                	add    %bh,(%edi)
    1418:	16                   	push   %ss
    1419:	00 00                	add    %al,(%eax)
    141b:	37                   	aaa    
    141c:	14 00                	adc    $0x0,%al
    141e:	00 39                	add    %bh,(%ecx)
    1420:	02 74 00 03          	add    0x3(%eax,%eax,1),%dh
    1424:	91                   	xchg   %eax,%ecx
    1425:	00 06                	add    %al,(%esi)
    1427:	39 02                	cmp    %eax,(%edx)
    1429:	74 04                	je     142f <.debug_info+0x142f>
    142b:	03 91 04 06 39 02    	add    0x2390604(%ecx),%edx
    1431:	74 08                	je     143b <.debug_info+0x143b>
    1433:	02 73 00             	add    0x0(%ebx),%dh
    1436:	00 3a                	add    %bh,(%edx)
    1438:	75 14                	jne    144e <.debug_info+0x144e>
    143a:	00 00                	add    %al,(%eax)
    143c:	3f                   	aas    
    143d:	16                   	push   %ss
    143e:	00 00                	add    %al,(%eax)
    1440:	5d                   	pop    %ebp
    1441:	14 00                	adc    $0x0,%al
    1443:	00 39                	add    %bh,(%ecx)
    1445:	02 74 00 03          	add    0x3(%eax,%eax,1),%dh
    1449:	91                   	xchg   %eax,%ecx
    144a:	00 06                	add    %al,(%esi)
    144c:	39 02                	cmp    %eax,(%edx)
    144e:	74 04                	je     1454 <.debug_info+0x1454>
    1450:	03 91 04 06 39 02    	add    0x2390604(%ecx),%edx
    1456:	74 08                	je     1460 <.debug_info+0x1460>
    1458:	03 91 ec 7e 00 3a    	add    0x3a007eec(%ecx),%edx
    145e:	ad                   	lods   %ds:(%esi),%eax
    145f:	14 00                	adc    $0x0,%al
    1461:	00 3f                	add    %bh,(%edi)
    1463:	16                   	push   %ss
    1464:	00 00                	add    %al,(%eax)
    1466:	83 14 00 00          	adcl   $0x0,(%eax,%eax,1)
    146a:	39 02                	cmp    %eax,(%edx)
    146c:	74 00                	je     146e <.debug_info+0x146e>
    146e:	03 91 00 06 39 02    	add    0x2390600(%ecx),%edx
    1474:	74 04                	je     147a <.debug_info+0x147a>
    1476:	03 91 04 06 39 02    	add    0x2390604(%ecx),%edx
    147c:	74 08                	je     1486 <.debug_info+0x1486>
    147e:	03 91 ec 7e 00 3a    	add    0x3a007eec(%ecx),%edx
    1484:	e5 14                	in     $0x14,%eax
    1486:	00 00                	add    %al,(%eax)
    1488:	3f                   	aas    
    1489:	16                   	push   %ss
    148a:	00 00                	add    %al,(%eax)
    148c:	a9 14 00 00 39       	test   $0x39000014,%eax
    1491:	02 74 00 03          	add    0x3(%eax,%eax,1),%dh
    1495:	91                   	xchg   %eax,%ecx
    1496:	00 06                	add    %al,(%esi)
    1498:	39 02                	cmp    %eax,(%edx)
    149a:	74 04                	je     14a0 <.debug_info+0x14a0>
    149c:	03 91 04 06 39 02    	add    0x2390604(%ecx),%edx
    14a2:	74 08                	je     14ac <.debug_info+0x14ac>
    14a4:	03 91 ec 7e 00 3a    	add    0x3a007eec(%ecx),%edx
    14aa:	0f 15 00             	unpckhps (%eax),%xmm0
    14ad:	00 ce                	add    %cl,%dh
    14af:	16                   	push   %ss
    14b0:	00 00                	add    %al,(%eax)
    14b2:	c2 14 00             	ret    $0x14
    14b5:	00 39                	add    %bh,(%ecx)
    14b7:	02 74 00 06          	add    0x6(%eax,%eax,1),%dh
    14bb:	91                   	xchg   %eax,%ecx
    14bc:	88 7e f6             	mov    %bh,-0xa(%esi)
    14bf:	08 25 00 3a 9e 15    	or     %ah,0x159e3a00
    14c5:	00 00                	add    %al,(%eax)
    14c7:	3f                   	aas    
    14c8:	16                   	push   %ss
    14c9:	00 00                	add    %al,(%eax)
    14cb:	e8 14 00 00 39       	call   390014e4 <blanks.3938+0x39001370>
    14d0:	02 74 00 03          	add    0x3(%eax,%eax,1),%dh
    14d4:	91                   	xchg   %eax,%ecx
    14d5:	00 06                	add    %al,(%esi)
    14d7:	39 02                	cmp    %eax,(%edx)
    14d9:	74 04                	je     14df <.debug_info+0x14df>
    14db:	03 91 04 06 39 02    	add    0x2390604(%ecx),%edx
    14e1:	74 08                	je     14eb <.debug_info+0x14eb>
    14e3:	03 91 ec 7e 00 3a    	add    0x3a007eec(%ecx),%edx
    14e9:	a1 16 00 00 3f       	mov    0x3f000016,%eax
    14ee:	16                   	push   %ss
    14ef:	00 00                	add    %al,(%eax)
    14f1:	0d 15 00 00 39       	or     $0x39000015,%eax
    14f6:	02 74 00 03          	add    0x3(%eax,%eax,1),%dh
    14fa:	91                   	xchg   %eax,%ecx
    14fb:	00 06                	add    %al,(%esi)
    14fd:	39 02                	cmp    %eax,(%edx)
    14ff:	74 04                	je     1505 <.debug_info+0x1505>
    1501:	03 91 04 06 39 02    	add    0x2390604(%ecx),%edx
    1507:	74 08                	je     1511 <.debug_info+0x1511>
    1509:	02 76 00             	add    0x0(%esi),%dh
    150c:	00 3a                	add    %bh,(%edx)
    150e:	67 18 00             	sbb    %al,(%bx,%si)
    1511:	00 3f                	add    %bh,(%edi)
    1513:	16                   	push   %ss
    1514:	00 00                	add    %al,(%eax)
    1516:	33 15 00 00 39 02    	xor    0x2390000,%edx
    151c:	74 00                	je     151e <.debug_info+0x151e>
    151e:	03 91 00 06 39 02    	add    0x2390600(%ecx),%edx
    1524:	74 04                	je     152a <.debug_info+0x152a>
    1526:	03 91 04 06 39 02    	add    0x2390604(%ecx),%edx
    152c:	74 08                	je     1536 <.debug_info+0x1536>
    152e:	03 91 ec 7e 00 3a    	add    0x3a007eec(%ecx),%edx
    1534:	b6 18                	mov    $0x18,%dh
    1536:	00 00                	add    %al,(%eax)
    1538:	e3 16                	jecxz  1550 <.debug_info+0x1550>
    153a:	00 00                	add    %al,(%eax)
    153c:	50                   	push   %eax
    153d:	15 00 00 39 02       	adc    $0x2390000,%eax
    1542:	74 00                	je     1544 <.debug_info+0x1544>
    1544:	03 91 00 06 39 02    	add    0x2390600(%ecx),%edx
    154a:	74 04                	je     1550 <.debug_info+0x1550>
    154c:	02 08                	add    (%eax),%cl
    154e:	40                   	inc    %eax
    154f:	00 3a                	add    %bh,(%edx)
    1551:	f1                   	icebp  
    1552:	18 00                	sbb    %al,(%eax)
    1554:	00 3f                	add    %bh,(%edi)
    1556:	16                   	push   %ss
    1557:	00 00                	add    %al,(%eax)
    1559:	76 15                	jbe    1570 <.debug_info+0x1570>
    155b:	00 00                	add    %al,(%eax)
    155d:	39 02                	cmp    %eax,(%edx)
    155f:	74 00                	je     1561 <.debug_info+0x1561>
    1561:	03 91 00 06 39 02    	add    0x2390600(%ecx),%edx
    1567:	74 04                	je     156d <.debug_info+0x156d>
    1569:	03 91 04 06 39 02    	add    0x2390604(%ecx),%edx
    156f:	74 08                	je     1579 <.debug_info+0x1579>
    1571:	03 91 ec 7e 00 3a    	add    0x3a007eec(%ecx),%edx
    1577:	4b                   	dec    %ebx
    1578:	19 00                	sbb    %eax,(%eax)
    157a:	00 3f                	add    %bh,(%edi)
    157c:	16                   	push   %ss
    157d:	00 00                	add    %al,(%eax)
    157f:	9c                   	pushf  
    1580:	15 00 00 39 02       	adc    $0x2390000,%eax
    1585:	74 00                	je     1587 <.debug_info+0x1587>
    1587:	03 91 00 06 39 02    	add    0x2390600(%ecx),%edx
    158d:	74 04                	je     1593 <.debug_info+0x1593>
    158f:	03 91 04 06 39 02    	add    0x2390604(%ecx),%edx
    1595:	74 08                	je     159f <.debug_info+0x159f>
    1597:	03 91 ec 7e 00 3a    	add    0x3a007eec(%ecx),%edx
    159d:	b3 19                	mov    $0x19,%bl
    159f:	00 00                	add    %al,(%eax)
    15a1:	3f                   	aas    
    15a2:	16                   	push   %ss
    15a3:	00 00                	add    %al,(%eax)
    15a5:	c2 15 00             	ret    $0x15
    15a8:	00 39                	add    %bh,(%ecx)
    15aa:	02 74 00 03          	add    0x3(%eax,%eax,1),%dh
    15ae:	91                   	xchg   %eax,%ecx
    15af:	00 06                	add    %al,(%esi)
    15b1:	39 02                	cmp    %eax,(%edx)
    15b3:	74 04                	je     15b9 <.debug_info+0x15b9>
    15b5:	03 91 04 06 39 02    	add    0x2390604(%ecx),%edx
    15bb:	74 08                	je     15c5 <.debug_info+0x15c5>
    15bd:	03 91 ec 7e 00 38    	add    0x38007eec(%ecx),%edx
    15c3:	f2 19 00             	repnz sbb %eax,(%eax)
    15c6:	00 b9 16 00 00 39    	add    %bh,0x39000016(%ecx)
    15cc:	02 74 00 04          	add    0x4(%eax,%eax,1),%dh
    15d0:	91                   	xchg   %eax,%ecx
    15d1:	a0 7e 06 00 00       	mov    0x67e,%al
    15d6:	08 dc                	or     %bl,%ah
    15d8:	08 00                	or     %al,(%eax)
    15da:	00 e6                	add    %ah,%dh
    15dc:	15 00 00 09 f3       	adc    $0xf3090000,%eax
    15e1:	00 00                	add    %al,(%eax)
    15e3:	00 07                	add    %al,(%edi)
    15e5:	00 08                	add    %cl,(%eax)
    15e7:	83 05 00 00 f6 15 00 	addl   $0x0,0x15f60000
    15ee:	00 09                	add    %cl,(%ecx)
    15f0:	f3 00 00             	repz add %al,(%eax)
    15f3:	00 27                	add    %ah,(%edi)
    15f5:	00 08                	add    %cl,(%eax)
    15f7:	83 05 00 00 06 16 00 	addl   $0x0,0x16060000
    15fe:	00 09                	add    %cl,(%ecx)
    1600:	f3 00 00             	repz add %al,(%eax)
    1603:	00 01                	add    %al,(%ecx)
    1605:	00 08                	add    %cl,(%eax)
    1607:	83 05 00 00 16 16 00 	addl   $0x0,0x16160000
    160e:	00 09                	add    %cl,(%ecx)
    1610:	f3 00 00             	repz add %al,(%eax)
    1613:	00 0f                	add    %cl,(%edi)
    1615:	00 18                	add    %bl,(%eax)
    1617:	06                   	push   %es
    1618:	16                   	push   %ss
    1619:	00 00                	add    %al,(%eax)
    161b:	18 06                	sbb    %al,(%esi)
    161d:	16                   	push   %ss
    161e:	00 00                	add    %al,(%eax)
    1620:	42                   	inc    %edx
    1621:	ee                   	out    %al,(%dx)
    1622:	02 00                	add    (%eax),%al
    1624:	00 0d 15 31 01 00    	add    %cl,0x13115
    162a:	00 3f                	add    %bh,(%edi)
    162c:	16                   	push   %ss
    162d:	00 00                	add    %al,(%eax)
    162f:	14 bf                	adc    $0xbf,%al
    1631:	08 00                	or     %al,(%eax)
    1633:	00 14 2c             	add    %dl,(%esp,%ebp,1)
    1636:	00 00                	add    %al,(%eax)
    1638:	00 14 33             	add    %dl,(%ebx,%esi,1)
    163b:	00 00                	add    %al,(%eax)
    163d:	00 00                	add    %al,(%eax)
    163f:	43                   	inc    %ebx
    1640:	30 00                	xor    %al,(%eax)
    1642:	00 00                	add    %al,(%eax)
    1644:	01 6c 01 2c          	add    %ebp,0x2c(%ecx,%eax,1)
    1648:	00 00                	add    %al,(%eax)
    164a:	00 5f 16             	add    %bl,0x16(%edi)
    164d:	00 00                	add    %al,(%eax)
    164f:	14 45                	adc    $0x45,%al
    1651:	04 00                	add    $0x0,%al
    1653:	00 14 64             	add    %dl,(%esp,%eiz,2)
    1656:	06                   	push   %es
    1657:	00 00                	add    %al,(%eax)
    1659:	14 5f                	adc    $0x5f,%al
    165b:	16                   	push   %ss
    165c:	00 00                	add    %al,(%eax)
    165e:	00 0f                	add    %cl,(%edi)
    1660:	04 01                	add    $0x1,%al
    1662:	09 00                	or     %eax,(%eax)
    1664:	00 42 e1             	add    %al,-0x1f(%edx)
    1667:	04 00                	add    $0x0,%al
    1669:	00 0e                	add    %cl,(%esi)
    166b:	dd 7d 05             	fnstsw 0x5(%ebp)
    166e:	00 00                	add    %al,(%eax)
    1670:	98                   	cwtl   
    1671:	16                   	push   %ss
    1672:	00 00                	add    %al,(%eax)
    1674:	14 45                	adc    $0x45,%al
    1676:	04 00                	add    $0x0,%al
    1678:	00 14 25 00 00 00 14 	add    %dl,0x14000000(,%eiz,1)
    167f:	2c 00                	sub    $0x0,%al
    1681:	00 00                	add    %al,(%eax)
    1683:	14 2c                	adc    $0x2c,%al
    1685:	00 00                	add    %al,(%eax)
    1687:	00 14 a2             	add    %dl,(%edx,%eiz,4)
    168a:	0a 00                	or     (%eax),%al
    168c:	00 14 a2             	add    %dl,(%edx,%eiz,4)
    168f:	0a 00                	or     (%eax),%al
    1691:	00 14 98             	add    %dl,(%eax,%ebx,4)
    1694:	16                   	push   %ss
    1695:	00 00                	add    %al,(%eax)
    1697:	00 0f                	add    %cl,(%edi)
    1699:	04 7d                	add    $0x7d,%al
    169b:	05 00 00 42 89       	add    $0x89420000,%eax
    16a0:	05 00 00 0c 3c       	add    $0x3c0c0000,%eax
    16a5:	b3 16                	mov    $0x16,%bl
    16a7:	00 00                	add    %al,(%eax)
    16a9:	b3 16                	mov    $0x16,%bl
    16ab:	00 00                	add    %al,(%eax)
    16ad:	14 45                	adc    $0x45,%al
    16af:	04 00                	add    $0x0,%al
    16b1:	00 00                	add    %al,(%eax)
    16b3:	0f 04                	(bad)  
    16b5:	75 09                	jne    16c0 <.debug_info+0x16c0>
    16b7:	00 00                	add    %al,(%eax)
    16b9:	42                   	inc    %edx
    16ba:	0e                   	push   %cs
    16bb:	00 00                	add    %al,(%eax)
    16bd:	00 0d 21 33 00 00    	add    %cl,0x3321
    16c3:	00 ce                	add    %cl,%dh
    16c5:	16                   	push   %ss
    16c6:	00 00                	add    %al,(%eax)
    16c8:	14 ae                	adc    $0xae,%al
    16ca:	05 00 00 00 42       	add    $0x42000000,%eax
    16cf:	ea 06 00 00 0f cb 2c 	ljmp   $0x2ccb,$0xf000006
    16d6:	00 00                	add    %al,(%eax)
    16d8:	00 e3                	add    %ah,%bl
    16da:	16                   	push   %ss
    16db:	00 00                	add    %al,(%eax)
    16dd:	14 25                	adc    $0x25,%al
    16df:	00 00                	add    %al,(%eax)
    16e1:	00 00                	add    %al,(%eax)
    16e3:	44                   	inc    %esp
    16e4:	f5                   	cmc    
    16e5:	02 00                	add    (%eax),%al
    16e7:	00 0e                	add    %cl,(%esi)
    16e9:	df 31                	fbstp  (%ecx)
    16eb:	01 00                	add    %eax,(%eax)
    16ed:	00 14 45 04 00 00 14 	add    %dl,0x14000004(,%eax,2)
    16f4:	33 00                	xor    (%eax),%eax
    16f6:	00 00                	add    %al,(%eax)
	...

Disassembly of section .debug_abbrev:

00000000 <.debug_abbrev>:
   0:	01 11                	add    %edx,(%ecx)
   2:	01 25 0e 13 0b 03    	add    %esp,0x30b130e
   8:	0e                   	push   %cs
   9:	1b 0e                	sbb    (%esi),%ecx
   b:	11 01                	adc    %eax,(%ecx)
   d:	12 06                	adc    (%esi),%al
   f:	10 17                	adc    %dl,(%edi)
  11:	00 00                	add    %al,(%eax)
  13:	02 24 00             	add    (%eax,%eax,1),%ah
  16:	0b 0b                	or     (%ebx),%ecx
  18:	3e 0b 03             	or     %ds:(%ebx),%eax
  1b:	0e                   	push   %cs
  1c:	00 00                	add    %al,(%eax)
  1e:	03 24 00             	add    (%eax,%eax,1),%esp
  21:	0b 0b                	or     (%ebx),%ecx
  23:	3e 0b 03             	or     %ds:(%ebx),%eax
  26:	08 00                	or     %al,(%eax)
  28:	00 04 16             	add    %al,(%esi,%edx,1)
  2b:	00 03                	add    %al,(%ebx)
  2d:	0e                   	push   %cs
  2e:	3a 0b                	cmp    (%ebx),%cl
  30:	3b 0b                	cmp    (%ebx),%ecx
  32:	49                   	dec    %ecx
  33:	13 00                	adc    (%eax),%eax
  35:	00 05 16 00 03 0e    	add    %al,0xe030016
  3b:	3a 0b                	cmp    (%ebx),%cl
  3d:	3b 05 49 13 00 00    	cmp    0x1349,%eax
  43:	06                   	push   %es
  44:	17                   	pop    %ss
  45:	01 0b                	add    %ecx,(%ebx)
  47:	0b 3a                	or     (%edx),%edi
  49:	0b 3b                	or     (%ebx),%edi
  4b:	0b 01                	or     (%ecx),%eax
  4d:	13 00                	adc    (%eax),%eax
  4f:	00 07                	add    %al,(%edi)
  51:	0d 00 03 0e 3a       	or     $0x3a0e0300,%eax
  56:	0b 3b                	or     (%ebx),%edi
  58:	0b 49 13             	or     0x13(%ecx),%ecx
  5b:	00 00                	add    %al,(%eax)
  5d:	08 01                	or     %al,(%ecx)
  5f:	01 49 13             	add    %ecx,0x13(%ecx)
  62:	01 13                	add    %edx,(%ebx)
  64:	00 00                	add    %al,(%eax)
  66:	09 21                	or     %esp,(%ecx)
  68:	00 49 13             	add    %cl,0x13(%ecx)
  6b:	2f                   	das    
  6c:	0b 00                	or     (%eax),%eax
  6e:	00 0a                	add    %cl,(%edx)
  70:	13 01                	adc    (%ecx),%eax
  72:	0b 0b                	or     (%ebx),%ecx
  74:	3a 0b                	cmp    (%ebx),%cl
  76:	3b 0b                	cmp    (%ebx),%ecx
  78:	01 13                	add    %edx,(%ebx)
  7a:	00 00                	add    %al,(%eax)
  7c:	0b 0d 00 03 0e 3a    	or     0x3a0e0300,%ecx
  82:	0b 3b                	or     (%ebx),%edi
  84:	0b 49 13             	or     0x13(%ecx),%ecx
  87:	38 0b                	cmp    %cl,(%ebx)
  89:	00 00                	add    %al,(%eax)
  8b:	0c 0f                	or     $0xf,%al
  8d:	00 0b                	add    %cl,(%ebx)
  8f:	0b 00                	or     (%eax),%eax
  91:	00 0d 13 01 03 0e    	add    %cl,0xe030113
  97:	0b 0b                	or     (%ebx),%ecx
  99:	3a 0b                	cmp    (%ebx),%cl
  9b:	3b 0b                	cmp    (%ebx),%ecx
  9d:	01 13                	add    %edx,(%ebx)
  9f:	00 00                	add    %al,(%eax)
  a1:	0e                   	push   %cs
  a2:	0d 00 03 08 3a       	or     $0x3a080300,%eax
  a7:	0b 3b                	or     (%ebx),%edi
  a9:	0b 49 13             	or     0x13(%ecx),%ecx
  ac:	38 0b                	cmp    %cl,(%ebx)
  ae:	00 00                	add    %al,(%eax)
  b0:	0f                   	(bad)  
  b1:	0f 00 0b             	str    (%ebx)
  b4:	0b 49 13             	or     0x13(%ecx),%ecx
  b7:	00 00                	add    %al,(%eax)
  b9:	10 13                	adc    %dl,(%ebx)
  bb:	01 03                	add    %eax,(%ebx)
  bd:	0e                   	push   %cs
  be:	0b 05 3a 0b 3b 0b    	or     0xb3b0b3a,%eax
  c4:	01 13                	add    %edx,(%ebx)
  c6:	00 00                	add    %al,(%eax)
  c8:	11 0d 00 03 0e 3a    	adc    %ecx,0x3a0e0300
  ce:	0b 3b                	or     (%ebx),%edi
  d0:	0b 49 13             	or     0x13(%ecx),%ecx
  d3:	38 05 00 00 12 15    	cmp    %al,0x15120000
  d9:	00 27                	add    %ah,(%edi)
  db:	19 00                	sbb    %eax,(%eax)
  dd:	00 13                	add    %dl,(%ebx)
  df:	15 01 27 19 49       	adc    $0x49192701,%eax
  e4:	13 01                	adc    (%ecx),%eax
  e6:	13 00                	adc    (%eax),%eax
  e8:	00 14 05 00 49 13 00 	add    %dl,0x134900(,%eax,1)
  ef:	00 15 13 01 03 0e    	add    %dl,0xe030113
  f5:	0b 05 3a 0b 3b 05    	or     0x53b0b3a,%eax
  fb:	01 13                	add    %edx,(%ebx)
  fd:	00 00                	add    %al,(%eax)
  ff:	16                   	push   %ss
 100:	0d 00 03 0e 3a       	or     $0x3a0e0300,%eax
 105:	0b 3b                	or     (%ebx),%edi
 107:	05 49 13 38 0b       	add    $0xb381349,%eax
 10c:	00 00                	add    %al,(%eax)
 10e:	17                   	pop    %ss
 10f:	0d 00 03 0e 3a       	or     $0x3a0e0300,%eax
 114:	0b 3b                	or     (%ebx),%edi
 116:	05 49 13 38 05       	add    $0x5381349,%eax
 11b:	00 00                	add    %al,(%eax)
 11d:	18 26                	sbb    %ah,(%esi)
 11f:	00 49 13             	add    %cl,0x13(%ecx)
 122:	00 00                	add    %al,(%eax)
 124:	19 13                	sbb    %edx,(%ebx)
 126:	01 03                	add    %eax,(%ebx)
 128:	0e                   	push   %cs
 129:	0b 0b                	or     (%ebx),%ecx
 12b:	3a 0b                	cmp    (%ebx),%cl
 12d:	3b 05 01 13 00 00    	cmp    0x1301,%eax
 133:	1a 13                	sbb    (%ebx),%dl
 135:	01 0b                	add    %ecx,(%ebx)
 137:	0b 3a                	or     (%edx),%edi
 139:	0b 3b                	or     (%ebx),%edi
 13b:	05 01 13 00 00       	add    $0x1301,%eax
 140:	1b 17                	sbb    (%edi),%edx
 142:	01 0b                	add    %ecx,(%ebx)
 144:	0b 3a                	or     (%edx),%edi
 146:	0b 3b                	or     (%ebx),%edi
 148:	05 01 13 00 00       	add    $0x1301,%eax
 14d:	1c 0d                	sbb    $0xd,%al
 14f:	00 03                	add    %al,(%ebx)
 151:	0e                   	push   %cs
 152:	3a 0b                	cmp    (%ebx),%cl
 154:	3b 05 49 13 00 00    	cmp    0x1349,%eax
 15a:	1d 15 01 27 19       	sbb    $0x19270115,%eax
 15f:	01 13                	add    %edx,(%ebx)
 161:	00 00                	add    %al,(%eax)
 163:	1e                   	push   %ds
 164:	0f 00 0b             	str    (%ebx)
 167:	0b 03                	or     (%ebx),%eax
 169:	0e                   	push   %cs
 16a:	49                   	dec    %ecx
 16b:	13 00                	adc    (%eax),%eax
 16d:	00 1f                	add    %bl,(%edi)
 16f:	26 00 00             	add    %al,%es:(%eax)
 172:	00 20                	add    %ah,(%eax)
 174:	17                   	pop    %ss
 175:	01 03                	add    %eax,(%ebx)
 177:	0e                   	push   %cs
 178:	0b 0b                	or     (%ebx),%ecx
 17a:	3a 0b                	cmp    (%ebx),%cl
 17c:	3b 0b                	cmp    (%ebx),%ecx
 17e:	01 13                	add    %edx,(%ebx)
 180:	00 00                	add    %al,(%eax)
 182:	21 0d 00 03 08 3a    	and    %ecx,0x3a080300
 188:	0b 3b                	or     (%ebx),%edi
 18a:	0b 49 13             	or     0x13(%ecx),%ecx
 18d:	00 00                	add    %al,(%eax)
 18f:	22 2e                	and    (%esi),%ch
 191:	01 03                	add    %eax,(%ebx)
 193:	08 3a                	or     %bh,(%edx)
 195:	0b 3b                	or     (%ebx),%edi
 197:	05 27 19 49 13       	add    $0x13491927,%eax
 19c:	20 0b                	and    %cl,(%ebx)
 19e:	01 13                	add    %edx,(%ebx)
 1a0:	00 00                	add    %al,(%eax)
 1a2:	23 05 00 03 0e 3a    	and    0x3a0e0300,%eax
 1a8:	0b 3b                	or     (%ebx),%edi
 1aa:	05 49 13 00 00       	add    $0x1349,%eax
 1af:	24 05                	and    $0x5,%al
 1b1:	00 03                	add    %al,(%ebx)
 1b3:	08 3a                	or     %bh,(%edx)
 1b5:	0b 3b                	or     (%ebx),%edi
 1b7:	05 49 13 00 00       	add    $0x1349,%eax
 1bc:	25 34 00 03 0e       	and    $0xe030034,%eax
 1c1:	3a 0b                	cmp    (%ebx),%cl
 1c3:	3b 05 49 13 00 00    	cmp    0x1349,%eax
 1c9:	26 34 00             	es xor $0x0,%al
 1cc:	03 08                	add    (%eax),%ecx
 1ce:	3a 0b                	cmp    (%ebx),%cl
 1d0:	3b 05 49 13 00 00    	cmp    0x1349,%eax
 1d6:	27                   	daa    
 1d7:	2e 01 03             	add    %eax,%cs:(%ebx)
 1da:	0e                   	push   %cs
 1db:	3a 0b                	cmp    (%ebx),%cl
 1dd:	3b 05 27 19 49 13    	cmp    0x13491927,%eax
 1e3:	20 0b                	and    %cl,(%ebx)
 1e5:	01 13                	add    %edx,(%ebx)
 1e7:	00 00                	add    %al,(%eax)
 1e9:	28 2e                	sub    %ch,(%esi)
 1eb:	01 3f                	add    %edi,(%edi)
 1ed:	19 03                	sbb    %eax,(%ebx)
 1ef:	0e                   	push   %cs
 1f0:	3a 0b                	cmp    (%ebx),%cl
 1f2:	3b 05 27 19 49 13    	cmp    0x13491927,%eax
 1f8:	11 01                	adc    %eax,(%ecx)
 1fa:	12 06                	adc    (%esi),%al
 1fc:	40                   	inc    %eax
 1fd:	18 97 42 19 01 13    	sbb    %dl,0x13011942(%edi)
 203:	00 00                	add    %al,(%eax)
 205:	29 05 00 03 0e 3a    	sub    %eax,0x3a0e0300
 20b:	0b 3b                	or     (%ebx),%edi
 20d:	05 49 13 02 18       	add    $0x18021349,%eax
 212:	00 00                	add    %al,(%eax)
 214:	2a 05 00 03 08 3a    	sub    0x3a080300,%al
 21a:	0b 3b                	or     (%ebx),%edi
 21c:	05 49 13 02 18       	add    $0x18021349,%eax
 221:	00 00                	add    %al,(%eax)
 223:	2b 05 00 03 08 3a    	sub    0x3a080300,%eax
 229:	0b 3b                	or     (%ebx),%edi
 22b:	05 49 13 02 17       	add    $0x17021349,%eax
 230:	00 00                	add    %al,(%eax)
 232:	2c 34                	sub    $0x34,%al
 234:	00 03                	add    %al,(%ebx)
 236:	08 3a                	or     %bh,(%edx)
 238:	0b 3b                	or     (%ebx),%edi
 23a:	05 49 13 02 17       	add    $0x17021349,%eax
 23f:	00 00                	add    %al,(%eax)
 241:	2d 34 00 03 0e       	sub    $0xe030034,%eax
 246:	3a 0b                	cmp    (%ebx),%cl
 248:	3b 05 49 13 02 17    	cmp    0x17021349,%eax
 24e:	00 00                	add    %al,(%eax)
 250:	2e 34 00             	cs xor $0x0,%al
 253:	03 0e                	add    (%esi),%ecx
 255:	3a 0b                	cmp    (%ebx),%cl
 257:	3b 05 49 13 02 18    	cmp    0x18021349,%eax
 25d:	00 00                	add    %al,(%eax)
 25f:	2f                   	das    
 260:	0d 00 03 08 3a       	or     $0x3a080300,%eax
 265:	0b 3b                	or     (%ebx),%edi
 267:	05 49 13 00 00       	add    $0x1349,%eax
 26c:	30 04 01             	xor    %al,(%ecx,%eax,1)
 26f:	0b 0b                	or     (%ebx),%ecx
 271:	3a 0b                	cmp    (%ebx),%cl
 273:	3b 05 01 13 00 00    	cmp    0x1301,%eax
 279:	31 28                	xor    %ebp,(%eax)
 27b:	00 03                	add    %al,(%ebx)
 27d:	08 1c 0d 00 00 32 34 	or     %bl,0x34320000(,%ecx,1)
 284:	00 03                	add    %al,(%ebx)
 286:	08 3a                	or     %bh,(%edx)
 288:	0b 3b                	or     (%ebx),%edi
 28a:	05 49 13 02 18       	add    $0x18021349,%eax
 28f:	00 00                	add    %al,(%eax)
 291:	33 34 00             	xor    (%eax,%eax,1),%esi
 294:	03 0e                	add    (%esi),%ecx
 296:	3a 0b                	cmp    (%ebx),%cl
 298:	3b 05 49 13 1c 0b    	cmp    0xb1c1349,%eax
 29e:	00 00                	add    %al,(%eax)
 2a0:	34 0a                	xor    $0xa,%al
 2a2:	00 03                	add    %al,(%ebx)
 2a4:	0e                   	push   %cs
 2a5:	3a 0b                	cmp    (%ebx),%cl
 2a7:	3b 05 11 01 00 00    	cmp    0x111,%eax
 2ad:	35 0a 00 03 0e       	xor    $0xe03000a,%eax
 2b2:	3a 0b                	cmp    (%ebx),%cl
 2b4:	3b 05 00 00 36 0a    	cmp    0xa360000,%eax
 2ba:	00 03                	add    %al,(%ebx)
 2bc:	08 3a                	or     %bh,(%edx)
 2be:	0b 3b                	or     (%ebx),%edi
 2c0:	05 11 01 00 00       	add    $0x111,%eax
 2c5:	37                   	aaa    
 2c6:	0b 01                	or     (%ecx),%eax
 2c8:	55                   	push   %ebp
 2c9:	17                   	pop    %ss
 2ca:	01 13                	add    %edx,(%ebx)
 2cc:	00 00                	add    %al,(%eax)
 2ce:	38 89 82 01 01 11    	cmp    %cl,0x11010182(%ecx)
 2d4:	01 31                	add    %esi,(%ecx)
 2d6:	13 00                	adc    (%eax),%eax
 2d8:	00 39                	add    %bh,(%ecx)
 2da:	8a 82 01 00 02 18    	mov    0x18020001(%edx),%al
 2e0:	91                   	xchg   %eax,%ecx
 2e1:	42                   	inc    %edx
 2e2:	18 00                	sbb    %al,(%eax)
 2e4:	00 3a                	add    %bh,(%edx)
 2e6:	89 82 01 01 11 01    	mov    %eax,0x1110101(%edx)
 2ec:	31 13                	xor    %edx,(%ebx)
 2ee:	01 13                	add    %edx,(%ebx)
 2f0:	00 00                	add    %al,(%eax)
 2f2:	3b 1d 01 31 13 52    	cmp    0x52133101,%ebx
 2f8:	01 55 17             	add    %edx,0x17(%ebp)
 2fb:	58                   	pop    %eax
 2fc:	0b 59 05             	or     0x5(%ecx),%ebx
 2ff:	01 13                	add    %edx,(%ebx)
 301:	00 00                	add    %al,(%eax)
 303:	3c 05                	cmp    $0x5,%al
 305:	00 31                	add    %dh,(%ecx)
 307:	13 00                	adc    (%eax),%eax
 309:	00 3d 05 00 31 13    	add    %bh,0x13310005
 30f:	02 17                	add    (%edi),%dl
 311:	00 00                	add    %al,(%eax)
 313:	3e 0b 01             	or     %ds:(%ecx),%eax
 316:	55                   	push   %ebp
 317:	17                   	pop    %ss
 318:	00 00                	add    %al,(%eax)
 31a:	3f                   	aas    
 31b:	34 00                	xor    $0x0,%al
 31d:	31 13                	xor    %edx,(%ebx)
 31f:	02 17                	add    (%edi),%dl
 321:	00 00                	add    %al,(%eax)
 323:	40                   	inc    %eax
 324:	34 00                	xor    $0x0,%al
 326:	31 13                	xor    %edx,(%ebx)
 328:	02 18                	add    (%eax),%bl
 32a:	00 00                	add    %al,(%eax)
 32c:	41                   	inc    %ecx
 32d:	34 00                	xor    $0x0,%al
 32f:	31 13                	xor    %edx,(%ebx)
 331:	00 00                	add    %al,(%eax)
 333:	42                   	inc    %edx
 334:	2e 01 3f             	add    %edi,%cs:(%edi)
 337:	19 03                	sbb    %eax,(%ebx)
 339:	0e                   	push   %cs
 33a:	3a 0b                	cmp    (%ebx),%cl
 33c:	3b 0b                	cmp    (%ebx),%ecx
 33e:	27                   	daa    
 33f:	19 49 13             	sbb    %ecx,0x13(%ecx)
 342:	3c 19                	cmp    $0x19,%al
 344:	01 13                	add    %edx,(%ebx)
 346:	00 00                	add    %al,(%eax)
 348:	43                   	inc    %ebx
 349:	2e 01 3f             	add    %edi,%cs:(%edi)
 34c:	19 03                	sbb    %eax,(%ebx)
 34e:	0e                   	push   %cs
 34f:	3a 0b                	cmp    (%ebx),%cl
 351:	3b 05 27 19 49 13    	cmp    0x13491927,%eax
 357:	3c 19                	cmp    $0x19,%al
 359:	01 13                	add    %edx,(%ebx)
 35b:	00 00                	add    %al,(%eax)
 35d:	44                   	inc    %esp
 35e:	2e 01 3f             	add    %edi,%cs:(%edi)
 361:	19 03                	sbb    %eax,(%ebx)
 363:	0e                   	push   %cs
 364:	3a 0b                	cmp    (%ebx),%cl
 366:	3b 0b                	cmp    (%ebx),%ecx
 368:	27                   	daa    
 369:	19 49 13             	sbb    %ecx,0x13(%ecx)
 36c:	3c 19                	cmp    $0x19,%al
 36e:	00 00                	add    %al,(%eax)
	...

Disassembly of section .debug_loc:

00000000 <.debug_loc>:
       0:	00 00                	add    %al,(%eax)
       2:	00 00                	add    %al,(%eax)
       4:	9b                   	fwait
       5:	00 00                	add    %al,(%eax)
       7:	00 02                	add    %al,(%edx)
       9:	00 91 0c 9b 00 00    	add    %dl,0x9b0c(%ecx)
       f:	00 53 01             	add    %dl,0x1(%ebx)
      12:	00 00                	add    %al,(%eax)
      14:	02 00                	add    (%eax),%al
      16:	91                   	xchg   %eax,%ecx
      17:	0c 53                	or     $0x53,%al
      19:	01 00                	add    %eax,(%eax)
      1b:	00 5e 01             	add    %bl,0x1(%esi)
      1e:	00 00                	add    %al,(%eax)
      20:	06                   	push   %es
      21:	00 91 0c 06 23 04    	add    %dl,0x423060c(%ecx)
      27:	9f                   	lahf   
      28:	5e                   	pop    %esi
      29:	01 00                	add    %eax,(%eax)
      2b:	00 71 01             	add    %dh,0x1(%ecx)
      2e:	00 00                	add    %al,(%eax)
      30:	01 00                	add    %eax,(%eax)
      32:	52                   	push   %edx
      33:	71 01                	jno    36 <.debug_loc+0x36>
      35:	00 00                	add    %al,(%eax)
      37:	10 02                	adc    %al,(%edx)
      39:	00 00                	add    %al,(%eax)
      3b:	02 00                	add    (%eax),%al
      3d:	91                   	xchg   %eax,%ecx
      3e:	0c 10                	or     $0x10,%al
      40:	02 00                	add    (%eax),%al
      42:	00 94 02 00 00 01 00 	add    %dl,0x10000(%edx,%eax,1)
      49:	56                   	push   %esi
      4a:	94                   	xchg   %eax,%esp
      4b:	02 00                	add    (%eax),%al
      4d:	00 cc                	add    %cl,%ah
      4f:	03 00                	add    (%eax),%eax
      51:	00 02                	add    %al,(%edx)
      53:	00 91 0c cc 03 00    	add    %dl,0x3cc0c(%ecx)
      59:	00 d5                	add    %dl,%ch
      5b:	03 00                	add    (%eax),%eax
      5d:	00 06                	add    %al,(%esi)
      5f:	00 91 0c 06 23 04    	add    %dl,0x423060c(%ecx)
      65:	9f                   	lahf   
      66:	da 03                	fiaddl (%ebx)
      68:	00 00                	add    %al,(%eax)
      6a:	19 05 00 00 02 00    	sbb    %eax,0x20000
      70:	91                   	xchg   %eax,%ecx
      71:	0c 19                	or     $0x19,%al
      73:	05 00 00 22 05       	add    $0x5220000,%eax
      78:	00 00                	add    %al,(%eax)
      7a:	06                   	push   %es
      7b:	00 91 0c 06 23 04    	add    %dl,0x423060c(%ecx)
      81:	9f                   	lahf   
      82:	22 05 00 00 36 05    	and    0x5360000,%al
      88:	00 00                	add    %al,(%eax)
      8a:	01 00                	add    %eax,(%eax)
      8c:	50                   	push   %eax
      8d:	36 05 00 00 5a 05    	ss add $0x55a0000,%eax
      93:	00 00                	add    %al,(%eax)
      95:	02 00                	add    (%eax),%al
      97:	91                   	xchg   %eax,%ecx
      98:	0c 5a                	or     $0x5a,%al
      9a:	05 00 00 5f 05       	add    $0x55f0000,%eax
      9f:	00 00                	add    %al,(%eax)
      a1:	03 00                	add    (%eax),%eax
      a3:	70 0c                	jo     b1 <.debug_loc+0xb1>
      a5:	9f                   	lahf   
      a6:	5f                   	pop    %edi
      a7:	05 00 00 68 05       	add    $0x5680000,%eax
      ac:	00 00                	add    %al,(%eax)
      ae:	01 00                	add    %eax,(%eax)
      b0:	50                   	push   %eax
      b1:	68 05 00 00 5e       	push   $0x5e000005
      b6:	06                   	push   %es
      b7:	00 00                	add    %al,(%eax)
      b9:	02 00                	add    (%eax),%al
      bb:	91                   	xchg   %eax,%ecx
      bc:	0c 5e                	or     $0x5e,%al
      be:	06                   	push   %es
      bf:	00 00                	add    %al,(%eax)
      c1:	70 06                	jo     c9 <.debug_loc+0xc9>
      c3:	00 00                	add    %al,(%eax)
      c5:	06                   	push   %es
      c6:	00 91 0c 06 23 04    	add    %dl,0x423060c(%ecx)
      cc:	9f                   	lahf   
      cd:	70 06                	jo     d5 <.debug_loc+0xd5>
      cf:	00 00                	add    %al,(%eax)
      d1:	78 06                	js     d9 <.debug_loc+0xd9>
      d3:	00 00                	add    %al,(%eax)
      d5:	01 00                	add    %eax,(%eax)
      d7:	50                   	push   %eax
      d8:	78 06                	js     e0 <.debug_loc+0xe0>
      da:	00 00                	add    %al,(%eax)
      dc:	c1 06 00             	roll   $0x0,(%esi)
      df:	00 02                	add    %al,(%edx)
      e1:	00 91 0c c1 06 00    	add    %dl,0x6c10c(%ecx)
      e7:	00 ca                	add    %cl,%dl
      e9:	06                   	push   %es
      ea:	00 00                	add    %al,(%eax)
      ec:	06                   	push   %es
      ed:	00 91 0c 06 23 04    	add    %dl,0x423060c(%ecx)
      f3:	9f                   	lahf   
      f4:	d1 06                	roll   (%esi)
      f6:	00 00                	add    %al,(%eax)
      f8:	02 07                	add    (%edi),%al
      fa:	00 00                	add    %al,(%eax)
      fc:	02 00                	add    (%eax),%al
      fe:	91                   	xchg   %eax,%ecx
      ff:	0c 02                	or     $0x2,%al
     101:	07                   	pop    %es
     102:	00 00                	add    %al,(%eax)
     104:	17                   	pop    %ss
     105:	07                   	pop    %es
     106:	00 00                	add    %al,(%eax)
     108:	06                   	push   %es
     109:	00 91 0c 06 23 04    	add    %dl,0x423060c(%ecx)
     10f:	9f                   	lahf   
     110:	17                   	pop    %ss
     111:	07                   	pop    %es
     112:	00 00                	add    %al,(%eax)
     114:	1f                   	pop    %ds
     115:	07                   	pop    %es
     116:	00 00                	add    %al,(%eax)
     118:	01 00                	add    %eax,(%eax)
     11a:	50                   	push   %eax
     11b:	1f                   	pop    %ds
     11c:	07                   	pop    %es
     11d:	00 00                	add    %al,(%eax)
     11f:	3f                   	aas    
     120:	07                   	pop    %es
     121:	00 00                	add    %al,(%eax)
     123:	02 00                	add    (%eax),%al
     125:	91                   	xchg   %eax,%ecx
     126:	0c 3f                	or     $0x3f,%al
     128:	07                   	pop    %es
     129:	00 00                	add    %al,(%eax)
     12b:	47                   	inc    %edi
     12c:	07                   	pop    %es
     12d:	00 00                	add    %al,(%eax)
     12f:	06                   	push   %es
     130:	00 91 0c 06 23 04    	add    %dl,0x423060c(%ecx)
     136:	9f                   	lahf   
     137:	4e                   	dec    %esi
     138:	07                   	pop    %es
     139:	00 00                	add    %al,(%eax)
     13b:	6d                   	insl   (%dx),%es:(%edi)
     13c:	07                   	pop    %es
     13d:	00 00                	add    %al,(%eax)
     13f:	02 00                	add    (%eax),%al
     141:	91                   	xchg   %eax,%ecx
     142:	0c 6d                	or     $0x6d,%al
     144:	07                   	pop    %es
     145:	00 00                	add    %al,(%eax)
     147:	75 07                	jne    150 <.debug_loc+0x150>
     149:	00 00                	add    %al,(%eax)
     14b:	06                   	push   %es
     14c:	00 91 0c 06 23 04    	add    %dl,0x423060c(%ecx)
     152:	9f                   	lahf   
     153:	75 07                	jne    15c <.debug_loc+0x15c>
     155:	00 00                	add    %al,(%eax)
     157:	90                   	nop
     158:	07                   	pop    %es
     159:	00 00                	add    %al,(%eax)
     15b:	01 00                	add    %eax,(%eax)
     15d:	50                   	push   %eax
     15e:	90                   	nop
     15f:	07                   	pop    %es
     160:	00 00                	add    %al,(%eax)
     162:	d1 07                	roll   (%edi)
     164:	00 00                	add    %al,(%eax)
     166:	02 00                	add    (%eax),%al
     168:	91                   	xchg   %eax,%ecx
     169:	0c d1                	or     $0xd1,%al
     16b:	07                   	pop    %es
     16c:	00 00                	add    %al,(%eax)
     16e:	da 07                	fiaddl (%edi)
     170:	00 00                	add    %al,(%eax)
     172:	06                   	push   %es
     173:	00 91 0c 06 23 04    	add    %dl,0x423060c(%ecx)
     179:	9f                   	lahf   
     17a:	da 07                	fiaddl (%edi)
     17c:	00 00                	add    %al,(%eax)
     17e:	39 08                	cmp    %ecx,(%eax)
     180:	00 00                	add    %al,(%eax)
     182:	02 00                	add    (%eax),%al
     184:	91                   	xchg   %eax,%ecx
     185:	0c 39                	or     $0x39,%al
     187:	08 00                	or     %al,(%eax)
     189:	00 41 08             	add    %al,0x8(%ecx)
     18c:	00 00                	add    %al,(%eax)
     18e:	06                   	push   %es
     18f:	00 91 0c 06 23 04    	add    %dl,0x423060c(%ecx)
     195:	9f                   	lahf   
     196:	43                   	inc    %ebx
     197:	08 00                	or     %al,(%eax)
     199:	00 4f 08             	add    %cl,0x8(%edi)
     19c:	00 00                	add    %al,(%eax)
     19e:	02 00                	add    (%eax),%al
     1a0:	91                   	xchg   %eax,%ecx
     1a1:	0c 4f                	or     $0x4f,%al
     1a3:	08 00                	or     %al,(%eax)
     1a5:	00 58 08             	add    %bl,0x8(%eax)
     1a8:	00 00                	add    %al,(%eax)
     1aa:	03 00                	add    (%eax),%eax
     1ac:	70 04                	jo     1b2 <.debug_loc+0x1b2>
     1ae:	9f                   	lahf   
     1af:	58                   	pop    %eax
     1b0:	08 00                	or     %al,(%eax)
     1b2:	00 61 08             	add    %ah,0x8(%ecx)
     1b5:	00 00                	add    %al,(%eax)
     1b7:	06                   	push   %es
     1b8:	00 91 0c 06 23 04    	add    %dl,0x423060c(%ecx)
     1be:	9f                   	lahf   
     1bf:	61                   	popa   
     1c0:	08 00                	or     %al,(%eax)
     1c2:	00 64 08 00          	add    %ah,0x0(%eax,%ecx,1)
     1c6:	00 01                	add    %al,(%ecx)
     1c8:	00 50 64             	add    %dl,0x64(%eax)
     1cb:	08 00                	or     %al,(%eax)
     1cd:	00 bc 08 00 00 02 00 	add    %bh,0x20000(%eax,%ecx,1)
     1d4:	91                   	xchg   %eax,%ecx
     1d5:	0c bc                	or     $0xbc,%al
     1d7:	08 00                	or     %al,(%eax)
     1d9:	00 c4                	add    %al,%ah
     1db:	08 00                	or     %al,(%eax)
     1dd:	00 06                	add    %al,(%esi)
     1df:	00 91 0c 06 23 04    	add    %dl,0x423060c(%ecx)
     1e5:	9f                   	lahf   
     1e6:	ce                   	into   
     1e7:	08 00                	or     %al,(%eax)
     1e9:	00 8c 12 00 00 02 00 	add    %cl,0x20000(%edx,%edx,1)
     1f0:	91                   	xchg   %eax,%ecx
     1f1:	0c 8c                	or     $0x8c,%al
     1f3:	12 00                	adc    (%eax),%al
     1f5:	00 99 12 00 00 06    	add    %bl,0x6000012(%ecx)
     1fb:	00 91 0c 06 23 04    	add    %dl,0x423060c(%ecx)
     201:	9f                   	lahf   
     202:	a7                   	cmpsl  %es:(%edi),%ds:(%esi)
     203:	12 00                	adc    (%eax),%al
     205:	00 6f 15             	add    %ch,0x15(%edi)
     208:	00 00                	add    %al,(%eax)
     20a:	02 00                	add    (%eax),%al
     20c:	91                   	xchg   %eax,%ecx
     20d:	0c 6f                	or     $0x6f,%al
     20f:	15 00 00 7d 15       	adc    $0x157d0000,%eax
     214:	00 00                	add    %al,(%eax)
     216:	06                   	push   %es
     217:	00 91 0c 06 23 08    	add    %dl,0x823060c(%ecx)
     21d:	9f                   	lahf   
     21e:	82                   	(bad)  
     21f:	15 00 00 e4 19       	adc    $0x19e40000,%eax
     224:	00 00                	add    %al,(%eax)
     226:	02 00                	add    (%eax),%al
     228:	91                   	xchg   %eax,%ecx
     229:	0c e4                	or     $0xe4,%al
     22b:	19 00                	sbb    %eax,(%eax)
     22d:	00 f7                	add    %dh,%bh
     22f:	19 00                	sbb    %eax,(%eax)
     231:	00 01                	add    %al,(%ecx)
     233:	00 56 f7             	add    %dl,-0x9(%esi)
     236:	19 00                	sbb    %eax,(%eax)
     238:	00 9f 1a 00 00 02    	add    %bl,0x200001a(%edi)
     23e:	00 91 0c 9f 1a 00    	add    %dl,0x1a9f0c(%ecx)
     244:	00 ec                	add    %ch,%ah
     246:	1a 00                	sbb    (%eax),%al
     248:	00 01                	add    %al,(%ecx)
     24a:	00 56 ec             	add    %dl,-0x14(%esi)
     24d:	1a 00                	sbb    (%eax),%al
     24f:	00 f0                	add    %dh,%al
     251:	1b 00                	sbb    (%eax),%eax
     253:	00 02                	add    %al,(%edx)
     255:	00 91 0c f0 1b 00    	add    %dl,0x1bf00c(%ecx)
     25b:	00 25 1c 00 00 01    	add    %ah,0x100001c
     261:	00 56 25             	add    %dl,0x25(%esi)
     264:	1c 00                	sbb    $0x0,%al
     266:	00 95 1e 00 00 02    	add    %dl,0x200001e(%ebp)
     26c:	00 91 0c 95 1e 00    	add    %dl,0x1e950c(%ecx)
     272:	00 b2 1e 00 00 01    	add    %dh,0x100001e(%edx)
     278:	00 50 b2             	add    %dl,-0x4e(%eax)
     27b:	1e                   	push   %ds
     27c:	00 00                	add    %al,(%eax)
     27e:	f9                   	stc    
     27f:	1e                   	push   %ds
     280:	00 00                	add    %al,(%eax)
     282:	02 00                	add    (%eax),%al
     284:	91                   	xchg   %eax,%ecx
     285:	0c 00                	or     $0x0,%al
     287:	00 00                	add    %al,(%eax)
     289:	00 00                	add    %al,(%eax)
     28b:	00 00                	add    %al,(%eax)
     28d:	00 41 00             	add    %al,0x0(%ecx)
     290:	00 00                	add    %al,(%eax)
     292:	ae                   	scas   %es:(%edi),%al
     293:	00 00                	add    %al,(%eax)
     295:	00 02                	add    %al,(%edx)
     297:	00 91 08 ae 00 00    	add    %dl,0xae08(%ecx)
     29d:	00 01                	add    %al,(%ecx)
     29f:	01 00                	add    %eax,(%eax)
     2a1:	00 01                	add    %al,(%ecx)
     2a3:	00 53 01             	add    %dl,0x1(%ebx)
     2a6:	01 00                	add    %eax,(%eax)
     2a8:	00 30                	add    %dh,(%eax)
     2aa:	01 00                	add    %eax,(%eax)
     2ac:	00 01                	add    %al,(%ecx)
     2ae:	00 50 30             	add    %dl,0x30(%eax)
     2b1:	01 00                	add    %eax,(%eax)
     2b3:	00 4f 01             	add    %cl,0x1(%edi)
     2b6:	00 00                	add    %al,(%eax)
     2b8:	01 00                	add    %eax,(%eax)
     2ba:	51                   	push   %ecx
     2bb:	53                   	push   %ebx
     2bc:	01 00                	add    %eax,(%eax)
     2be:	00 7c 01 00          	add    %bh,0x0(%ecx,%eax,1)
     2c2:	00 01                	add    %al,(%ecx)
     2c4:	00 51 7c             	add    %dl,0x7c(%ecx)
     2c7:	01 00                	add    %eax,(%eax)
     2c9:	00 a8 01 00 00 01    	add    %ch,0x1000001(%eax)
     2cf:	00 53 ee             	add    %dl,-0x12(%ebx)
     2d2:	01 00                	add    %eax,(%eax)
     2d4:	00 47 02             	add    %al,0x2(%edi)
     2d7:	00 00                	add    %al,(%eax)
     2d9:	01 00                	add    %eax,(%eax)
     2db:	51                   	push   %ecx
     2dc:	47                   	inc    %edi
     2dd:	02 00                	add    (%eax),%al
     2df:	00 a6 03 00 00 02    	add    %ah,0x2000003(%esi)
     2e5:	00 91 08 a6 03 00    	add    %dl,0x3a608(%ecx)
     2eb:	00 cf                	add    %cl,%bh
     2ed:	03 00                	add    (%eax),%eax
     2ef:	00 01                	add    %al,(%ecx)
     2f1:	00 51 cf             	add    %dl,-0x31(%ecx)
     2f4:	03 00                	add    (%eax),%eax
     2f6:	00 7e 04             	add    %bh,0x4(%esi)
     2f9:	00 00                	add    %al,(%eax)
     2fb:	02 00                	add    (%eax),%al
     2fd:	91                   	xchg   %eax,%ecx
     2fe:	08 7e 04             	or     %bh,0x4(%esi)
     301:	00 00                	add    %al,(%eax)
     303:	c6 04 00 00          	movb   $0x0,(%eax,%eax,1)
     307:	01 00                	add    %eax,(%eax)
     309:	51                   	push   %ecx
     30a:	c6 04 00 00          	movb   $0x0,(%eax,%eax,1)
     30e:	c9                   	leave  
     30f:	04 00                	add    $0x0,%al
     311:	00 03                	add    %al,(%ebx)
     313:	00 71 7f             	add    %dh,0x7f(%ecx)
     316:	9f                   	lahf   
     317:	c9                   	leave  
     318:	04 00                	add    $0x0,%al
     31a:	00 1c 05 00 00 01 00 	add    %bl,0x10000(,%eax,1)
     321:	51                   	push   %ecx
     322:	1c 05                	sbb    $0x5,%al
     324:	00 00                	add    %al,(%eax)
     326:	3b 05 00 00 02 00    	cmp    0x20000,%eax
     32c:	91                   	xchg   %eax,%ecx
     32d:	08 3b                	or     %bh,(%ebx)
     32f:	05 00 00 75 05       	add    $0x5750000,%eax
     334:	00 00                	add    %al,(%eax)
     336:	01 00                	add    %eax,(%eax)
     338:	51                   	push   %ecx
     339:	75 05                	jne    340 <.debug_loc+0x340>
     33b:	00 00                	add    %al,(%eax)
     33d:	eb 05                	jmp    344 <.debug_loc+0x344>
     33f:	00 00                	add    %al,(%eax)
     341:	02 00                	add    (%eax),%al
     343:	91                   	xchg   %eax,%ecx
     344:	08 eb                	or     %ch,%bl
     346:	05 00 00 f4 05       	add    $0x5f40000,%eax
     34b:	00 00                	add    %al,(%eax)
     34d:	01 00                	add    %eax,(%eax)
     34f:	51                   	push   %ecx
     350:	f4                   	hlt    
     351:	05 00 00 f7 05       	add    $0x5f70000,%eax
     356:	00 00                	add    %al,(%eax)
     358:	01 00                	add    %eax,(%eax)
     35a:	50                   	push   %eax
     35b:	f7 05 00 00 1a 06 00 	testl  $0x30000,0x61a0000
     362:	00 03 00 
     365:	91                   	xchg   %eax,%ecx
     366:	c0 7e 1a 06          	sarb   $0x6,0x1a(%esi)
     36a:	00 00                	add    %al,(%eax)
     36c:	26 06                	es push %es
     36e:	00 00                	add    %al,(%eax)
     370:	01 00                	add    %eax,(%eax)
     372:	57                   	push   %edi
     373:	26 06                	es push %es
     375:	00 00                	add    %al,(%eax)
     377:	29 06                	sub    %eax,(%esi)
     379:	00 00                	add    %al,(%eax)
     37b:	03 00                	add    (%eax),%eax
     37d:	77 7f                	ja     3fe <.debug_loc+0x3fe>
     37f:	9f                   	lahf   
     380:	29 06                	sub    %eax,(%esi)
     382:	00 00                	add    %al,(%eax)
     384:	4d                   	dec    %ebp
     385:	06                   	push   %es
     386:	00 00                	add    %al,(%eax)
     388:	01 00                	add    %eax,(%eax)
     38a:	57                   	push   %edi
     38b:	4d                   	dec    %ebp
     38c:	06                   	push   %es
     38d:	00 00                	add    %al,(%eax)
     38f:	5e                   	pop    %esi
     390:	06                   	push   %es
     391:	00 00                	add    %al,(%eax)
     393:	03 00                	add    (%eax),%eax
     395:	91                   	xchg   %eax,%ecx
     396:	c0 7e 5e 06          	sarb   $0x6,0x5e(%esi)
     39a:	00 00                	add    %al,(%eax)
     39c:	6d                   	insl   (%dx),%es:(%edi)
     39d:	06                   	push   %es
     39e:	00 00                	add    %al,(%eax)
     3a0:	01 00                	add    %eax,(%eax)
     3a2:	51                   	push   %ecx
     3a3:	6d                   	insl   (%dx),%es:(%edi)
     3a4:	06                   	push   %es
     3a5:	00 00                	add    %al,(%eax)
     3a7:	9f                   	lahf   
     3a8:	06                   	push   %es
     3a9:	00 00                	add    %al,(%eax)
     3ab:	02 00                	add    (%eax),%al
     3ad:	91                   	xchg   %eax,%ecx
     3ae:	08 9f 06 00 00 c4    	or     %bl,-0x3bfffffa(%edi)
     3b4:	06                   	push   %es
     3b5:	00 00                	add    %al,(%eax)
     3b7:	01 00                	add    %eax,(%eax)
     3b9:	51                   	push   %ecx
     3ba:	c4 06                	les    (%esi),%eax
     3bc:	00 00                	add    %al,(%eax)
     3be:	d1 06                	roll   (%esi)
     3c0:	00 00                	add    %al,(%eax)
     3c2:	02 00                	add    (%eax),%al
     3c4:	91                   	xchg   %eax,%ecx
     3c5:	08 d1                	or     %dl,%cl
     3c7:	06                   	push   %es
     3c8:	00 00                	add    %al,(%eax)
     3ca:	41                   	inc    %ecx
     3cb:	07                   	pop    %es
     3cc:	00 00                	add    %al,(%eax)
     3ce:	01 00                	add    %eax,(%eax)
     3d0:	51                   	push   %ecx
     3d1:	41                   	inc    %ecx
     3d2:	07                   	pop    %es
     3d3:	00 00                	add    %al,(%eax)
     3d5:	4e                   	dec    %esi
     3d6:	07                   	pop    %es
     3d7:	00 00                	add    %al,(%eax)
     3d9:	02 00                	add    (%eax),%al
     3db:	91                   	xchg   %eax,%ecx
     3dc:	08 4e 07             	or     %cl,0x7(%esi)
     3df:	00 00                	add    %al,(%eax)
     3e1:	6f                   	outsl  %ds:(%esi),(%dx)
     3e2:	07                   	pop    %es
     3e3:	00 00                	add    %al,(%eax)
     3e5:	01 00                	add    %eax,(%eax)
     3e7:	51                   	push   %ecx
     3e8:	6f                   	outsl  %ds:(%esi),(%dx)
     3e9:	07                   	pop    %es
     3ea:	00 00                	add    %al,(%eax)
     3ec:	95                   	xchg   %eax,%ebp
     3ed:	07                   	pop    %es
     3ee:	00 00                	add    %al,(%eax)
     3f0:	02 00                	add    (%eax),%al
     3f2:	91                   	xchg   %eax,%ecx
     3f3:	08 95 07 00 00 d4    	or     %dl,-0x2bfffff9(%ebp)
     3f9:	07                   	pop    %es
     3fa:	00 00                	add    %al,(%eax)
     3fc:	01 00                	add    %eax,(%eax)
     3fe:	51                   	push   %ecx
     3ff:	d4 07                	aam    $0x7
     401:	00 00                	add    %al,(%eax)
     403:	14 08                	adc    $0x8,%al
     405:	00 00                	add    %al,(%eax)
     407:	02 00                	add    (%eax),%al
     409:	91                   	xchg   %eax,%ecx
     40a:	08 14 08             	or     %dl,(%eax,%ecx,1)
     40d:	00 00                	add    %al,(%eax)
     40f:	3b 08                	cmp    (%eax),%ecx
     411:	00 00                	add    %al,(%eax)
     413:	01 00                	add    %eax,(%eax)
     415:	51                   	push   %ecx
     416:	3b 08                	cmp    (%eax),%ecx
     418:	00 00                	add    %al,(%eax)
     41a:	43                   	inc    %ebx
     41b:	08 00                	or     %al,(%eax)
     41d:	00 02                	add    %al,(%edx)
     41f:	00 91 08 43 08 00    	add    %dl,0x84308(%ecx)
     425:	00 be 08 00 00 01    	add    %bh,0x1000008(%esi)
     42b:	00 51 be             	add    %dl,-0x42(%ecx)
     42e:	08 00                	or     %al,(%eax)
     430:	00 ce                	add    %cl,%dh
     432:	08 00                	or     %al,(%eax)
     434:	00 02                	add    %al,(%edx)
     436:	00 91 08 ce 08 00    	add    %dl,0x8ce08(%ecx)
     43c:	00 f4                	add    %dh,%ah
     43e:	08 00                	or     %al,(%eax)
     440:	00 01                	add    %al,(%ecx)
     442:	00 51 f4             	add    %dl,-0xc(%ecx)
     445:	08 00                	or     %al,(%eax)
     447:	00 a9 0a 00 00 02    	add    %ch,0x200000a(%ecx)
     44d:	00 91 08 c1 0b 00    	add    %dl,0xbc108(%ecx)
     453:	00 fb                	add    %bh,%bl
     455:	0e                   	push   %cs
     456:	00 00                	add    %al,(%eax)
     458:	02 00                	add    (%eax),%al
     45a:	91                   	xchg   %eax,%ecx
     45b:	08 71 0f             	or     %dh,0xf(%ecx)
     45e:	00 00                	add    %al,(%eax)
     460:	82                   	(bad)  
     461:	12 00                	adc    (%eax),%al
     463:	00 02                	add    %al,(%edx)
     465:	00 91 08 8c 12 00    	add    %dl,0x128c08(%ecx)
     46b:	00 a7 12 00 00 01    	add    %ah,0x1000012(%edi)
     471:	00 51 a7             	add    %dl,-0x59(%ecx)
     474:	12 00                	adc    (%eax),%al
     476:	00 6f 15             	add    %ch,0x15(%edi)
     479:	00 00                	add    %al,(%eax)
     47b:	02 00                	add    (%eax),%al
     47d:	91                   	xchg   %eax,%ecx
     47e:	08 6f 15             	or     %ch,0x15(%edi)
     481:	00 00                	add    %al,(%eax)
     483:	82                   	(bad)  
     484:	15 00 00 01 00       	adc    $0x10000,%eax
     489:	51                   	push   %ecx
     48a:	82                   	(bad)  
     48b:	15 00 00 a3 18       	adc    $0x18a30000,%eax
     490:	00 00                	add    %al,(%eax)
     492:	02 00                	add    (%eax),%al
     494:	91                   	xchg   %eax,%ecx
     495:	08 d5                	or     %dl,%ch
     497:	18 00                	sbb    %al,(%eax)
     499:	00 e4                	add    %ah,%ah
     49b:	19 00                	sbb    %eax,(%eax)
     49d:	00 02                	add    %al,(%edx)
     49f:	00 91 08 e4 19 00    	add    %dl,0x19e408(%ecx)
     4a5:	00 f1                	add    %dh,%cl
     4a7:	19 00                	sbb    %eax,(%eax)
     4a9:	00 01                	add    %al,(%ecx)
     4ab:	00 51 f1             	add    %dl,-0xf(%ecx)
     4ae:	19 00                	sbb    %eax,(%eax)
     4b0:	00 9f 1a 00 00 02    	add    %bl,0x200001a(%edi)
     4b6:	00 91 08 9f 1a 00    	add    %dl,0x1a9f08(%ecx)
     4bc:	00 ec                	add    %ch,%ah
     4be:	1a 00                	sbb    (%eax),%al
     4c0:	00 01                	add    %al,(%ecx)
     4c2:	00 51 ec             	add    %dl,-0x14(%ecx)
     4c5:	1a 00                	sbb    (%eax),%al
     4c7:	00 b6 1c 00 00 02    	add    %dh,0x200001c(%esi)
     4cd:	00 91 08 b6 1c 00    	add    %dl,0x1cb608(%ecx)
     4d3:	00 cb                	add    %cl,%bl
     4d5:	1c 00                	sbb    $0x0,%al
     4d7:	00 03                	add    %al,(%ebx)
     4d9:	00 91 c0 7e cb 1c    	add    %dl,0x1ccb7ec0(%ecx)
     4df:	00 00                	add    %al,(%eax)
     4e1:	84 1e                	test   %bl,(%esi)
     4e3:	00 00                	add    %al,(%eax)
     4e5:	02 00                	add    (%eax),%al
     4e7:	91                   	xchg   %eax,%ecx
     4e8:	08 84 1e 00 00 b7 1e 	or     %al,0x1eb70000(%esi,%ebx,1)
     4ef:	00 00                	add    %al,(%eax)
     4f1:	03 00                	add    (%eax),%eax
     4f3:	91                   	xchg   %eax,%ecx
     4f4:	c0 7e b7 1e          	sarb   $0x1e,-0x49(%esi)
     4f8:	00 00                	add    %al,(%eax)
     4fa:	db 1e                	fistpl (%esi)
     4fc:	00 00                	add    %al,(%eax)
     4fe:	02 00                	add    (%eax),%al
     500:	91                   	xchg   %eax,%ecx
     501:	08 ee                	or     %ch,%dh
     503:	1e                   	push   %ds
     504:	00 00                	add    %al,(%eax)
     506:	f9                   	stc    
     507:	1e                   	push   %ds
     508:	00 00                	add    %al,(%eax)
     50a:	02 00                	add    (%eax),%al
     50c:	91                   	xchg   %eax,%ecx
     50d:	08 00                	or     %al,(%eax)
     50f:	00 00                	add    %al,(%eax)
     511:	00 00                	add    %al,(%eax)
     513:	00 00                	add    %al,(%eax)
     515:	00 33                	add    %dh,(%ebx)
     517:	01 00                	add    %eax,(%eax)
     519:	00 4f 01             	add    %cl,0x1(%edi)
     51c:	00 00                	add    %al,(%eax)
     51e:	01 00                	add    %eax,(%eax)
     520:	50                   	push   %eax
     521:	53                   	push   %ebx
     522:	01 00                	add    %eax,(%eax)
     524:	00 56 01             	add    %dl,0x1(%esi)
     527:	00 00                	add    %al,(%eax)
     529:	01 00                	add    %eax,(%eax)
     52b:	50                   	push   %eax
     52c:	56                   	push   %esi
     52d:	01 00                	add    %eax,(%eax)
     52f:	00 59 01             	add    %bl,0x1(%ecx)
     532:	00 00                	add    %al,(%eax)
     534:	03 00                	add    (%eax),%eax
     536:	72 20                	jb     558 <.debug_loc+0x558>
     538:	9f                   	lahf   
     539:	ee                   	out    %al,(%dx)
     53a:	01 00                	add    %eax,(%eax)
     53c:	00 f5                	add    %dh,%ch
     53e:	01 00                	add    %eax,(%eax)
     540:	00 01                	add    %al,(%ecx)
     542:	00 50 f5             	add    %dl,-0xb(%eax)
     545:	01 00                	add    %eax,(%eax)
     547:	00 fa                	add    %bh,%dl
     549:	01 00                	add    %eax,(%eax)
     54b:	00 03                	add    %al,(%ebx)
     54d:	00 72 20             	add    %dh,0x20(%edx)
     550:	9f                   	lahf   
     551:	fa                   	cli    
     552:	01 00                	add    %eax,(%eax)
     554:	00 03                	add    %al,(%ebx)
     556:	02 00                	add    (%eax),%al
     558:	00 01                	add    %al,(%ecx)
     55a:	00 50 03             	add    %dl,0x3(%eax)
     55d:	02 00                	add    (%eax),%al
     55f:	00 94 02 00 00 03 00 	add    %dl,0x30000(%edx,%eax,1)
     566:	91                   	xchg   %eax,%ecx
     567:	9c                   	pushf  
     568:	7e a6                	jle    510 <.debug_loc+0x510>
     56a:	03 00                	add    (%eax),%eax
     56c:	00 b6 03 00 00 01    	add    %dh,0x1000003(%esi)
     572:	00 50 b6             	add    %dl,-0x4a(%eax)
     575:	03 00                	add    (%eax),%eax
     577:	00 da                	add    %bl,%dl
     579:	03 00                	add    (%eax),%eax
     57b:	00 03                	add    %al,(%ebx)
     57d:	00 91 9c 7e 7e 04    	add    %dl,0x47e7e9c(%ecx)
     583:	00 00                	add    %al,(%eax)
     585:	82                   	(bad)  
     586:	04 00                	add    $0x0,%al
     588:	00 01                	add    %al,(%ecx)
     58a:	00 50 82             	add    %dl,-0x7e(%eax)
     58d:	04 00                	add    $0x0,%al
     58f:	00 8a 04 00 00 03    	add    %cl,0x3000004(%edx)
     595:	00 72 20             	add    %dh,0x20(%edx)
     598:	9f                   	lahf   
     599:	8a 04 00             	mov    (%eax,%eax,1),%al
     59c:	00 93 04 00 00 01    	add    %dl,0x1000004(%ebx)
     5a2:	00 50 93             	add    %dl,-0x6d(%eax)
     5a5:	04 00                	add    $0x0,%al
     5a7:	00 98 04 00 00 03    	add    %bl,0x3000004(%eax)
     5ad:	00 72 20             	add    %dh,0x20(%edx)
     5b0:	9f                   	lahf   
     5b1:	98                   	cwtl   
     5b2:	04 00                	add    $0x0,%al
     5b4:	00 a4 04 00 00 01 00 	add    %ah,0x10000(%esp,%eax,1)
     5bb:	50                   	push   %eax
     5bc:	a4                   	movsb  %ds:(%esi),%es:(%edi)
     5bd:	04 00                	add    $0x0,%al
     5bf:	00 a9 04 00 00 03    	add    %ch,0x3000004(%ecx)
     5c5:	00 72 20             	add    %dh,0x20(%edx)
     5c8:	9f                   	lahf   
     5c9:	a9 04 00 00 c3       	test   $0xc3000004,%eax
     5ce:	04 00                	add    $0x0,%al
     5d0:	00 01                	add    %al,(%ecx)
     5d2:	00 50 c9             	add    %dl,-0x37(%eax)
     5d5:	04 00                	add    $0x0,%al
     5d7:	00 cd                	add    %cl,%ch
     5d9:	04 00                	add    $0x0,%al
     5db:	00 09                	add    %cl,(%ecx)
     5dd:	00 71 7f             	add    %dh,0x7f(%ecx)
     5e0:	94                   	xchg   %eax,%esp
     5e1:	01 48 24             	add    %ecx,0x24(%eax)
     5e4:	48                   	dec    %eax
     5e5:	26 9f                	es lahf 
     5e7:	cd 04                	int    $0x4
     5e9:	00 00                	add    %al,(%eax)
     5eb:	fd                   	std    
     5ec:	04 00                	add    $0x0,%al
     5ee:	00 01                	add    %al,(%ecx)
     5f0:	00 50 fd             	add    %dl,-0x3(%eax)
     5f3:	04 00                	add    $0x0,%al
     5f5:	00 3b                	add    %bh,(%ebx)
     5f7:	05 00 00 03 00       	add    $0x30000,%eax
     5fc:	91                   	xchg   %eax,%ecx
     5fd:	9c                   	pushf  
     5fe:	7e 3b                	jle    63b <.debug_loc+0x63b>
     600:	05 00 00 4b 05       	add    $0x54b0000,%eax
     605:	00 00                	add    %al,(%eax)
     607:	01 00                	add    %eax,(%eax)
     609:	50                   	push   %eax
     60a:	4b                   	dec    %ebx
     60b:	05 00 00 eb 05       	add    $0x5eb0000,%eax
     610:	00 00                	add    %al,(%eax)
     612:	03 00                	add    (%eax),%eax
     614:	91                   	xchg   %eax,%ecx
     615:	9c                   	pushf  
     616:	7e eb                	jle    603 <.debug_loc+0x603>
     618:	05 00 00 ee 05       	add    $0x5ee0000,%eax
     61d:	00 00                	add    %al,(%eax)
     61f:	01 00                	add    %eax,(%eax)
     621:	50                   	push   %eax
     622:	ee                   	out    %al,(%dx)
     623:	05 00 00 f4 05       	add    $0x5f40000,%eax
     628:	00 00                	add    %al,(%eax)
     62a:	03 00                	add    (%eax),%eax
     62c:	72 20                	jb     64e <.debug_loc+0x64e>
     62e:	9f                   	lahf   
     62f:	f4                   	hlt    
     630:	05 00 00 f7 05       	add    $0x5f70000,%eax
     635:	00 00                	add    %al,(%eax)
     637:	09 00                	or     %eax,(%eax)
     639:	71 00                	jno    63b <.debug_loc+0x63b>
     63b:	94                   	xchg   %eax,%esp
     63c:	01 48 24             	add    %ecx,0x24(%eax)
     63f:	48                   	dec    %eax
     640:	26 9f                	es lahf 
     642:	f7 05 00 00 23 06 00 	testl  $0x10000,0x6230000
     649:	00 01 00 
     64c:	50                   	push   %eax
     64d:	29 06                	sub    %eax,(%esi)
     64f:	00 00                	add    %al,(%eax)
     651:	2d 06 00 00 09       	sub    $0x9000006,%eax
     656:	00 77 7f             	add    %dh,0x7f(%edi)
     659:	94                   	xchg   %eax,%esp
     65a:	01 48 24             	add    %ecx,0x24(%eax)
     65d:	48                   	dec    %eax
     65e:	26 9f                	es lahf 
     660:	2d 06 00 00 61       	sub    $0x61000006,%eax
     665:	06                   	push   %es
     666:	00 00                	add    %al,(%eax)
     668:	01 00                	add    %eax,(%eax)
     66a:	50                   	push   %eax
     66b:	61                   	popa   
     66c:	06                   	push   %es
     66d:	00 00                	add    %al,(%eax)
     66f:	7f 06                	jg     677 <.debug_loc+0x677>
     671:	00 00                	add    %al,(%eax)
     673:	03 00                	add    (%eax),%eax
     675:	72 20                	jb     697 <.debug_loc+0x697>
     677:	9f                   	lahf   
     678:	7f 06                	jg     680 <.debug_loc+0x680>
     67a:	00 00                	add    %al,(%eax)
     67c:	9f                   	lahf   
     67d:	06                   	push   %es
     67e:	00 00                	add    %al,(%eax)
     680:	03 00                	add    (%eax),%eax
     682:	08 78 9f             	or     %bh,-0x61(%eax)
     685:	9f                   	lahf   
     686:	06                   	push   %es
     687:	00 00                	add    %al,(%eax)
     689:	af                   	scas   %es:(%edi),%eax
     68a:	06                   	push   %es
     68b:	00 00                	add    %al,(%eax)
     68d:	01 00                	add    %eax,(%eax)
     68f:	50                   	push   %eax
     690:	af                   	scas   %es:(%edi),%eax
     691:	06                   	push   %es
     692:	00 00                	add    %al,(%eax)
     694:	d1 06                	roll   (%esi)
     696:	00 00                	add    %al,(%eax)
     698:	03 00                	add    (%eax),%eax
     69a:	91                   	xchg   %eax,%ecx
     69b:	9c                   	pushf  
     69c:	7e d1                	jle    66f <.debug_loc+0x66f>
     69e:	06                   	push   %es
     69f:	00 00                	add    %al,(%eax)
     6a1:	da 06                	fiaddl (%esi)
     6a3:	00 00                	add    %al,(%eax)
     6a5:	01 00                	add    %eax,(%eax)
     6a7:	50                   	push   %eax
     6a8:	da 06                	fiaddl (%esi)
     6aa:	00 00                	add    %al,(%eax)
     6ac:	df 06                	fild   (%esi)
     6ae:	00 00                	add    %al,(%eax)
     6b0:	03 00                	add    (%eax),%eax
     6b2:	72 20                	jb     6d4 <.debug_loc+0x6d4>
     6b4:	9f                   	lahf   
     6b5:	df 06                	fild   (%esi)
     6b7:	00 00                	add    %al,(%eax)
     6b9:	05 07 00 00 01       	add    $0x1000007,%eax
     6be:	00 50 05             	add    %dl,0x5(%eax)
     6c1:	07                   	pop    %es
     6c2:	00 00                	add    %al,(%eax)
     6c4:	0c 07                	or     $0x7,%al
     6c6:	00 00                	add    %al,(%eax)
     6c8:	03 00                	add    (%eax),%eax
     6ca:	72 20                	jb     6ec <.debug_loc+0x6ec>
     6cc:	9f                   	lahf   
     6cd:	1f                   	pop    %ds
     6ce:	07                   	pop    %es
     6cf:	00 00                	add    %al,(%eax)
     6d1:	36 07                	ss pop %es
     6d3:	00 00                	add    %al,(%eax)
     6d5:	01 00                	add    %eax,(%eax)
     6d7:	50                   	push   %eax
     6d8:	36 07                	ss pop %es
     6da:	00 00                	add    %al,(%eax)
     6dc:	4e                   	dec    %esi
     6dd:	07                   	pop    %es
     6de:	00 00                	add    %al,(%eax)
     6e0:	03 00                	add    (%eax),%eax
     6e2:	91                   	xchg   %eax,%ecx
     6e3:	9c                   	pushf  
     6e4:	7e 4e                	jle    734 <.debug_loc+0x734>
     6e6:	07                   	pop    %es
     6e7:	00 00                	add    %al,(%eax)
     6e9:	5e                   	pop    %esi
     6ea:	07                   	pop    %es
     6eb:	00 00                	add    %al,(%eax)
     6ed:	01 00                	add    %eax,(%eax)
     6ef:	50                   	push   %eax
     6f0:	5e                   	pop    %esi
     6f1:	07                   	pop    %es
     6f2:	00 00                	add    %al,(%eax)
     6f4:	95                   	xchg   %eax,%ebp
     6f5:	07                   	pop    %es
     6f6:	00 00                	add    %al,(%eax)
     6f8:	03 00                	add    (%eax),%eax
     6fa:	91                   	xchg   %eax,%ecx
     6fb:	9c                   	pushf  
     6fc:	7e 95                	jle    693 <.debug_loc+0x693>
     6fe:	07                   	pop    %es
     6ff:	00 00                	add    %al,(%eax)
     701:	9e                   	sahf   
     702:	07                   	pop    %es
     703:	00 00                	add    %al,(%eax)
     705:	01 00                	add    %eax,(%eax)
     707:	50                   	push   %eax
     708:	9e                   	sahf   
     709:	07                   	pop    %es
     70a:	00 00                	add    %al,(%eax)
     70c:	a3 07 00 00 03       	mov    %eax,0x3000007
     711:	00 72 20             	add    %dh,0x20(%edx)
     714:	9f                   	lahf   
     715:	a3 07 00 00 b3       	mov    %eax,0xb3000007
     71a:	07                   	pop    %es
     71b:	00 00                	add    %al,(%eax)
     71d:	01 00                	add    %eax,(%eax)
     71f:	50                   	push   %eax
     720:	b3 07                	mov    $0x7,%bl
     722:	00 00                	add    %al,(%eax)
     724:	14 08                	adc    $0x8,%al
     726:	00 00                	add    %al,(%eax)
     728:	03 00                	add    (%eax),%eax
     72a:	91                   	xchg   %eax,%ecx
     72b:	9c                   	pushf  
     72c:	7e 14                	jle    742 <.debug_loc+0x742>
     72e:	08 00                	or     %al,(%eax)
     730:	00 24 08             	add    %ah,(%eax,%ecx,1)
     733:	00 00                	add    %al,(%eax)
     735:	01 00                	add    %eax,(%eax)
     737:	50                   	push   %eax
     738:	24 08                	and    $0x8,%al
     73a:	00 00                	add    %al,(%eax)
     73c:	43                   	inc    %ebx
     73d:	08 00                	or     %al,(%eax)
     73f:	00 03                	add    %al,(%ebx)
     741:	00 91 9c 7e 43 08    	add    %dl,0x8437e9c(%ecx)
     747:	00 00                	add    %al,(%eax)
     749:	4c                   	dec    %esp
     74a:	08 00                	or     %al,(%eax)
     74c:	00 01                	add    %al,(%ecx)
     74e:	00 50 4c             	add    %dl,0x4c(%eax)
     751:	08 00                	or     %al,(%eax)
     753:	00 9c 08 00 00 03 00 	add    %bl,0x30000(%eax,%ecx,1)
     75a:	91                   	xchg   %eax,%ecx
     75b:	9c                   	pushf  
     75c:	7e 9c                	jle    6fa <.debug_loc+0x6fa>
     75e:	08 00                	or     %al,(%eax)
     760:	00 b3 08 00 00 01    	add    %dh,0x1000008(%ebx)
     766:	00 50 b3             	add    %dl,-0x4d(%eax)
     769:	08 00                	or     %al,(%eax)
     76b:	00 ce                	add    %cl,%dh
     76d:	08 00                	or     %al,(%eax)
     76f:	00 03                	add    %al,(%ebx)
     771:	00 91 9c 7e ce 08    	add    %dl,0x8ce7e9c(%ecx)
     777:	00 00                	add    %al,(%eax)
     779:	f4                   	hlt    
     77a:	08 00                	or     %al,(%eax)
     77c:	00 01                	add    %al,(%ecx)
     77e:	00 50 8c             	add    %dl,-0x74(%eax)
     781:	12 00                	adc    (%eax),%al
     783:	00 8f 12 00 00 01    	add    %cl,0x1000012(%edi)
     789:	00 50 8f             	add    %dl,-0x71(%eax)
     78c:	12 00                	adc    (%eax),%al
     78e:	00 95 12 00 00 03    	add    %dl,0x3000012(%ebp)
     794:	00 72 20             	add    %dh,0x20(%edx)
     797:	9f                   	lahf   
     798:	01 15 00 00 82 15    	add    %edx,0x15820000
     79e:	00 00                	add    %al,(%eax)
     7a0:	03 00                	add    (%eax),%eax
     7a2:	91                   	xchg   %eax,%ecx
     7a3:	9c                   	pushf  
     7a4:	7e ba                	jle    760 <.debug_loc+0x760>
     7a6:	16                   	push   %ss
     7a7:	00 00                	add    %al,(%eax)
     7a9:	da 17                	ficoml (%edi)
     7ab:	00 00                	add    %al,(%eax)
     7ad:	03 00                	add    (%eax),%eax
     7af:	91                   	xchg   %eax,%ecx
     7b0:	9c                   	pushf  
     7b1:	7e da                	jle    78d <.debug_loc+0x78d>
     7b3:	17                   	pop    %ss
     7b4:	00 00                	add    %al,(%eax)
     7b6:	16                   	push   %ss
     7b7:	18 00                	sbb    %al,(%eax)
     7b9:	00 03                	add    %al,(%ebx)
     7bb:	00 08                	add    %cl,(%eax)
     7bd:	67 9f                	addr16 lahf 
     7bf:	84 18                	test   %bl,(%eax)
     7c1:	00 00                	add    %al,(%eax)
     7c3:	a3 18 00 00 03       	mov    %eax,0x3000018
     7c8:	00 91 9c 7e d5 19    	add    %dl,0x19d57e9c(%ecx)
     7ce:	00 00                	add    %al,(%eax)
     7d0:	f7 19                	negl   (%ecx)
     7d2:	00 00                	add    %al,(%eax)
     7d4:	03 00                	add    (%eax),%eax
     7d6:	91                   	xchg   %eax,%ecx
     7d7:	9c                   	pushf  
     7d8:	7e 9f                	jle    779 <.debug_loc+0x779>
     7da:	1a 00                	sbb    (%eax),%al
     7dc:	00 8b 1b 00 00 03    	add    %cl,0x300001b(%ebx)
     7e2:	00 91 9c 7e b8 1b    	add    %dl,0x1bb87e9c(%ecx)
     7e8:	00 00                	add    %al,(%eax)
     7ea:	25 1c 00 00 03       	and    $0x300001c,%eax
     7ef:	00 91 9c 7e 25 1c    	add    %dl,0x1c257e9c(%ecx)
     7f5:	00 00                	add    %al,(%eax)
     7f7:	2c 1c                	sub    $0x1c,%al
     7f9:	00 00                	add    %al,(%eax)
     7fb:	07                   	pop    %es
     7fc:	00 91 9c 7e 06 32    	add    %dl,0x32067e9c(%ecx)
     802:	1c 9f                	sbb    $0x9f,%al
     804:	2c 1c                	sub    $0x1c,%al
     806:	00 00                	add    %al,(%eax)
     808:	b6 1c                	mov    $0x1c,%dh
     80a:	00 00                	add    %al,(%eax)
     80c:	03 00                	add    (%eax),%eax
     80e:	91                   	xchg   %eax,%ecx
     80f:	9c                   	pushf  
     810:	7e b6                	jle    7c8 <.debug_loc+0x7c8>
     812:	1c 00                	sbb    $0x0,%al
     814:	00 cb                	add    %cl,%bl
     816:	1c 00                	sbb    $0x0,%al
     818:	00 01                	add    %al,(%ecx)
     81a:	00 50 cb             	add    %dl,-0x35(%eax)
     81d:	1c 00                	sbb    $0x0,%al
     81f:	00 e3                	add    %ah,%bl
     821:	1c 00                	sbb    $0x0,%al
     823:	00 03                	add    %al,(%ebx)
     825:	00 91 9c 7e e3 1c    	add    %dl,0x1ce37e9c(%ecx)
     82b:	00 00                	add    %al,(%eax)
     82d:	16                   	push   %ss
     82e:	1d 00 00 03 00       	sbb    $0x30000,%eax
     833:	08 67 9f             	or     %ah,-0x61(%edi)
     836:	16                   	push   %ss
     837:	1d 00 00 dd 1d       	sbb    $0x1ddd0000,%eax
     83c:	00 00                	add    %al,(%eax)
     83e:	03 00                	add    (%eax),%eax
     840:	91                   	xchg   %eax,%ecx
     841:	9c                   	pushf  
     842:	7e dd                	jle    821 <.debug_loc+0x821>
     844:	1d 00 00 00 1e       	sbb    $0x1e000000,%eax
     849:	00 00                	add    %al,(%eax)
     84b:	03 00                	add    (%eax),%eax
     84d:	08 67 9f             	or     %ah,-0x61(%edi)
     850:	00 1e                	add    %bl,(%esi)
     852:	00 00                	add    %al,(%eax)
     854:	4b                   	dec    %ebx
     855:	1e                   	push   %ds
     856:	00 00                	add    %al,(%eax)
     858:	03 00                	add    (%eax),%eax
     85a:	91                   	xchg   %eax,%ecx
     85b:	9c                   	pushf  
     85c:	7e 4b                	jle    8a9 <.debug_loc+0x8a9>
     85e:	1e                   	push   %ds
     85f:	00 00                	add    %al,(%eax)
     861:	5d                   	pop    %ebp
     862:	1e                   	push   %ds
     863:	00 00                	add    %al,(%eax)
     865:	03 00                	add    (%eax),%eax
     867:	08 67 9f             	or     %ah,-0x61(%edi)
     86a:	5d                   	pop    %ebp
     86b:	1e                   	push   %ds
     86c:	00 00                	add    %al,(%eax)
     86e:	84 1e                	test   %bl,(%esi)
     870:	00 00                	add    %al,(%eax)
     872:	03 00                	add    (%eax),%eax
     874:	91                   	xchg   %eax,%ecx
     875:	9c                   	pushf  
     876:	7e 84                	jle    7fc <.debug_loc+0x7fc>
     878:	1e                   	push   %ds
     879:	00 00                	add    %al,(%eax)
     87b:	8a 1e                	mov    (%esi),%bl
     87d:	00 00                	add    %al,(%eax)
     87f:	01 00                	add    %eax,(%eax)
     881:	50                   	push   %eax
     882:	8a 1e                	mov    (%esi),%bl
     884:	00 00                	add    %al,(%eax)
     886:	90                   	nop
     887:	1e                   	push   %ds
     888:	00 00                	add    %al,(%eax)
     88a:	09 00                	or     %eax,(%eax)
     88c:	71 00                	jno    88e <.debug_loc+0x88e>
     88e:	94                   	xchg   %eax,%esp
     88f:	01 48 24             	add    %ecx,0x24(%eax)
     892:	48                   	dec    %eax
     893:	26 9f                	es lahf 
     895:	90                   	nop
     896:	1e                   	push   %ds
     897:	00 00                	add    %al,(%eax)
     899:	b7 1e                	mov    $0x1e,%bh
     89b:	00 00                	add    %al,(%eax)
     89d:	0d 00 91 c0 7e       	or     $0x7ec09100,%eax
     8a2:	06                   	push   %es
     8a3:	31 1c 94             	xor    %ebx,(%esp,%edx,4)
     8a6:	01 48 24             	add    %ecx,0x24(%eax)
     8a9:	48                   	dec    %eax
     8aa:	26 9f                	es lahf 
     8ac:	b7 1e                	mov    $0x1e,%bh
     8ae:	00 00                	add    %al,(%eax)
     8b0:	db 1e                	fistpl (%esi)
     8b2:	00 00                	add    %al,(%eax)
     8b4:	03 00                	add    (%eax),%eax
     8b6:	91                   	xchg   %eax,%ecx
     8b7:	9c                   	pushf  
     8b8:	7e ee                	jle    8a8 <.debug_loc+0x8a8>
     8ba:	1e                   	push   %ds
     8bb:	00 00                	add    %al,(%eax)
     8bd:	f9                   	stc    
     8be:	1e                   	push   %ds
     8bf:	00 00                	add    %al,(%eax)
     8c1:	03 00                	add    (%eax),%eax
     8c3:	91                   	xchg   %eax,%ecx
     8c4:	9c                   	pushf  
     8c5:	7e 00                	jle    8c7 <.debug_loc+0x8c7>
     8c7:	00 00                	add    %al,(%eax)
     8c9:	00 00                	add    %al,(%eax)
     8cb:	00 00                	add    %al,(%eax)
     8cd:	00 e8                	add    %ch,%al
     8cf:	02 00                	add    (%eax),%al
     8d1:	00 60 03             	add    %ah,0x3(%eax)
     8d4:	00 00                	add    %al,(%eax)
     8d6:	01 00                	add    %eax,(%eax)
     8d8:	56                   	push   %esi
     8d9:	60                   	pusha  
     8da:	03 00                	add    (%eax),%eax
     8dc:	00 72 03             	add    %dh,0x3(%edx)
     8df:	00 00                	add    %al,(%eax)
     8e1:	03 00                	add    (%eax),%eax
     8e3:	76 10                	jbe    8f5 <.debug_loc+0x8f5>
     8e5:	9f                   	lahf   
     8e6:	72 03                	jb     8eb <.debug_loc+0x8eb>
     8e8:	00 00                	add    %al,(%eax)
     8ea:	a6                   	cmpsb  %es:(%edi),%ds:(%esi)
     8eb:	03 00                	add    (%eax),%eax
     8ed:	00 01                	add    %al,(%ecx)
     8ef:	00 56 be             	add    %dl,-0x42(%esi)
     8f2:	04 00                	add    $0x0,%al
     8f4:	00 e1                	add    %ah,%cl
     8f6:	04 00                	add    $0x0,%al
     8f8:	00 01                	add    %al,(%ecx)
     8fa:	00 57 e1             	add    %dl,-0x1f(%edi)
     8fd:	04 00                	add    $0x0,%al
     8ff:	00 e6                	add    %ah,%dh
     901:	04 00                	add    $0x0,%al
     903:	00 03                	add    %al,(%ebx)
     905:	00 91 b8 7e 00 06    	add    %dl,0x6007eb8(%ecx)
     90b:	00 00                	add    %al,(%eax)
     90d:	1a 06                	sbb    (%esi),%al
     90f:	00 00                	add    %al,(%eax)
     911:	02 00                	add    (%eax),%al
     913:	30 9f 1a 06 00 00    	xor    %bl,0x61a(%edi)
     919:	3e 06                	ds push %es
     91b:	00 00                	add    %al,(%eax)
     91d:	01 00                	add    %eax,(%eax)
     91f:	51                   	push   %ecx
     920:	3e 06                	ds push %es
     922:	00 00                	add    %al,(%eax)
     924:	41                   	inc    %ecx
     925:	06                   	push   %es
     926:	00 00                	add    %al,(%eax)
     928:	01 00                	add    %eax,(%eax)
     92a:	52                   	push   %edx
     92b:	8e 09                	mov    (%ecx),%cs
     92d:	00 00                	add    %al,(%eax)
     92f:	00 0a                	add    %cl,(%edx)
     931:	00 00                	add    %al,(%eax)
     933:	01 00                	add    %eax,(%eax)
     935:	56                   	push   %esi
     936:	00 0a                	add    %cl,(%edx)
     938:	00 00                	add    %al,(%eax)
     93a:	12 0a                	adc    (%edx),%cl
     93c:	00 00                	add    %al,(%eax)
     93e:	03 00                	add    (%eax),%eax
     940:	76 10                	jbe    952 <.debug_loc+0x952>
     942:	9f                   	lahf   
     943:	12 0a                	adc    (%edx),%cl
     945:	00 00                	add    %al,(%eax)
     947:	a9 0a 00 00 01       	test   $0x100000a,%eax
     94c:	00 56 c5             	add    %dl,-0x3b(%esi)
     94f:	0a 00                	or     (%eax),%al
     951:	00 30                	add    %dh,(%eax)
     953:	0b 00                	or     (%eax),%eax
     955:	00 01                	add    %al,(%ecx)
     957:	00 56 30             	add    %dl,0x30(%esi)
     95a:	0b 00                	or     (%eax),%eax
     95c:	00 42 0b             	add    %al,0xb(%edx)
     95f:	00 00                	add    %al,(%eax)
     961:	03 00                	add    (%eax),%eax
     963:	76 10                	jbe    975 <.debug_loc+0x975>
     965:	9f                   	lahf   
     966:	42                   	inc    %edx
     967:	0b 00                	or     (%eax),%eax
     969:	00 8d 0b 00 00 01    	add    %cl,0x100000b(%ebp)
     96f:	00 56 c1             	add    %dl,-0x3f(%esi)
     972:	0b 00                	or     (%eax),%eax
     974:	00 fa                	add    %bh,%dl
     976:	0c 00                	or     $0x0,%al
     978:	00 01                	add    %al,(%ecx)
     97a:	00 56 54             	add    %dl,0x54(%esi)
     97d:	0d 00 00 c0 0d       	or     $0xdc00000,%eax
     982:	00 00                	add    %al,(%eax)
     984:	01 00                	add    %eax,(%eax)
     986:	56                   	push   %esi
     987:	c0 0d 00 00 d2 0d 00 	rorb   $0x0,0xdd20000
     98e:	00 03                	add    %al,(%ebx)
     990:	00 76 10             	add    %dh,0x10(%esi)
     993:	9f                   	lahf   
     994:	d2 0d 00 00 fb 0e    	rorb   %cl,0xefb0000
     99a:	00 00                	add    %al,(%eax)
     99c:	01 00                	add    %eax,(%eax)
     99e:	56                   	push   %esi
     99f:	3a 10                	cmp    (%eax),%dl
     9a1:	00 00                	add    %al,(%eax)
     9a3:	a5                   	movsl  %ds:(%esi),%es:(%edi)
     9a4:	10 00                	adc    %al,(%eax)
     9a6:	00 01                	add    %al,(%ecx)
     9a8:	00 56 ad             	add    %dl,-0x53(%esi)
     9ab:	11 00                	adc    %eax,(%eax)
     9ad:	00 58 12             	add    %bl,0x12(%eax)
     9b0:	00 00                	add    %al,(%eax)
     9b2:	01 00                	add    %eax,(%eax)
     9b4:	56                   	push   %esi
     9b5:	58                   	pop    %eax
     9b6:	12 00                	adc    (%eax),%al
     9b8:	00 6a 12             	add    %ch,0x12(%edx)
     9bb:	00 00                	add    %al,(%eax)
     9bd:	03 00                	add    (%eax),%eax
     9bf:	76 10                	jbe    9d1 <.debug_loc+0x9d1>
     9c1:	9f                   	lahf   
     9c2:	6a 12                	push   $0x12
     9c4:	00 00                	add    %al,(%eax)
     9c6:	7c 12                	jl     9da <.debug_loc+0x9da>
     9c8:	00 00                	add    %al,(%eax)
     9ca:	01 00                	add    %eax,(%eax)
     9cc:	56                   	push   %esi
     9cd:	22 14 00             	and    (%eax,%eax,1),%dl
     9d0:	00 01                	add    %al,(%ecx)
     9d2:	15 00 00 01 00       	adc    $0x10000,%eax
     9d7:	56                   	push   %esi
     9d8:	82                   	(bad)  
     9d9:	15 00 00 39 16       	adc    $0x16390000,%eax
     9de:	00 00                	add    %al,(%eax)
     9e0:	01 00                	add    %eax,(%eax)
     9e2:	56                   	push   %esi
     9e3:	39 16                	cmp    %edx,(%esi)
     9e5:	00 00                	add    %al,(%eax)
     9e7:	ba 16 00 00 01       	mov    $0x1000016,%edx
     9ec:	00 53 4b             	add    %dl,0x4b(%ebx)
     9ef:	18 00                	sbb    %al,(%eax)
     9f1:	00 7d 18             	add    %bh,0x18(%ebp)
     9f4:	00 00                	add    %al,(%eax)
     9f6:	01 00                	add    %eax,(%eax)
     9f8:	56                   	push   %esi
     9f9:	d5 18                	aad    $0x18
     9fb:	00 00                	add    %al,(%eax)
     9fd:	0d 19 00 00 01       	or     $0x1000019,%eax
     a02:	00 56 0d             	add    %dl,0xd(%esi)
     a05:	19 00                	sbb    %eax,(%eax)
     a07:	00 68 19             	add    %ch,0x19(%eax)
     a0a:	00 00                	add    %al,(%eax)
     a0c:	01 00                	add    %eax,(%eax)
     a0e:	53                   	push   %ebx
     a0f:	97                   	xchg   %eax,%edi
     a10:	19 00                	sbb    %eax,(%eax)
     a12:	00 d5                	add    %dl,%ch
     a14:	19 00                	sbb    %eax,(%eax)
     a16:	00 01                	add    %al,(%ecx)
     a18:	00 56 f7             	add    %dl,-0x9(%esi)
     a1b:	19 00                	sbb    %eax,(%eax)
     a1d:	00 29                	add    %ch,(%ecx)
     a1f:	1a 00                	sbb    (%eax),%al
     a21:	00 01                	add    %al,(%ecx)
     a23:	00 56 b6             	add    %dl,-0x4a(%esi)
     a26:	1c 00                	sbb    $0x0,%al
     a28:	00 cb                	add    %cl,%bl
     a2a:	1c 00                	sbb    $0x0,%al
     a2c:	00 02                	add    %al,(%edx)
     a2e:	00 30                	add    %dh,(%eax)
     a30:	9f                   	lahf   
	...
     a39:	be 00 00 00 c3       	mov    $0xc3000000,%esi
     a3e:	00 00                	add    %al,(%eax)
     a40:	00 07                	add    %al,(%edi)
     a42:	00 73 00             	add    %dh,0x0(%ebx)
     a45:	91                   	xchg   %eax,%ecx
     a46:	08 06                	or     %al,(%esi)
     a48:	1c 9f                	sbb    $0x9f,%al
     a4a:	c3                   	ret    
     a4b:	00 00                	add    %al,(%eax)
     a4d:	00 f5                	add    %dh,%ch
     a4f:	00 00                	add    %al,(%eax)
     a51:	00 01                	add    %al,(%ecx)
     a53:	00 56 7c             	add    %dl,0x7c(%esi)
     a56:	01 00                	add    %eax,(%eax)
     a58:	00 a8 01 00 00 01    	add    %ch,0x1000001(%eax)
     a5e:	00 56 00             	add    %dl,0x0(%esi)
     a61:	00 00                	add    %al,(%eax)
     a63:	00 00                	add    %al,(%eax)
     a65:	00 00                	add    %al,(%eax)
     a67:	00 9b 00 00 00 a8    	add    %bl,-0x58000000(%ebx)
     a6d:	01 00                	add    %eax,(%eax)
     a6f:	00 02                	add    %al,(%edx)
     a71:	00 91 08 ee 01 00    	add    %dl,0x1ee08(%ecx)
     a77:	00 06                	add    %al,(%esi)
     a79:	02 00                	add    (%eax),%al
     a7b:	00 02                	add    %al,(%edx)
     a7d:	00 91 08 1a 02 00    	add    %dl,0x21a08(%ecx)
     a83:	00 26                	add    %ah,(%esi)
     a85:	02 00                	add    (%eax),%al
     a87:	00 01                	add    %al,(%ecx)
     a89:	00 50 26             	add    %dl,0x26(%eax)
     a8c:	02 00                	add    (%eax),%al
     a8e:	00 32                	add    %dh,(%edx)
     a90:	02 00                	add    (%eax),%al
     a92:	00 03                	add    %al,(%ebx)
     a94:	00 91 0c 06 32 02    	add    %dl,0x232060c(%ecx)
     a9a:	00 00                	add    %al,(%eax)
     a9c:	9c                   	pushf  
     a9d:	02 00                	add    (%eax),%al
     a9f:	00 03                	add    %al,(%ebx)
     aa1:	00 91 a0 7e a6 03    	add    %dl,0x3a67ea0(%ecx)
     aa7:	00 00                	add    %al,(%eax)
     aa9:	b9 03 00 00 02       	mov    $0x2000003,%ecx
     aae:	00 91 08 04 04 00    	add    %dl,0x40408(%ecx)
     ab4:	00 23                	add    %ah,(%ebx)
     ab6:	04 00                	add    $0x0,%al
     ab8:	00 04 00             	add    %al,(%eax,%eax,1)
     abb:	91                   	xchg   %eax,%ecx
     abc:	a0 7f 9f 23 04       	mov    0x4239f7f,%al
     ac1:	00 00                	add    %al,(%eax)
     ac3:	56                   	push   %esi
     ac4:	04 00                	add    $0x0,%al
     ac6:	00 01                	add    %al,(%ecx)
     ac8:	00 50 56             	add    %dl,0x56(%eax)
     acb:	04 00                	add    $0x0,%al
     acd:	00 7e 04             	add    %bh,0x4(%esi)
     ad0:	00 00                	add    %al,(%eax)
     ad2:	03 00                	add    (%eax),%eax
     ad4:	91                   	xchg   %eax,%ecx
     ad5:	a0 7e 7e 04 00       	mov    0x47e7e,%al
     ada:	00 00                	add    %al,(%eax)
     adc:	05 00 00 02 00       	add    $0x20000,%eax
     ae1:	91                   	xchg   %eax,%ecx
     ae2:	08 3b                	or     %bh,(%ebx)
     ae4:	05 00 00 4e 05       	add    $0x54e0000,%eax
     ae9:	00 00                	add    %al,(%eax)
     aeb:	02 00                	add    (%eax),%al
     aed:	91                   	xchg   %eax,%ecx
     aee:	08 be 05 00 00 eb    	or     %bh,-0x14fffffb(%esi)
     af4:	05 00 00 01 00       	add    $0x10000,%eax
     af9:	50                   	push   %eax
     afa:	eb 05                	jmp    b01 <.debug_loc+0xb01>
     afc:	00 00                	add    %al,(%eax)
     afe:	64 06                	fs push %es
     b00:	00 00                	add    %al,(%eax)
     b02:	02 00                	add    (%eax),%al
     b04:	91                   	xchg   %eax,%ecx
     b05:	08 9f 06 00 00 b2    	or     %bl,-0x4dfffffa(%edi)
     b0b:	06                   	push   %es
     b0c:	00 00                	add    %al,(%eax)
     b0e:	02 00                	add    (%eax),%al
     b10:	91                   	xchg   %eax,%ecx
     b11:	08 d1                	or     %dl,%cl
     b13:	06                   	push   %es
     b14:	00 00                	add    %al,(%eax)
     b16:	e9 06 00 00 02       	jmp    2000b21 <blanks.3938+0x20009ad>
     b1b:	00 91 08 1f 07 00    	add    %dl,0x71f08(%ecx)
     b21:	00 39                	add    %bh,(%ecx)
     b23:	07                   	pop    %es
     b24:	00 00                	add    %al,(%eax)
     b26:	02 00                	add    (%eax),%al
     b28:	91                   	xchg   %eax,%ecx
     b29:	08 4e 07             	or     %cl,0x7(%esi)
     b2c:	00 00                	add    %al,(%eax)
     b2e:	61                   	popa   
     b2f:	07                   	pop    %es
     b30:	00 00                	add    %al,(%eax)
     b32:	02 00                	add    (%eax),%al
     b34:	91                   	xchg   %eax,%ecx
     b35:	08 95 07 00 00 b6    	or     %dl,-0x49fffff9(%ebp)
     b3b:	07                   	pop    %es
     b3c:	00 00                	add    %al,(%eax)
     b3e:	02 00                	add    (%eax),%al
     b40:	91                   	xchg   %eax,%ecx
     b41:	08 14 08             	or     %dl,(%eax,%ecx,1)
     b44:	00 00                	add    %al,(%eax)
     b46:	27                   	daa    
     b47:	08 00                	or     %al,(%eax)
     b49:	00 02                	add    %al,(%edx)
     b4b:	00 91 08 43 08 00    	add    %dl,0x84308(%ecx)
     b51:	00 4f 08             	add    %cl,0x8(%edi)
     b54:	00 00                	add    %al,(%eax)
     b56:	02 00                	add    (%eax),%al
     b58:	91                   	xchg   %eax,%ecx
     b59:	08 4f 08             	or     %cl,0x8(%edi)
     b5c:	00 00                	add    %al,(%eax)
     b5e:	67 08 00             	or     %al,(%bx,%si)
     b61:	00 04 00             	add    %al,(%eax,%eax,1)
     b64:	91                   	xchg   %eax,%ecx
     b65:	f8                   	clc    
     b66:	7e 9f                	jle    b07 <.debug_loc+0xb07>
     b68:	67 08 00             	or     %al,(%bx,%si)
     b6b:	00 9c 08 00 00 01 00 	add    %bl,0x10000(%eax,%ecx,1)
     b72:	50                   	push   %eax
     b73:	9c                   	pushf  
     b74:	08 00                	or     %al,(%eax)
     b76:	00 b6 08 00 00 02    	add    %dh,0x2000008(%esi)
     b7c:	00 91 08 ce 08 00    	add    %dl,0x8ce08(%ecx)
     b82:	00 d9                	add    %bl,%cl
     b84:	08 00                	or     %al,(%eax)
     b86:	00 02                	add    %al,(%edx)
     b88:	00 91 08 e5 08 00    	add    %dl,0x8e508(%ecx)
     b8e:	00 f4                	add    %dh,%ah
     b90:	08 00                	or     %al,(%eax)
     b92:	00 04 00             	add    %al,(%eax,%eax,1)
     b95:	91                   	xchg   %eax,%ecx
     b96:	f8                   	clc    
     b97:	7e 9f                	jle    b38 <.debug_loc+0xb38>
     b99:	fa                   	cli    
     b9a:	0c 00                	or     $0x0,%al
     b9c:	00 0d 0d 00 00 04    	add    %cl,0x400000d
     ba2:	00 91 a0 7f 9f 0d    	add    %dl,0xd9f7fa0(%ecx)
     ba8:	0d 00 00 20 0d       	or     $0xd200000,%eax
     bad:	00 00                	add    %al,(%eax)
     baf:	04 00                	add    $0x0,%al
     bb1:	91                   	xchg   %eax,%ecx
     bb2:	9f                   	lahf   
     bb3:	7f 9f                	jg     b54 <.debug_loc+0xb54>
     bb5:	20 0d 00 00 2b 0d    	and    %cl,0xd2b0000
     bbb:	00 00                	add    %al,(%eax)
     bbd:	01 00                	add    %eax,(%eax)
     bbf:	50                   	push   %eax
     bc0:	2b 0d 00 00 33 0d    	sub    0xd330000,%ecx
     bc6:	00 00                	add    %al,(%eax)
     bc8:	04 00                	add    $0x0,%al
     bca:	91                   	xchg   %eax,%ecx
     bcb:	a0 7f 9f 33 0d       	mov    0xd339f7f,%al
     bd0:	00 00                	add    %al,(%eax)
     bd2:	48                   	dec    %eax
     bd3:	0d 00 00 01 00       	or     $0x10000,%eax
     bd8:	50                   	push   %eax
     bd9:	70 0e                	jo     be9 <.debug_loc+0xbe9>
     bdb:	00 00                	add    %al,(%eax)
     bdd:	e4 0e                	in     $0xe,%al
     bdf:	00 00                	add    %al,(%eax)
     be1:	07                   	pop    %es
     be2:	00 91 a0 7e 06 23    	add    %dl,0x23067ea0(%ecx)
     be8:	01 9f e2 0f 00 00    	add    %ebx,0xfe2(%edi)
     bee:	ea 0f 00 00 01 00 50 	ljmp   $0x5000,$0x100000f
     bf5:	ea 0f 00 00 22 10 00 	ljmp   $0x10,$0x2200000f
     bfc:	00 01                	add    %al,(%ecx)
     bfe:	00 52 22             	add    %dl,0x22(%edx)
     c01:	10 00                	adc    %al,(%eax)
     c03:	00 3a                	add    %bh,(%edx)
     c05:	10 00                	adc    %al,(%eax)
     c07:	00 03                	add    %al,(%ebx)
     c09:	00 91 a0 7e 32 11    	add    %dl,0x11327ea0(%ecx)
     c0f:	00 00                	add    %al,(%eax)
     c11:	35 11 00 00 04       	xor    $0x4000011,%eax
     c16:	00 91 a0 7f 9f 35    	add    %dl,0x359f7fa0(%ecx)
     c1c:	11 00                	adc    %eax,(%eax)
     c1e:	00 42 11             	add    %al,0x11(%edx)
     c21:	00 00                	add    %al,(%eax)
     c23:	01 00                	add    %eax,(%eax)
     c25:	50                   	push   %eax
     c26:	42                   	inc    %edx
     c27:	11 00                	adc    %eax,(%eax)
     c29:	00 72 11             	add    %dh,0x11(%edx)
     c2c:	00 00                	add    %al,(%eax)
     c2e:	01 00                	add    %eax,(%eax)
     c30:	57                   	push   %edi
     c31:	72 11                	jb     c44 <.debug_loc+0xc44>
     c33:	00 00                	add    %al,(%eax)
     c35:	82                   	(bad)  
     c36:	11 00                	adc    %eax,(%eax)
     c38:	00 01                	add    %al,(%ecx)
     c3a:	00 52 82             	add    %dl,-0x7e(%edx)
     c3d:	11 00                	adc    %eax,(%eax)
     c3f:	00 8d 11 00 00 04    	add    %cl,0x4000011(%ebp)
     c45:	00 91 a0 7f 9f 8d    	add    %dl,-0x72608060(%ecx)
     c4b:	11 00                	adc    %eax,(%eax)
     c4d:	00 a2 11 00 00 04    	add    %ah,0x4000011(%edx)
     c53:	00 91 9f 7f 9f a2    	add    %dl,-0x5d608061(%ecx)
     c59:	11 00                	adc    %eax,(%eax)
     c5b:	00 ad 11 00 00 01    	add    %ch,0x1000011(%ebp)
     c61:	00 50 e6             	add    %dl,-0x1a(%eax)
     c64:	11 00                	adc    %eax,(%eax)
     c66:	00 7c 12 00          	add    %bh,0x0(%edx,%edx,1)
     c6a:	00 07                	add    %al,(%edi)
     c6c:	00 91 a0 7e 06 23    	add    %dl,0x23067ea0(%ecx)
     c72:	01 9f 10 13 00 00    	add    %ebx,0x1310(%edi)
     c78:	25 13 00 00 01       	and    $0x1000013,%eax
     c7d:	00 50 25             	add    %dl,0x25(%eax)
     c80:	13 00                	adc    (%eax),%eax
     c82:	00 65 13             	add    %ah,0x13(%ebp)
     c85:	00 00                	add    %al,(%eax)
     c87:	01 00                	add    %eax,(%eax)
     c89:	56                   	push   %esi
     c8a:	65 13 00             	adc    %gs:(%eax),%eax
     c8d:	00 99 13 00 00 01    	add    %bl,0x1000013(%ecx)
     c93:	00 52 99             	add    %dl,-0x67(%edx)
     c96:	13 00                	adc    (%eax),%eax
     c98:	00 22                	add    %ah,(%edx)
     c9a:	14 00                	adc    $0x0,%al
     c9c:	00 0a                	add    %cl,(%edx)
     c9e:	00 91 a0 7e 06 91    	add    %dl,-0x6ef98160(%ecx)
     ca4:	98                   	cwtl   
     ca5:	7e 06                	jle    cad <.debug_loc+0xcad>
     ca7:	22 9f 91 14 00 00    	and    0x1491(%edi),%bl
     cad:	c9                   	leave  
     cae:	14 00                	adc    $0x0,%al
     cb0:	00 07                	add    %al,(%edi)
     cb2:	00 91 a0 7e 06 23    	add    %dl,0x23067ea0(%ecx)
     cb8:	01 9f 42 15 00 00    	add    %ebx,0x1542(%edi)
     cbe:	6f                   	outsl  %ds:(%esi),(%dx)
     cbf:	15 00 00 01 00       	adc    $0x10000,%eax
     cc4:	50                   	push   %eax
     cc5:	7d 18                	jge    cdf <.debug_loc+0xcdf>
     cc7:	00 00                	add    %al,(%eax)
     cc9:	7f 18                	jg     ce3 <.debug_loc+0xce3>
     ccb:	00 00                	add    %al,(%eax)
     ccd:	01 00                	add    %eax,(%eax)
     ccf:	50                   	push   %eax
     cd0:	7f 18                	jg     cea <.debug_loc+0xcea>
     cd2:	00 00                	add    %al,(%eax)
     cd4:	84 18                	test   %bl,(%eax)
     cd6:	00 00                	add    %al,(%eax)
     cd8:	01 00                	add    %eax,(%eax)
     cda:	56                   	push   %esi
     cdb:	e4 19                	in     $0x19,%al
     cdd:	00 00                	add    %al,(%eax)
     cdf:	ed                   	in     (%dx),%eax
     ce0:	19 00                	sbb    %eax,(%eax)
     ce2:	00 03                	add    %al,(%ebx)
     ce4:	00 91 0c 06 ed 19    	add    %dl,0x19ed060c(%ecx)
     cea:	00 00                	add    %al,(%eax)
     cec:	f7 19                	negl   (%ecx)
     cee:	00 00                	add    %al,(%eax)
     cf0:	03 00                	add    (%eax),%eax
     cf2:	91                   	xchg   %eax,%ecx
     cf3:	a0 7e 29 1a 00       	mov    0x1a297e,%al
     cf8:	00 61 1a             	add    %ah,0x1a(%ecx)
     cfb:	00 00                	add    %al,(%eax)
     cfd:	01 00                	add    %eax,(%eax)
     cff:	56                   	push   %esi
     d00:	61                   	popa   
     d01:	1a 00                	sbb    (%eax),%al
     d03:	00 7c 1a 00          	add    %bh,0x0(%edx,%ebx,1)
     d07:	00 01                	add    %al,(%ecx)
     d09:	00 52 7c             	add    %dl,0x7c(%edx)
     d0c:	1a 00                	sbb    (%eax),%al
     d0e:	00 9f 1a 00 00 0a    	add    %bl,0xa00001a(%edi)
     d14:	00 91 a0 7e 06 91    	add    %dl,-0x6ef98160(%ecx)
     d1a:	98                   	cwtl   
     d1b:	7e 06                	jle    d23 <.debug_loc+0xd23>
     d1d:	22 9f 9f 1a 00 00    	and    0x1a9f(%edi),%bl
     d23:	ec                   	in     (%dx),%al
     d24:	1a 00                	sbb    (%eax),%al
     d26:	00 06                	add    %al,(%esi)
     d28:	00 03                	add    %al,(%ebx)
     d2a:	32 00                	xor    (%eax),%al
     d2c:	00 00                	add    %al,(%eax)
     d2e:	9f                   	lahf   
     d2f:	f0 1b 00             	lock sbb (%eax),%eax
     d32:	00 25 1c 00 00 03    	add    %ah,0x300001c
     d38:	00 91 a0 7e b6 1c    	add    %dl,0x1cb67ea0(%ecx)
     d3e:	00 00                	add    %al,(%eax)
     d40:	cb                   	lret   
     d41:	1c 00                	sbb    $0x0,%al
     d43:	00 02                	add    %al,(%edx)
     d45:	00 91 08 84 1e 00    	add    %dl,0x1e8408(%ecx)
     d4b:	00 b7 1e 00 00 02    	add    %dh,0x200001e(%edi)
     d51:	00 91 08 00 00 00    	add    %dl,0x8(%ecx)
     d57:	00 00                	add    %al,(%eax)
     d59:	00 00                	add    %al,(%eax)
     d5b:	00 01                	add    %al,(%ecx)
     d5d:	01 00                	add    %eax,(%eax)
     d5f:	00 2d 01 00 00 02    	add    %ch,0x2000001
     d65:	00 30                	add    %dh,(%eax)
     d67:	9f                   	lahf   
     d68:	2d 01 00 00 7c       	sub    $0x7c000001,%eax
     d6d:	01 00                	add    %eax,(%eax)
     d6f:	00 03                	add    %al,(%ebx)
     d71:	00 91 c4 7e ee 01    	add    %dl,0x1ee7ec4(%ecx)
     d77:	00 00                	add    %al,(%eax)
     d79:	9c                   	pushf  
     d7a:	02 00                	add    (%eax),%al
     d7c:	00 03                	add    %al,(%ebx)
     d7e:	00 91 c4 7e a6 03    	add    %dl,0x3a67ec4(%ecx)
     d84:	00 00                	add    %al,(%eax)
     d86:	04 04                	add    $0x4,%al
     d88:	00 00                	add    %al,(%eax)
     d8a:	03 00                	add    (%eax),%eax
     d8c:	91                   	xchg   %eax,%ecx
     d8d:	c4 7e 04             	les    0x4(%esi),%edi
     d90:	04 00                	add    $0x0,%al
     d92:	00 0a                	add    %cl,(%edx)
     d94:	04 00                	add    $0x0,%al
     d96:	00 01                	add    %al,(%ecx)
     d98:	00 52 0a             	add    %dl,0xa(%edx)
     d9b:	04 00                	add    $0x0,%al
     d9d:	00 6b 06             	add    %ch,0x6(%ebx)
     da0:	00 00                	add    %al,(%eax)
     da2:	03 00                	add    (%eax),%eax
     da4:	91                   	xchg   %eax,%ecx
     da5:	c4 7e 6d             	les    0x6d(%esi),%edi
     da8:	06                   	push   %es
     da9:	00 00                	add    %al,(%eax)
     dab:	f4                   	hlt    
     dac:	08 00                	or     %al,(%eax)
     dae:	00 03                	add    %al,(%ebx)
     db0:	00 91 c4 7e fa 0c    	add    %dl,0xcfa7ec4(%ecx)
     db6:	00 00                	add    %al,(%eax)
     db8:	48                   	dec    %eax
     db9:	0d 00 00 03 00       	or     $0x30000,%eax
     dbe:	91                   	xchg   %eax,%ecx
     dbf:	c4 7e e2             	les    -0x1e(%esi),%edi
     dc2:	0f 00 00             	sldt   (%eax)
     dc5:	3a 10                	cmp    (%eax),%dl
     dc7:	00 00                	add    %al,(%eax)
     dc9:	03 00                	add    (%eax),%eax
     dcb:	91                   	xchg   %eax,%ecx
     dcc:	c4 7e 32             	les    0x32(%esi),%edi
     dcf:	11 00                	adc    %eax,(%eax)
     dd1:	00 ad 11 00 00 03    	add    %ch,0x3000011(%ebp)
     dd7:	00 91 c4 7e 8c 12    	add    %dl,0x128c7ec4(%ecx)
     ddd:	00 00                	add    %al,(%eax)
     ddf:	99                   	cltd   
     de0:	12 00                	adc    (%eax),%al
     de2:	00 03                	add    %al,(%ebx)
     de4:	00 91 c4 7e 01 15    	add    %dl,0x15017ec4(%ecx)
     dea:	00 00                	add    %al,(%eax)
     dec:	82                   	(bad)  
     ded:	15 00 00 03 00       	adc    $0x30000,%eax
     df2:	91                   	xchg   %eax,%ecx
     df3:	c4 7e ba             	les    -0x46(%esi),%edi
     df6:	16                   	push   %ss
     df7:	00 00                	add    %al,(%eax)
     df9:	00 17                	add    %dl,(%edi)
     dfb:	00 00                	add    %al,(%eax)
     dfd:	03 00                	add    (%eax),%eax
     dff:	91                   	xchg   %eax,%ecx
     e00:	c4 7e 06             	les    0x6(%esi),%edi
     e03:	17                   	pop    %ss
     e04:	00 00                	add    %al,(%eax)
     e06:	0c 17                	or     $0x17,%al
     e08:	00 00                	add    %al,(%eax)
     e0a:	01 00                	add    %eax,(%eax)
     e0c:	50                   	push   %eax
     e0d:	0c 17                	or     $0x17,%al
     e0f:	00 00                	add    %al,(%eax)
     e11:	4b                   	dec    %ebx
     e12:	18 00                	sbb    %al,(%eax)
     e14:	00 03                	add    %al,(%ebx)
     e16:	00 91 a8 7e 84 18    	add    %dl,0x18847ea8(%ecx)
     e1c:	00 00                	add    %al,(%eax)
     e1e:	a3 18 00 00 03       	mov    %eax,0x3000018
     e23:	00 91 a8 7e d5 19    	add    %dl,0x19d57ea8(%ecx)
     e29:	00 00                	add    %al,(%eax)
     e2b:	f7 19                	negl   (%ecx)
     e2d:	00 00                	add    %al,(%eax)
     e2f:	03 00                	add    (%eax),%eax
     e31:	91                   	xchg   %eax,%ecx
     e32:	c4 7e 9f             	les    -0x61(%esi),%edi
     e35:	1a 00                	sbb    (%eax),%al
     e37:	00 fd                	add    %bh,%ch
     e39:	1a 00                	sbb    (%eax),%al
     e3b:	00 03                	add    %al,(%ebx)
     e3d:	00 91 c4 7e fd 1a    	add    %dl,0x1afd7ec4(%ecx)
     e43:	00 00                	add    %al,(%eax)
     e45:	f0 1b 00             	lock sbb (%eax),%eax
     e48:	00 03                	add    %al,(%ebx)
     e4a:	00 91 a8 7e f0 1b    	add    %dl,0x1bf07ea8(%ecx)
     e50:	00 00                	add    %al,(%eax)
     e52:	25 1c 00 00 03       	and    $0x300001c,%eax
     e57:	00 91 c4 7e 25 1c    	add    %dl,0x1c257ec4(%ecx)
     e5d:	00 00                	add    %al,(%eax)
     e5f:	b6 1c                	mov    $0x1c,%dh
     e61:	00 00                	add    %al,(%eax)
     e63:	03 00                	add    (%eax),%eax
     e65:	91                   	xchg   %eax,%ecx
     e66:	a8 7e                	test   $0x7e,%al
     e68:	b6 1c                	mov    $0x1c,%dh
     e6a:	00 00                	add    %al,(%eax)
     e6c:	cb                   	lret   
     e6d:	1c 00                	sbb    $0x0,%al
     e6f:	00 03                	add    %al,(%ebx)
     e71:	00 91 c4 7e cb 1c    	add    %dl,0x1ccb7ec4(%ecx)
     e77:	00 00                	add    %al,(%eax)
     e79:	84 1e                	test   %bl,(%esi)
     e7b:	00 00                	add    %al,(%eax)
     e7d:	03 00                	add    (%eax),%eax
     e7f:	91                   	xchg   %eax,%ecx
     e80:	a8 7e                	test   $0x7e,%al
     e82:	84 1e                	test   %bl,(%esi)
     e84:	00 00                	add    %al,(%eax)
     e86:	b7 1e                	mov    $0x1e,%bh
     e88:	00 00                	add    %al,(%eax)
     e8a:	03 00                	add    (%eax),%eax
     e8c:	91                   	xchg   %eax,%ecx
     e8d:	c4 7e b7             	les    -0x49(%esi),%edi
     e90:	1e                   	push   %ds
     e91:	00 00                	add    %al,(%eax)
     e93:	db 1e                	fistpl (%esi)
     e95:	00 00                	add    %al,(%eax)
     e97:	03 00                	add    (%eax),%eax
     e99:	91                   	xchg   %eax,%ecx
     e9a:	a8 7e                	test   $0x7e,%al
     e9c:	ee                   	out    %al,(%dx)
     e9d:	1e                   	push   %ds
     e9e:	00 00                	add    %al,(%eax)
     ea0:	f9                   	stc    
     ea1:	1e                   	push   %ds
     ea2:	00 00                	add    %al,(%eax)
     ea4:	03 00                	add    (%eax),%eax
     ea6:	91                   	xchg   %eax,%ecx
     ea7:	a8 7e                	test   $0x7e,%al
	...
     eb1:	fe 00                	incb   (%eax)
     eb3:	00 00                	add    %al,(%eax)
     eb5:	0f 01 00             	sgdtl  (%eax)
     eb8:	00 01                	add    %al,(%ecx)
     eba:	00 53 0f             	add    %dl,0xf(%ebx)
     ebd:	01 00                	add    %eax,(%eax)
     ebf:	00 2d 01 00 00 03    	add    %ch,0x3000001
     ec5:	00 70 7f             	add    %dh,0x7f(%eax)
     ec8:	9f                   	lahf   
	...
     ed1:	6d                   	insl   (%dx),%es:(%edi)
     ed2:	00 00                	add    %al,(%eax)
     ed4:	00 9b 00 00 00 02    	add    %bl,0x2000000(%ebx)
     eda:	00 30                	add    %dh,(%eax)
     edc:	9f                   	lahf   
     edd:	9b                   	fwait
     ede:	00 00                	add    %al,(%eax)
     ee0:	00 e3                	add    %ah,%bl
     ee2:	01 00                	add    %eax,(%eax)
     ee4:	00 03                	add    %al,(%ebx)
     ee6:	00 91 ac 7e ee 01    	add    %dl,0x1ee7eac(%ecx)
     eec:	00 00                	add    %al,(%eax)
     eee:	99                   	cltd   
     eef:	12 00                	adc    (%eax),%al
     ef1:	00 03                	add    %al,(%ebx)
     ef3:	00 91 ac 7e a7 12    	add    %dl,0x12a77eac(%ecx)
     ef9:	00 00                	add    %al,(%eax)
     efb:	a3 18 00 00 03       	mov    %eax,0x3000018
     f00:	00 91 ac 7e d5 18    	add    %dl,0x18d57eac(%ecx)
     f06:	00 00                	add    %al,(%eax)
     f08:	db 1e                	fistpl (%esi)
     f0a:	00 00                	add    %al,(%eax)
     f0c:	03 00                	add    (%eax),%eax
     f0e:	91                   	xchg   %eax,%ecx
     f0f:	ac                   	lods   %ds:(%esi),%al
     f10:	7e ee                	jle    f00 <.debug_loc+0xf00>
     f12:	1e                   	push   %ds
     f13:	00 00                	add    %al,(%eax)
     f15:	f9                   	stc    
     f16:	1e                   	push   %ds
     f17:	00 00                	add    %al,(%eax)
     f19:	03 00                	add    (%eax),%eax
     f1b:	91                   	xchg   %eax,%ecx
     f1c:	ac                   	lods   %ds:(%esi),%al
     f1d:	7e 00                	jle    f1f <.debug_loc+0xf1f>
     f1f:	00 00                	add    %al,(%eax)
     f21:	00 00                	add    %al,(%eax)
     f23:	00 00                	add    %al,(%eax)
     f25:	00 01                	add    %al,(%ecx)
     f27:	01 00                	add    %eax,(%eax)
     f29:	00 2d 01 00 00 02    	add    %ch,0x2000001
     f2f:	00 30                	add    %dh,(%eax)
     f31:	9f                   	lahf   
     f32:	2d 01 00 00 4f       	sub    $0x4f000001,%eax
     f37:	01 00                	add    %eax,(%eax)
     f39:	00 03                	add    %al,(%ebx)
     f3b:	00 91 b8 7e 53 01    	add    %dl,0x1537eb8(%ecx)
     f41:	00 00                	add    %al,(%eax)
     f43:	69 01 00 00 03 00    	imul   $0x30000,(%ecx),%eax
     f49:	91                   	xchg   %eax,%ecx
     f4a:	b8 7e 69 01 00       	mov    $0x1697e,%eax
     f4f:	00 71 01             	add    %dh,0x1(%ecx)
     f52:	00 00                	add    %al,(%eax)
     f54:	01 00                	add    %eax,(%eax)
     f56:	50                   	push   %eax
     f57:	71 01                	jno    f5a <.debug_loc+0xf5a>
     f59:	00 00                	add    %al,(%eax)
     f5b:	7c 01                	jl     f5e <.debug_loc+0xf5e>
     f5d:	00 00                	add    %al,(%eax)
     f5f:	03 00                	add    (%eax),%eax
     f61:	91                   	xchg   %eax,%ecx
     f62:	b8 7e ee 01 00       	mov    $0x1ee7e,%eax
     f67:	00 be 04 00 00 03    	add    %bh,0x3000004(%esi)
     f6d:	00 91 b8 7e e6 04    	add    %dl,0x4e67eb8(%ecx)
     f73:	00 00                	add    %al,(%eax)
     f75:	99                   	cltd   
     f76:	12 00                	adc    (%eax),%al
     f78:	00 03                	add    %al,(%ebx)
     f7a:	00 91 b8 7e a7 12    	add    %dl,0x12a77eb8(%ecx)
     f80:	00 00                	add    %al,(%eax)
     f82:	a3 18 00 00 03       	mov    %eax,0x3000018
     f87:	00 91 b8 7e d5 18    	add    %dl,0x18d57eb8(%ecx)
     f8d:	00 00                	add    %al,(%eax)
     f8f:	db 1e                	fistpl (%esi)
     f91:	00 00                	add    %al,(%eax)
     f93:	03 00                	add    (%eax),%eax
     f95:	91                   	xchg   %eax,%ecx
     f96:	b8 7e ee 1e 00       	mov    $0x1eee7e,%eax
     f9b:	00 f9                	add    %bh,%cl
     f9d:	1e                   	push   %ds
     f9e:	00 00                	add    %al,(%eax)
     fa0:	03 00                	add    (%eax),%eax
     fa2:	91                   	xchg   %eax,%ecx
     fa3:	b8 7e 00 00 00       	mov    $0x7e,%eax
     fa8:	00 00                	add    %al,(%eax)
     faa:	00 00                	add    %al,(%eax)
     fac:	00 01                	add    %al,(%ecx)
     fae:	01 00                	add    %eax,(%eax)
     fb0:	00 2d 01 00 00 03    	add    %ch,0x3000001
     fb6:	00 09                	add    %cl,(%ecx)
     fb8:	ff 9f 2d 01 00 00    	lcall  *0x12d(%edi)
     fbe:	4f                   	dec    %edi
     fbf:	01 00                	add    %eax,(%eax)
     fc1:	00 03                	add    %al,(%ebx)
     fc3:	00 91 bc 7e 53 01    	add    %dl,0x1537ebc(%ecx)
     fc9:	00 00                	add    %al,(%eax)
     fcb:	7c 01                	jl     fce <.debug_loc+0xfce>
     fcd:	00 00                	add    %al,(%eax)
     fcf:	03 00                	add    (%eax),%eax
     fd1:	91                   	xchg   %eax,%ecx
     fd2:	bc 7e ee 01 00       	mov    $0x1ee7e,%esp
     fd7:	00 8a 02 00 00 03    	add    %cl,0x3000002(%edx)
     fdd:	00 91 bc 7e a6 03    	add    %dl,0x3a67ebc(%ecx)
     fe3:	00 00                	add    %al,(%eax)
     fe5:	dc 05 00 00 03 00    	faddl  0x30000
     feb:	91                   	xchg   %eax,%ecx
     fec:	bc 7e eb 05 00       	mov    $0x5eb7e,%esp
     ff1:	00 14 06             	add    %dl,(%esi,%eax,1)
     ff4:	00 00                	add    %al,(%eax)
     ff6:	03 00                	add    (%eax),%eax
     ff8:	91                   	xchg   %eax,%ecx
     ff9:	bc 7e 53 06 00       	mov    $0x6537e,%esp
     ffe:	00 5e 06             	add    %bl,0x6(%esi)
    1001:	00 00                	add    %al,(%eax)
    1003:	01 00                	add    %eax,(%eax)
    1005:	57                   	push   %edi
    1006:	5e                   	pop    %esi
    1007:	06                   	push   %es
    1008:	00 00                	add    %al,(%eax)
    100a:	87 08                	xchg   %ecx,(%eax)
    100c:	00 00                	add    %al,(%eax)
    100e:	03 00                	add    (%eax),%eax
    1010:	91                   	xchg   %eax,%ecx
    1011:	bc 7e 9c 08 00       	mov    $0x89c7e,%esp
    1016:	00 f4                	add    %dh,%ah
    1018:	08 00                	or     %al,(%eax)
    101a:	00 03                	add    %al,(%ebx)
    101c:	00 91 bc 7e fa 0c    	add    %dl,0xcfa7ebc(%ecx)
    1022:	00 00                	add    %al,(%eax)
    1024:	48                   	dec    %eax
    1025:	0d 00 00 03 00       	or     $0x30000,%eax
    102a:	91                   	xchg   %eax,%ecx
    102b:	bc 7e e2 0f 00       	mov    $0xfe27e,%esp
    1030:	00 3a                	add    %bh,(%edx)
    1032:	10 00                	adc    %al,(%eax)
    1034:	00 03                	add    %al,(%ebx)
    1036:	00 91 bc 7e 32 11    	add    %dl,0x11327ebc(%ecx)
    103c:	00 00                	add    %al,(%eax)
    103e:	ad                   	lods   %ds:(%esi),%eax
    103f:	11 00                	adc    %eax,(%eax)
    1041:	00 03                	add    %al,(%ebx)
    1043:	00 91 bc 7e 8c 12    	add    %dl,0x128c7ebc(%ecx)
    1049:	00 00                	add    %al,(%eax)
    104b:	99                   	cltd   
    104c:	12 00                	adc    (%eax),%al
    104e:	00 03                	add    %al,(%ebx)
    1050:	00 91 bc 7e 01 15    	add    %dl,0x15017ebc(%ecx)
    1056:	00 00                	add    %al,(%eax)
    1058:	60                   	pusha  
    1059:	15 00 00 03 00       	adc    $0x30000,%eax
    105e:	91                   	xchg   %eax,%ecx
    105f:	bc 7e 6f 15 00       	mov    $0x156f7e,%esp
    1064:	00 82 15 00 00 03    	add    %al,0x3000015(%edx)
    106a:	00 91 bc 7e ba 16    	add    %dl,0x16ba7ebc(%ecx)
    1070:	00 00                	add    %al,(%eax)
    1072:	40                   	inc    %eax
    1073:	18 00                	sbb    %al,(%eax)
    1075:	00 03                	add    %al,(%ebx)
    1077:	00 91 bc 7e 84 18    	add    %dl,0x18847ebc(%ecx)
    107d:	00 00                	add    %al,(%eax)
    107f:	a3 18 00 00 03       	mov    %eax,0x3000018
    1084:	00 91 bc 7e d5 19    	add    %dl,0x19d57ebc(%ecx)
    108a:	00 00                	add    %al,(%eax)
    108c:	df 19                	fistp  (%ecx)
    108e:	00 00                	add    %al,(%eax)
    1090:	03 00                	add    (%eax),%eax
    1092:	91                   	xchg   %eax,%ecx
    1093:	bc 7e e4 19 00       	mov    $0x19e47e,%esp
    1098:	00 f7                	add    %dh,%bh
    109a:	19 00                	sbb    %eax,(%eax)
    109c:	00 03                	add    %al,(%ebx)
    109e:	00 91 bc 7e 9f 1a    	add    %dl,0x1a9f7ebc(%ecx)
    10a4:	00 00                	add    %al,(%eax)
    10a6:	b4 1a                	mov    $0x1a,%ah
    10a8:	00 00                	add    %al,(%eax)
    10aa:	03 00                	add    (%eax),%eax
    10ac:	91                   	xchg   %eax,%ecx
    10ad:	bc 7e ec 1a 00       	mov    $0x1aec7e,%esp
    10b2:	00 ad 1b 00 00 03    	add    %ch,0x300001b(%ebp)
    10b8:	00 91 bc 7e b8 1b    	add    %dl,0x1bb87ebc(%ecx)
    10be:	00 00                	add    %al,(%eax)
    10c0:	0a 1c 00             	or     (%eax,%eax,1),%bl
    10c3:	00 03                	add    %al,(%ebx)
    10c5:	00 91 bc 7e 25 1c    	add    %dl,0x1c257ebc(%ecx)
    10cb:	00 00                	add    %al,(%eax)
    10cd:	c6                   	(bad)  
    10ce:	1c 00                	sbb    $0x0,%al
    10d0:	00 03                	add    %al,(%ebx)
    10d2:	00 91 bc 7e cb 1c    	add    %dl,0x1ccb7ebc(%ecx)
    10d8:	00 00                	add    %al,(%eax)
    10da:	a0 1e 00 00 03       	mov    0x300001e,%al
    10df:	00 91 bc 7e a0 1e    	add    %dl,0x1ea07ebc(%ecx)
    10e5:	00 00                	add    %al,(%eax)
    10e7:	b7 1e                	mov    $0x1e,%bh
    10e9:	00 00                	add    %al,(%eax)
    10eb:	01 00                	add    %eax,(%eax)
    10ed:	52                   	push   %edx
    10ee:	b7 1e                	mov    $0x1e,%bh
    10f0:	00 00                	add    %al,(%eax)
    10f2:	db 1e                	fistpl (%esi)
    10f4:	00 00                	add    %al,(%eax)
    10f6:	03 00                	add    (%eax),%eax
    10f8:	91                   	xchg   %eax,%ecx
    10f9:	bc 7e ee 1e 00       	mov    $0x1eee7e,%esp
    10fe:	00 f9                	add    %bh,%cl
    1100:	1e                   	push   %ds
    1101:	00 00                	add    %al,(%eax)
    1103:	03 00                	add    (%eax),%eax
    1105:	91                   	xchg   %eax,%ecx
    1106:	bc 7e 00 00 00       	mov    $0x7e,%esp
    110b:	00 00                	add    %al,(%eax)
    110d:	00 00                	add    %al,(%eax)
    110f:	00 22                	add    %ah,(%edx)
    1111:	00 00                	add    %al,(%eax)
    1113:	00 26                	add    %ah,(%esi)
    1115:	00 00                	add    %al,(%eax)
    1117:	00 01                	add    %al,(%ecx)
    1119:	00 50 26             	add    %dl,0x26(%eax)
    111c:	00 00                	add    %al,(%eax)
    111e:	00 9b 00 00 00 03    	add    %bl,0x3000000(%ebx)
    1124:	00 91 84 7e a3 18    	add    %dl,0x18a37e84(%ecx)
    112a:	00 00                	add    %al,(%eax)
    112c:	d5 18                	aad    $0x18
    112e:	00 00                	add    %al,(%eax)
    1130:	03 00                	add    (%eax),%eax
    1132:	91                   	xchg   %eax,%ecx
    1133:	84 7e db             	test   %bh,-0x25(%esi)
    1136:	1e                   	push   %ds
    1137:	00 00                	add    %al,(%eax)
    1139:	ee                   	out    %al,(%dx)
    113a:	1e                   	push   %ds
    113b:	00 00                	add    %al,(%eax)
    113d:	03 00                	add    (%eax),%eax
    113f:	91                   	xchg   %eax,%ecx
    1140:	84 7e 00             	test   %bh,0x0(%esi)
    1143:	00 00                	add    %al,(%eax)
    1145:	00 00                	add    %al,(%eax)
    1147:	00 00                	add    %al,(%eax)
    1149:	00 2d 00 00 00 30    	add    %ch,0x30000000
    114f:	00 00                	add    %al,(%eax)
    1151:	00 01                	add    %al,(%ecx)
    1153:	00 50 30             	add    %dl,0x30(%eax)
    1156:	00 00                	add    %al,(%eax)
    1158:	00 9b 00 00 00 03    	add    %bl,0x3000000(%ebx)
    115e:	00 91 80 7e a3 18    	add    %dl,0x18a37e80(%ecx)
    1164:	00 00                	add    %al,(%eax)
    1166:	d5 18                	aad    $0x18
    1168:	00 00                	add    %al,(%eax)
    116a:	03 00                	add    (%eax),%eax
    116c:	91                   	xchg   %eax,%ecx
    116d:	80 7e db 1e          	cmpb   $0x1e,-0x25(%esi)
    1171:	00 00                	add    %al,(%eax)
    1173:	ee                   	out    %al,(%dx)
    1174:	1e                   	push   %ds
    1175:	00 00                	add    %al,(%eax)
    1177:	03 00                	add    (%eax),%eax
    1179:	91                   	xchg   %eax,%ecx
    117a:	80 7e 00 00          	cmpb   $0x0,0x0(%esi)
    117e:	00 00                	add    %al,(%eax)
    1180:	00 00                	add    %al,(%eax)
    1182:	00 00                	add    %al,(%eax)
    1184:	1b 17                	sbb    (%edi),%edx
    1186:	00 00                	add    %al,(%eax)
    1188:	29 18                	sub    %ebx,(%eax)
    118a:	00 00                	add    %al,(%eax)
    118c:	03 00                	add    (%eax),%eax
    118e:	91                   	xchg   %eax,%ecx
    118f:	c0 7e 84 18          	sarb   $0x18,-0x7c(%esi)
    1193:	00 00                	add    %al,(%eax)
    1195:	a3 18 00 00 03       	mov    %eax,0x3000018
    119a:	00 91 c0 7e fd 1a    	add    %dl,0x1afd7ec0(%ecx)
    11a0:	00 00                	add    %al,(%eax)
    11a2:	91                   	xchg   %eax,%ecx
    11a3:	1b 00                	sbb    (%eax),%eax
    11a5:	00 03                	add    %al,(%ebx)
    11a7:	00 91 c0 7e b8 1b    	add    %dl,0x1bb87ec0(%ecx)
    11ad:	00 00                	add    %al,(%eax)
    11af:	f0 1b 00             	lock sbb (%eax),%eax
    11b2:	00 03                	add    %al,(%ebx)
    11b4:	00 91 c0 7e 25 1c    	add    %dl,0x1c257ec0(%ecx)
    11ba:	00 00                	add    %al,(%eax)
    11bc:	b6 1c                	mov    $0x1c,%dh
    11be:	00 00                	add    %al,(%eax)
    11c0:	03 00                	add    (%eax),%eax
    11c2:	91                   	xchg   %eax,%ecx
    11c3:	c0 7e cb 1c          	sarb   $0x1c,-0x35(%esi)
    11c7:	00 00                	add    %al,(%eax)
    11c9:	d5 1c                	aad    $0x1c
    11cb:	00 00                	add    %al,(%eax)
    11cd:	03 00                	add    (%eax),%eax
    11cf:	91                   	xchg   %eax,%ecx
    11d0:	c0 7e d7 1c          	sarb   $0x1c,-0x29(%esi)
    11d4:	00 00                	add    %al,(%eax)
    11d6:	e3 1c                	jecxz  11f4 <.debug_loc+0x11f4>
    11d8:	00 00                	add    %al,(%eax)
    11da:	03 00                	add    (%eax),%eax
    11dc:	08 2d 9f e3 1c 00    	or     %ch,0x1ce39f
    11e2:	00 84 1e 00 00 03 00 	add    %al,0x30000(%esi,%ebx,1)
    11e9:	91                   	xchg   %eax,%ecx
    11ea:	c0 7e b7 1e          	sarb   $0x1e,-0x49(%esi)
    11ee:	00 00                	add    %al,(%eax)
    11f0:	db 1e                	fistpl (%esi)
    11f2:	00 00                	add    %al,(%eax)
    11f4:	03 00                	add    (%eax),%eax
    11f6:	91                   	xchg   %eax,%ecx
    11f7:	c0 7e ee 1e          	sarb   $0x1e,-0x12(%esi)
    11fb:	00 00                	add    %al,(%eax)
    11fd:	f9                   	stc    
    11fe:	1e                   	push   %ds
    11ff:	00 00                	add    %al,(%eax)
    1201:	03 00                	add    (%eax),%eax
    1203:	91                   	xchg   %eax,%ecx
    1204:	c0 7e 00 00          	sarb   $0x0,0x0(%esi)
    1208:	00 00                	add    %al,(%eax)
    120a:	00 00                	add    %al,(%eax)
    120c:	00 00                	add    %al,(%eax)
    120e:	2d 00 00 00 9b       	sub    $0x9b000000,%eax
    1213:	00 00                	add    %al,(%eax)
    1215:	00 0c 00             	add    %cl,(%eax,%eax,1)
    1218:	9e                   	sahf   
    1219:	08 00                	or     %al,(%eax)
    121b:	00 00                	add    %al,(%eax)
    121d:	00 00                	add    %al,(%eax)
    121f:	00 00                	add    %al,(%eax)
    1221:	00 93 08 9b 00 00    	add    %dl,0x9b08(%ebx)
    1227:	00 e3                	add    %ah,%bl
    1229:	01 00                	add    %eax,(%eax)
    122b:	00 05 00 91 88 7e    	add    %al,0x7e889100
    1231:	93                   	xchg   %eax,%ebx
    1232:	08 ee                	or     %ch,%dh
    1234:	01 00                	add    %eax,(%eax)
    1236:	00 68 05             	add    %ch,0x5(%eax)
    1239:	00 00                	add    %al,(%eax)
    123b:	05 00 91 88 7e       	add    $0x7e889100,%eax
    1240:	93                   	xchg   %eax,%ebx
    1241:	08 68 05             	or     %ch,0x5(%eax)
    1244:	00 00                	add    %al,(%eax)
    1246:	99                   	cltd   
    1247:	12 00                	adc    (%eax),%al
    1249:	00 05 00 91 88 7e    	add    %al,0x7e889100
    124f:	93                   	xchg   %eax,%ebx
    1250:	08 a7 12 00 00 7a    	or     %ah,0x7a000012(%edi)
    1256:	15 00 00 05 00       	adc    $0x50000,%eax
    125b:	91                   	xchg   %eax,%ecx
    125c:	88 7e 93             	mov    %bh,-0x6d(%esi)
    125f:	08 7a 15             	or     %bh,0x15(%edx)
    1262:	00 00                	add    %al,(%eax)
    1264:	82                   	(bad)  
    1265:	15 00 00 03 00       	adc    $0x30000,%eax
    126a:	5b                   	pop    %ebx
    126b:	93                   	xchg   %eax,%ebx
    126c:	08 82 15 00 00 a3    	or     %al,-0x5cffffeb(%edx)
    1272:	18 00                	sbb    %al,(%eax)
    1274:	00 05 00 91 88 7e    	add    %al,0x7e889100
    127a:	93                   	xchg   %eax,%ebx
    127b:	08 a3 18 00 00 d5    	or     %ah,-0x2affffe8(%ebx)
    1281:	18 00                	sbb    %al,(%eax)
    1283:	00 0c 00             	add    %cl,(%eax,%eax,1)
    1286:	9e                   	sahf   
    1287:	08 00                	or     %al,(%eax)
    1289:	00 00                	add    %al,(%eax)
    128b:	00 00                	add    %al,(%eax)
    128d:	00 00                	add    %al,(%eax)
    128f:	00 93 08 d5 18 00    	add    %dl,0x18d508(%ebx)
    1295:	00 db                	add    %bl,%bl
    1297:	1e                   	push   %ds
    1298:	00 00                	add    %al,(%eax)
    129a:	05 00 91 88 7e       	add    $0x7e889100,%eax
    129f:	93                   	xchg   %eax,%ebx
    12a0:	08 db                	or     %bl,%bl
    12a2:	1e                   	push   %ds
    12a3:	00 00                	add    %al,(%eax)
    12a5:	ee                   	out    %al,(%dx)
    12a6:	1e                   	push   %ds
    12a7:	00 00                	add    %al,(%eax)
    12a9:	0c 00                	or     $0x0,%al
    12ab:	9e                   	sahf   
    12ac:	08 00                	or     %al,(%eax)
    12ae:	00 00                	add    %al,(%eax)
    12b0:	00 00                	add    %al,(%eax)
    12b2:	00 00                	add    %al,(%eax)
    12b4:	00 93 08 ee 1e 00    	add    %dl,0x1eee08(%ebx)
    12ba:	00 f9                	add    %bh,%cl
    12bc:	1e                   	push   %ds
    12bd:	00 00                	add    %al,(%eax)
    12bf:	05 00 91 88 7e       	add    $0x7e889100,%eax
    12c4:	93                   	xchg   %eax,%ebx
    12c5:	08 00                	or     %al,(%eax)
    12c7:	00 00                	add    %al,(%eax)
    12c9:	00 00                	add    %al,(%eax)
    12cb:	00 00                	add    %al,(%eax)
    12cd:	00 2d 00 00 00 9b    	add    %ch,0x9b000000
    12d3:	00 00                	add    %al,(%eax)
    12d5:	00 02                	add    %al,(%edx)
    12d7:	00 30                	add    %dh,(%eax)
    12d9:	9f                   	lahf   
    12da:	9b                   	fwait
    12db:	00 00                	add    %al,(%eax)
    12dd:	00 e3                	add    %ah,%bl
    12df:	01 00                	add    %eax,(%eax)
    12e1:	00 03                	add    %al,(%ebx)
    12e3:	00 91 fc 7d ee 01    	add    %dl,0x1ee7dfc(%ecx)
    12e9:	00 00                	add    %al,(%eax)
    12eb:	99                   	cltd   
    12ec:	12 00                	adc    (%eax),%al
    12ee:	00 03                	add    %al,(%ebx)
    12f0:	00 91 fc 7d a7 12    	add    %dl,0x12a77dfc(%ecx)
    12f6:	00 00                	add    %al,(%eax)
    12f8:	a3 18 00 00 03       	mov    %eax,0x3000018
    12fd:	00 91 fc 7d a3 18    	add    %dl,0x18a37dfc(%ecx)
    1303:	00 00                	add    %al,(%eax)
    1305:	d5 18                	aad    $0x18
    1307:	00 00                	add    %al,(%eax)
    1309:	02 00                	add    (%eax),%al
    130b:	30 9f d5 18 00 00    	xor    %bl,0x18d5(%edi)
    1311:	84 1c 00             	test   %bl,(%eax,%eax,1)
    1314:	00 03                	add    %al,(%ebx)
    1316:	00 91 fc 7d b6 1c    	add    %dl,0x1cb67dfc(%ecx)
    131c:	00 00                	add    %al,(%eax)
    131e:	b7 1e                	mov    $0x1e,%bh
    1320:	00 00                	add    %al,(%eax)
    1322:	03 00                	add    (%eax),%eax
    1324:	91                   	xchg   %eax,%ecx
    1325:	fc                   	cld    
    1326:	7d db                	jge    1303 <.debug_loc+0x1303>
    1328:	1e                   	push   %ds
    1329:	00 00                	add    %al,(%eax)
    132b:	ee                   	out    %al,(%dx)
    132c:	1e                   	push   %ds
    132d:	00 00                	add    %al,(%eax)
    132f:	02 00                	add    (%eax),%al
    1331:	30 9f ee 1e 00 00    	xor    %bl,0x1eee(%edi)
    1337:	f9                   	stc    
    1338:	1e                   	push   %ds
    1339:	00 00                	add    %al,(%eax)
    133b:	03 00                	add    (%eax),%eax
    133d:	91                   	xchg   %eax,%ecx
    133e:	fc                   	cld    
    133f:	7d 00                	jge    1341 <.debug_loc+0x1341>
    1341:	00 00                	add    %al,(%eax)
    1343:	00 00                	add    %al,(%eax)
    1345:	00 00                	add    %al,(%eax)
    1347:	00 0d 01 00 00 7c    	add    %cl,0x7c000001
    134d:	01 00                	add    %eax,(%eax)
    134f:	00 02                	add    %al,(%edx)
    1351:	00 30                	add    %dh,(%eax)
    1353:	9f                   	lahf   
    1354:	ee                   	out    %al,(%dx)
    1355:	01 00                	add    %eax,(%eax)
    1357:	00 94 02 00 00 02 00 	add    %dl,0x20000(%edx,%eax,1)
    135e:	30 9f 94 02 00 00    	xor    %bl,0x294(%edi)
    1364:	a3 02 00 00 03       	mov    %eax,0x3000002
    1369:	00 91 98 7e a6 03    	add    %dl,0x3a67e98(%ecx)
    136f:	00 00                	add    %al,(%eax)
    1371:	f4                   	hlt    
    1372:	08 00                	or     %al,(%eax)
    1374:	00 02                	add    %al,(%edx)
    1376:	00 30                	add    %dh,(%eax)
    1378:	9f                   	lahf   
    1379:	fa                   	cli    
    137a:	0c 00                	or     $0x0,%al
    137c:	00 48 0d             	add    %cl,0xd(%eax)
    137f:	00 00                	add    %al,(%eax)
    1381:	02 00                	add    (%eax),%al
    1383:	30 9f e2 0f 00 00    	xor    %bl,0xfe2(%edi)
    1389:	3a 10                	cmp    (%eax),%dl
    138b:	00 00                	add    %al,(%eax)
    138d:	02 00                	add    (%eax),%al
    138f:	30 9f 32 11 00 00    	xor    %bl,0x1132(%edi)
    1395:	ad                   	lods   %ds:(%esi),%eax
    1396:	11 00                	adc    %eax,(%eax)
    1398:	00 02                	add    %al,(%edx)
    139a:	00 30                	add    %dh,(%eax)
    139c:	9f                   	lahf   
    139d:	8c 12                	mov    %ss,(%edx)
    139f:	00 00                	add    %al,(%eax)
    13a1:	a7                   	cmpsl  %es:(%edi),%ds:(%esi)
    13a2:	12 00                	adc    (%eax),%al
    13a4:	00 02                	add    %al,(%edx)
    13a6:	00 30                	add    %dh,(%eax)
    13a8:	9f                   	lahf   
    13a9:	01 15 00 00 82 15    	add    %edx,0x15820000
    13af:	00 00                	add    %al,(%eax)
    13b1:	02 00                	add    (%eax),%al
    13b3:	30 9f ba 16 00 00    	xor    %bl,0x16ba(%edi)
    13b9:	16                   	push   %ss
    13ba:	18 00                	sbb    %al,(%eax)
    13bc:	00 02                	add    %al,(%edx)
    13be:	00 30                	add    %dh,(%eax)
    13c0:	9f                   	lahf   
    13c1:	16                   	push   %ss
    13c2:	18 00                	sbb    %al,(%eax)
    13c4:	00 4b 18             	add    %cl,0x18(%ebx)
    13c7:	00 00                	add    %al,(%eax)
    13c9:	03 00                	add    (%eax),%eax
    13cb:	91                   	xchg   %eax,%ecx
    13cc:	98                   	cwtl   
    13cd:	7e 84                	jle    1353 <.debug_loc+0x1353>
    13cf:	18 00                	sbb    %al,(%eax)
    13d1:	00 a3 18 00 00 02    	add    %ah,0x2000018(%ebx)
    13d7:	00 30                	add    %dh,(%eax)
    13d9:	9f                   	lahf   
    13da:	d5 19                	aad    $0x19
    13dc:	00 00                	add    %al,(%eax)
    13de:	f7 19                	negl   (%ecx)
    13e0:	00 00                	add    %al,(%eax)
    13e2:	02 00                	add    (%eax),%al
    13e4:	30 9f 9f 1a 00 00    	xor    %bl,0x1a9f(%edi)
    13ea:	8b 1b                	mov    (%ebx),%ebx
    13ec:	00 00                	add    %al,(%eax)
    13ee:	02 00                	add    (%eax),%al
    13f0:	30 9f 8b 1b 00 00    	xor    %bl,0x1b8b(%edi)
    13f6:	b8 1b 00 00 03       	mov    $0x300001b,%eax
    13fb:	00 91 98 7e b8 1b    	add    %dl,0x1bb87e98(%ecx)
    1401:	00 00                	add    %al,(%eax)
    1403:	46                   	inc    %esi
    1404:	1e                   	push   %ds
    1405:	00 00                	add    %al,(%eax)
    1407:	02 00                	add    (%eax),%al
    1409:	30 9f 46 1e 00 00    	xor    %bl,0x1e46(%edi)
    140f:	4b                   	dec    %ebx
    1410:	1e                   	push   %ds
    1411:	00 00                	add    %al,(%eax)
    1413:	03 00                	add    (%eax),%eax
    1415:	91                   	xchg   %eax,%ecx
    1416:	98                   	cwtl   
    1417:	7e 4b                	jle    1464 <.debug_loc+0x1464>
    1419:	1e                   	push   %ds
    141a:	00 00                	add    %al,(%eax)
    141c:	db 1e                	fistpl (%esi)
    141e:	00 00                	add    %al,(%eax)
    1420:	02 00                	add    (%eax),%al
    1422:	30 9f ee 1e 00 00    	xor    %bl,0x1eee(%edi)
    1428:	f9                   	stc    
    1429:	1e                   	push   %ds
    142a:	00 00                	add    %al,(%eax)
    142c:	02 00                	add    (%eax),%al
    142e:	30 9f 00 00 00 00    	xor    %bl,0x0(%edi)
    1434:	00 00                	add    %al,(%eax)
    1436:	00 00                	add    %al,(%eax)
    1438:	2d 00 00 00 9b       	sub    $0x9b000000,%eax
    143d:	00 00                	add    %al,(%eax)
    143f:	00 02                	add    %al,(%edx)
    1441:	00 30                	add    %dh,(%eax)
    1443:	9f                   	lahf   
    1444:	9b                   	fwait
    1445:	00 00                	add    %al,(%eax)
    1447:	00 e3                	add    %ah,%bl
    1449:	01 00                	add    %eax,(%eax)
    144b:	00 03                	add    %al,(%ebx)
    144d:	00 91 94 7e ee 01    	add    %dl,0x1ee7e94(%ecx)
    1453:	00 00                	add    %al,(%eax)
    1455:	99                   	cltd   
    1456:	12 00                	adc    (%eax),%al
    1458:	00 03                	add    %al,(%ebx)
    145a:	00 91 94 7e a7 12    	add    %dl,0x12a77e94(%ecx)
    1460:	00 00                	add    %al,(%eax)
    1462:	ae                   	scas   %es:(%edi),%al
    1463:	17                   	pop    %ss
    1464:	00 00                	add    %al,(%eax)
    1466:	03 00                	add    (%eax),%eax
    1468:	91                   	xchg   %eax,%ecx
    1469:	94                   	xchg   %eax,%esp
    146a:	7e ae                	jle    141a <.debug_loc+0x141a>
    146c:	17                   	pop    %ss
    146d:	00 00                	add    %al,(%eax)
    146f:	c1 17 00             	rcll   $0x0,(%edi)
    1472:	00 01                	add    %al,(%ecx)
    1474:	00 50 c1             	add    %dl,-0x3f(%eax)
    1477:	17                   	pop    %ss
    1478:	00 00                	add    %al,(%eax)
    147a:	a3 18 00 00 03       	mov    %eax,0x3000018
    147f:	00 91 94 7e a3 18    	add    %dl,0x18a37e94(%ecx)
    1485:	00 00                	add    %al,(%eax)
    1487:	d5 18                	aad    $0x18
    1489:	00 00                	add    %al,(%eax)
    148b:	02 00                	add    (%eax),%al
    148d:	30 9f d5 18 00 00    	xor    %bl,0x18d5(%edi)
    1493:	c6                   	(bad)  
    1494:	1b 00                	sbb    (%eax),%eax
    1496:	00 03                	add    %al,(%ebx)
    1498:	00 91 94 7e d2 1b    	add    %dl,0x1bd27e94(%ecx)
    149e:	00 00                	add    %al,(%eax)
    14a0:	db 1e                	fistpl (%esi)
    14a2:	00 00                	add    %al,(%eax)
    14a4:	03 00                	add    (%eax),%eax
    14a6:	91                   	xchg   %eax,%ecx
    14a7:	94                   	xchg   %eax,%esp
    14a8:	7e db                	jle    1485 <.debug_loc+0x1485>
    14aa:	1e                   	push   %ds
    14ab:	00 00                	add    %al,(%eax)
    14ad:	ee                   	out    %al,(%dx)
    14ae:	1e                   	push   %ds
    14af:	00 00                	add    %al,(%eax)
    14b1:	02 00                	add    (%eax),%al
    14b3:	30 9f ee 1e 00 00    	xor    %bl,0x1eee(%edi)
    14b9:	f9                   	stc    
    14ba:	1e                   	push   %ds
    14bb:	00 00                	add    %al,(%eax)
    14bd:	03 00                	add    (%eax),%eax
    14bf:	91                   	xchg   %eax,%ecx
    14c0:	94                   	xchg   %eax,%esp
    14c1:	7e 00                	jle    14c3 <.debug_loc+0x14c3>
    14c3:	00 00                	add    %al,(%eax)
    14c5:	00 00                	add    %al,(%eax)
    14c7:	00 00                	add    %al,(%eax)
    14c9:	00 da                	add    %bl,%dl
    14cb:	03 00                	add    (%eax),%eax
    14cd:	00 56 04             	add    %dl,0x4(%esi)
    14d0:	00 00                	add    %al,(%eax)
    14d2:	01 00                	add    %eax,(%eax)
    14d4:	51                   	push   %ecx
    14d5:	22 05 00 00 3b 05    	and    0x53b0000,%al
    14db:	00 00                	add    %al,(%eax)
    14dd:	01 00                	add    %eax,(%eax)
    14df:	51                   	push   %ecx
    14e0:	6d                   	insl   (%dx),%es:(%edi)
    14e1:	06                   	push   %es
    14e2:	00 00                	add    %al,(%eax)
    14e4:	9f                   	lahf   
    14e5:	06                   	push   %es
    14e6:	00 00                	add    %al,(%eax)
    14e8:	01 00                	add    %eax,(%eax)
    14ea:	51                   	push   %ecx
    14eb:	75 07                	jne    14f4 <.debug_loc+0x14f4>
    14ed:	00 00                	add    %al,(%eax)
    14ef:	95                   	xchg   %eax,%ebp
    14f0:	07                   	pop    %es
    14f1:	00 00                	add    %al,(%eax)
    14f3:	01 00                	add    %eax,(%eax)
    14f5:	51                   	push   %ecx
    14f6:	da 07                	fiaddl (%edi)
    14f8:	00 00                	add    %al,(%eax)
    14fa:	14 08                	adc    $0x8,%al
    14fc:	00 00                	add    %al,(%eax)
    14fe:	01 00                	add    %eax,(%eax)
    1500:	51                   	push   %ecx
    1501:	fa                   	cli    
    1502:	0c 00                	or     $0x0,%al
    1504:	00 48 0d             	add    %cl,0xd(%eax)
    1507:	00 00                	add    %al,(%eax)
    1509:	01 00                	add    %eax,(%eax)
    150b:	51                   	push   %ecx
    150c:	e2 0f                	loop   151d <.debug_loc+0x151d>
    150e:	00 00                	add    %al,(%eax)
    1510:	3a 10                	cmp    (%eax),%dl
    1512:	00 00                	add    %al,(%eax)
    1514:	01 00                	add    %eax,(%eax)
    1516:	51                   	push   %ecx
    1517:	32 11                	xor    (%ecx),%dl
    1519:	00 00                	add    %al,(%eax)
    151b:	59                   	pop    %ecx
    151c:	11 00                	adc    %eax,(%eax)
    151e:	00 01                	add    %al,(%ecx)
    1520:	00 51 62             	add    %dl,0x62(%ecx)
    1523:	11 00                	adc    %eax,(%eax)
    1525:	00 66 11             	add    %ah,0x11(%esi)
    1528:	00 00                	add    %al,(%eax)
    152a:	01 00                	add    %eax,(%eax)
    152c:	52                   	push   %edx
    152d:	66 11 00             	adc    %ax,(%eax)
    1530:	00 72 11             	add    %dh,0x11(%edx)
    1533:	00 00                	add    %al,(%eax)
    1535:	01 00                	add    %eax,(%eax)
    1537:	51                   	push   %ecx
    1538:	82                   	(bad)  
    1539:	11 00                	adc    %eax,(%eax)
    153b:	00 96 11 00 00 01    	add    %dl,0x1000011(%esi)
    1541:	00 51 96             	add    %dl,-0x6a(%ecx)
    1544:	11 00                	adc    %eax,(%eax)
    1546:	00 ad 11 00 00 03    	add    %ch,0x3000011(%ebp)
    154c:	00 71 50             	add    %dh,0x50(%ecx)
    154f:	9f                   	lahf   
	...
    1558:	da 03                	fiaddl (%ebx)
    155a:	00 00                	add    %al,(%eax)
    155c:	23 04 00             	and    (%eax,%eax,1),%eax
    155f:	00 01                	add    %al,(%ecx)
    1561:	00 50 6d             	add    %dl,0x6d(%eax)
    1564:	06                   	push   %es
    1565:	00 00                	add    %al,(%eax)
    1567:	9f                   	lahf   
    1568:	06                   	push   %es
    1569:	00 00                	add    %al,(%eax)
    156b:	02 00                	add    (%eax),%al
    156d:	32 9f da 07 00 00    	xor    0x7da(%edi),%bl
    1573:	14 08                	adc    $0x8,%al
    1575:	00 00                	add    %al,(%eax)
    1577:	02 00                	add    (%eax),%al
    1579:	32 9f fa 0c 00 00    	xor    0xcfa(%edi),%bl
    157f:	13 0d 00 00 01 00    	adc    0x10000,%ecx
    1585:	50                   	push   %eax
    1586:	2b 0d 00 00 33 0d    	sub    0xd330000,%ecx
    158c:	00 00                	add    %al,(%eax)
    158e:	01 00                	add    %eax,(%eax)
    1590:	50                   	push   %eax
    1591:	32 11                	xor    (%ecx),%dl
    1593:	00 00                	add    %al,(%eax)
    1595:	35 11 00 00 01       	xor    $0x1000011,%eax
    159a:	00 50 82             	add    %dl,-0x7e(%eax)
    159d:	11 00                	adc    %eax,(%eax)
    159f:	00 93 11 00 00 01    	add    %dl,0x1000011(%ebx)
    15a5:	00 50 00             	add    %dl,0x0(%eax)
    15a8:	00 00                	add    %al,(%eax)
    15aa:	00 00                	add    %al,(%eax)
    15ac:	00 00                	add    %al,(%eax)
    15ae:	00 01                	add    %al,(%ecx)
    15b0:	01 00                	add    %eax,(%eax)
    15b2:	00 7c 01 00          	add    %bh,0x0(%ecx,%eax,1)
    15b6:	00 02                	add    %al,(%edx)
    15b8:	00 30                	add    %dh,(%eax)
    15ba:	9f                   	lahf   
    15bb:	ee                   	out    %al,(%dx)
    15bc:	01 00                	add    %eax,(%eax)
    15be:	00 94 02 00 00 02 00 	add    %dl,0x20000(%edx,%eax,1)
    15c5:	30 9f 94 02 00 00    	xor    %bl,0x294(%edi)
    15cb:	9c                   	pushf  
    15cc:	02 00                	add    (%eax),%al
    15ce:	00 03                	add    %al,(%ebx)
    15d0:	00 91 bc 7e a6 03    	add    %dl,0x3a67ebc(%ecx)
    15d6:	00 00                	add    %al,(%eax)
    15d8:	e9 03 00 00 02       	jmp    20015e0 <blanks.3938+0x200146c>
    15dd:	00 30                	add    %dh,(%eax)
    15df:	9f                   	lahf   
    15e0:	e9 03 00 00 7e       	jmp    7e0015e8 <blanks.3938+0x7e001474>
    15e5:	04 00                	add    $0x0,%al
    15e7:	00 03                	add    %al,(%ebx)
    15e9:	00 91 bc 7e 7e 04    	add    %dl,0x47e7ebc(%ecx)
    15ef:	00 00                	add    %al,(%eax)
    15f1:	f4                   	hlt    
    15f2:	08 00                	or     %al,(%eax)
    15f4:	00 02                	add    %al,(%edx)
    15f6:	00 30                	add    %dh,(%eax)
    15f8:	9f                   	lahf   
    15f9:	fa                   	cli    
    15fa:	0c 00                	or     $0x0,%al
    15fc:	00 48 0d             	add    %cl,0xd(%eax)
    15ff:	00 00                	add    %al,(%eax)
    1601:	01 00                	add    %eax,(%eax)
    1603:	52                   	push   %edx
    1604:	e2 0f                	loop   1615 <.debug_loc+0x1615>
    1606:	00 00                	add    %al,(%eax)
    1608:	ea 0f 00 00 01 00 52 	ljmp   $0x5200,$0x100000f
    160f:	ea 0f 00 00 3a 10 00 	ljmp   $0x10,$0x3a00000f
    1616:	00 03                	add    %al,(%ebx)
    1618:	00 91 bc 7e 32 11    	add    %dl,0x11327ebc(%ecx)
    161e:	00 00                	add    %al,(%eax)
    1620:	42                   	inc    %edx
    1621:	11 00                	adc    %eax,(%eax)
    1623:	00 01                	add    %al,(%ecx)
    1625:	00 52 42             	add    %dl,0x42(%edx)
    1628:	11 00                	adc    %eax,(%eax)
    162a:	00 82 11 00 00 03    	add    %al,0x3000011(%edx)
    1630:	00 91 bc 7e 82 11    	add    %dl,0x11827ebc(%ecx)
    1636:	00 00                	add    %al,(%eax)
    1638:	ad                   	lods   %ds:(%esi),%eax
    1639:	11 00                	adc    %eax,(%eax)
    163b:	00 01                	add    %al,(%ecx)
    163d:	00 52 8c             	add    %dl,-0x74(%edx)
    1640:	12 00                	adc    (%eax),%al
    1642:	00 a7 12 00 00 02    	add    %ah,0x2000012(%edi)
    1648:	00 30                	add    %dh,(%eax)
    164a:	9f                   	lahf   
    164b:	01 15 00 00 82 15    	add    %edx,0x15820000
    1651:	00 00                	add    %al,(%eax)
    1653:	02 00                	add    (%eax),%al
    1655:	30 9f ba 16 00 00    	xor    %bl,0x16ba(%edi)
    165b:	4b                   	dec    %ebx
    165c:	18 00                	sbb    %al,(%eax)
    165e:	00 02                	add    %al,(%edx)
    1660:	00 30                	add    %dh,(%eax)
    1662:	9f                   	lahf   
    1663:	84 18                	test   %bl,(%eax)
    1665:	00 00                	add    %al,(%eax)
    1667:	a3 18 00 00 02       	mov    %eax,0x2000018
    166c:	00 30                	add    %dh,(%eax)
    166e:	9f                   	lahf   
    166f:	d5 19                	aad    $0x19
    1671:	00 00                	add    %al,(%eax)
    1673:	f7 19                	negl   (%ecx)
    1675:	00 00                	add    %al,(%eax)
    1677:	02 00                	add    (%eax),%al
    1679:	30 9f 9f 1a 00 00    	xor    %bl,0x1a9f(%edi)
    167f:	db 1e                	fistpl (%esi)
    1681:	00 00                	add    %al,(%eax)
    1683:	02 00                	add    (%eax),%al
    1685:	30 9f ee 1e 00 00    	xor    %bl,0x1eee(%edi)
    168b:	f9                   	stc    
    168c:	1e                   	push   %ds
    168d:	00 00                	add    %al,(%eax)
    168f:	02 00                	add    (%eax),%al
    1691:	30 9f 00 00 00 00    	xor    %bl,0x0(%edi)
    1697:	00 00                	add    %al,(%eax)
    1699:	00 00                	add    %al,(%eax)
    169b:	94                   	xchg   %eax,%esp
    169c:	02 00                	add    (%eax),%al
    169e:	00 9c 02 00 00 03 00 	add    %bl,0x30000(%edx,%eax,1)
    16a5:	91                   	xchg   %eax,%ecx
    16a6:	c0 7e a3 02          	sarb   $0x2,-0x5d(%esi)
    16aa:	00 00                	add    %al,(%eax)
    16ac:	d0 02                	rolb   (%edx)
    16ae:	00 00                	add    %al,(%eax)
    16b0:	03 00                	add    (%eax),%eax
    16b2:	91                   	xchg   %eax,%ecx
    16b3:	c0 7e d0 02          	sarb   $0x2,-0x30(%esi)
    16b7:	00 00                	add    %al,(%eax)
    16b9:	ff 02                	incl   (%edx)
    16bb:	00 00                	add    %al,(%eax)
    16bd:	01 00                	add    %eax,(%eax)
    16bf:	50                   	push   %eax
    16c0:	ff 02                	incl   (%edx)
    16c2:	00 00                	add    %al,(%eax)
    16c4:	a6                   	cmpsb  %es:(%edi),%ds:(%esi)
    16c5:	03 00                	add    (%eax),%eax
    16c7:	00 03                	add    %al,(%ebx)
    16c9:	00 91 c0 7e f4 08    	add    %dl,0x8f47ec0(%ecx)
    16cf:	00 00                	add    %al,(%eax)
    16d1:	fe 08                	decb   (%eax)
    16d3:	00 00                	add    %al,(%eax)
    16d5:	01 00                	add    %eax,(%eax)
    16d7:	50                   	push   %eax
    16d8:	fe 08                	decb   (%eax)
    16da:	00 00                	add    %al,(%eax)
    16dc:	fa                   	cli    
    16dd:	0c 00                	or     $0x0,%al
    16df:	00 03                	add    %al,(%ebx)
    16e1:	00 91 c0 7e 48 0d    	add    %dl,0xd487ec0(%ecx)
    16e7:	00 00                	add    %al,(%eax)
    16e9:	e2 0f                	loop   16fa <.debug_loc+0x16fa>
    16eb:	00 00                	add    %al,(%eax)
    16ed:	03 00                	add    (%eax),%eax
    16ef:	91                   	xchg   %eax,%ecx
    16f0:	c0 7e 3a 10          	sarb   $0x10,0x3a(%esi)
    16f4:	00 00                	add    %al,(%eax)
    16f6:	32 11                	xor    (%ecx),%dl
    16f8:	00 00                	add    %al,(%eax)
    16fa:	03 00                	add    (%eax),%eax
    16fc:	91                   	xchg   %eax,%ecx
    16fd:	c0 7e ad 11          	sarb   $0x11,-0x53(%esi)
    1701:	00 00                	add    %al,(%eax)
    1703:	8c 12                	mov    %ss,(%edx)
    1705:	00 00                	add    %al,(%eax)
    1707:	03 00                	add    (%eax),%eax
    1709:	91                   	xchg   %eax,%ecx
    170a:	c0 7e a7 12          	sarb   $0x12,-0x59(%esi)
    170e:	00 00                	add    %al,(%eax)
    1710:	01 15 00 00 03 00    	add    %edx,0x30000
    1716:	91                   	xchg   %eax,%ecx
    1717:	c0 7e 82 15          	sarb   $0x15,-0x7e(%esi)
    171b:	00 00                	add    %al,(%eax)
    171d:	ba 16 00 00 03       	mov    $0x3000016,%edx
    1722:	00 91 c0 7e 4b 18    	add    %dl,0x184b7ec0(%ecx)
    1728:	00 00                	add    %al,(%eax)
    172a:	84 18                	test   %bl,(%eax)
    172c:	00 00                	add    %al,(%eax)
    172e:	03 00                	add    (%eax),%eax
    1730:	91                   	xchg   %eax,%ecx
    1731:	c0 7e d5 18          	sarb   $0x18,-0x2b(%esi)
    1735:	00 00                	add    %al,(%eax)
    1737:	d5 19                	aad    $0x19
    1739:	00 00                	add    %al,(%eax)
    173b:	03 00                	add    (%eax),%eax
    173d:	91                   	xchg   %eax,%ecx
    173e:	c0 7e f7 19          	sarb   $0x19,-0x9(%esi)
    1742:	00 00                	add    %al,(%eax)
    1744:	9f                   	lahf   
    1745:	1a 00                	sbb    (%eax),%al
    1747:	00 03                	add    %al,(%ebx)
    1749:	00 91 c0 7e 00 00    	add    %dl,0x7ec0(%ecx)
    174f:	00 00                	add    %al,(%eax)
    1751:	00 00                	add    %al,(%eax)
    1753:	00 00                	add    %al,(%eax)
    1755:	5c                   	pop    %esp
    1756:	02 00                	add    (%eax),%al
    1758:	00 61 02             	add    %ah,0x2(%ecx)
    175b:	00 00                	add    %al,(%eax)
    175d:	01 00                	add    %eax,(%eax)
    175f:	50                   	push   %eax
    1760:	70 02                	jo     1764 <.debug_loc+0x1764>
    1762:	00 00                	add    %al,(%eax)
    1764:	72 02                	jb     1768 <.debug_loc+0x1768>
    1766:	00 00                	add    %al,(%eax)
    1768:	01 00                	add    %eax,(%eax)
    176a:	50                   	push   %eax
    176b:	72 02                	jb     176f <.debug_loc+0x176f>
    176d:	00 00                	add    %al,(%eax)
    176f:	94                   	xchg   %eax,%esp
    1770:	02 00                	add    (%eax),%al
    1772:	00 01                	add    %al,(%ecx)
    1774:	00 52 94             	add    %dl,-0x6c(%edx)
    1777:	02 00                	add    (%eax),%al
    1779:	00 a3 02 00 00 03    	add    %ah,0x3000002(%ebx)
    177f:	00 91 b0 7e 56 04    	add    %dl,0x4567eb0(%ecx)
    1785:	00 00                	add    %al,(%eax)
    1787:	7e 04                	jle    178d <.debug_loc+0x178d>
    1789:	00 00                	add    %al,(%eax)
    178b:	03 00                	add    (%eax),%eax
    178d:	91                   	xchg   %eax,%ecx
    178e:	b0 7e                	mov    $0x7e,%al
    1790:	be 05 00 00 eb       	mov    $0xeb000005,%esi
    1795:	05 00 00 02 00       	add    $0x20000,%eax
    179a:	33 9f 5b 08 00 00    	xor    0x85b(%edi),%ebx
    17a0:	9c                   	pushf  
    17a1:	08 00                	or     %al,(%eax)
    17a3:	00 02                	add    %al,(%edx)
    17a5:	00 31                	add    %dh,(%ecx)
    17a7:	9f                   	lahf   
    17a8:	e8 08 00 00 f4       	call   f40017b5 <blanks.3938+0xf4001641>
    17ad:	08 00                	or     %al,(%eax)
    17af:	00 02                	add    %al,(%edx)
    17b1:	00 31                	add    %dh,(%ecx)
    17b3:	9f                   	lahf   
    17b4:	42                   	inc    %edx
    17b5:	15 00 00 6f 15       	adc    $0x156f0000,%eax
    17ba:	00 00                	add    %al,(%eax)
    17bc:	02 00                	add    (%eax),%al
    17be:	33 9f ec 17 00 00    	xor    0x17ec(%edi),%ebx
    17c4:	f2 17                	repnz pop %ss
    17c6:	00 00                	add    %al,(%eax)
    17c8:	01 00                	add    %eax,(%eax)
    17ca:	50                   	push   %eax
    17cb:	f2 17                	repnz pop %ss
    17cd:	00 00                	add    %al,(%eax)
    17cf:	16                   	push   %ss
    17d0:	18 00                	sbb    %al,(%eax)
    17d2:	00 03                	add    %al,(%ebx)
    17d4:	00 91 98 7e 16 18    	add    %dl,0x18167e98(%ecx)
    17da:	00 00                	add    %al,(%eax)
    17dc:	4b                   	dec    %ebx
    17dd:	18 00                	sbb    %al,(%eax)
    17df:	00 03                	add    %al,(%ebx)
    17e1:	00 91 b0 7e d2 1a    	add    %dl,0x1ad27eb0(%ecx)
    17e7:	00 00                	add    %al,(%eax)
    17e9:	ec                   	in     (%dx),%al
    17ea:	1a 00                	sbb    (%eax),%al
    17ec:	00 01                	add    %al,(%ecx)
    17ee:	00 50 8b             	add    %dl,-0x75(%eax)
    17f1:	1b 00                	sbb    (%eax),%eax
    17f3:	00 b8 1b 00 00 03    	add    %bh,0x300001b(%eax)
    17f9:	00 91 b0 7e 91 1c    	add    %dl,0x1c917eb0(%ecx)
    17ff:	00 00                	add    %al,(%eax)
    1801:	97                   	xchg   %eax,%edi
    1802:	1c 00                	sbb    $0x0,%al
    1804:	00 01                	add    %al,(%ecx)
    1806:	00 52 97             	add    %dl,-0x69(%edx)
    1809:	1c 00                	sbb    $0x0,%al
    180b:	00 a0 1c 00 00 07    	add    %ah,0x700001c(%eax)
    1811:	00 91 b0 7e 06 23    	add    %dl,0x23067eb0(%ecx)
    1817:	01 9f a0 1c 00 00    	add    %ebx,0x1ca0(%edi)
    181d:	b6 1c                	mov    $0x1c,%dh
    181f:	00 00                	add    %al,(%eax)
    1821:	03 00                	add    (%eax),%eax
    1823:	91                   	xchg   %eax,%ecx
    1824:	b0 7e                	mov    $0x7e,%al
    1826:	f6 1c 00             	negb   (%eax,%eax,1)
    1829:	00 fe                	add    %bh,%dh
    182b:	1c 00                	sbb    $0x0,%al
    182d:	00 08                	add    %cl,(%eax)
    182f:	00 72 00             	add    %dh,0x0(%edx)
    1832:	91                   	xchg   %eax,%ecx
    1833:	94                   	xchg   %eax,%esp
    1834:	7e 06                	jle    183c <.debug_loc+0x183c>
    1836:	22 9f fe 1c 00 00    	and    0x1cfe(%edi),%bl
    183c:	16                   	push   %ss
    183d:	1d 00 00 01 00       	sbb    $0x10000,%eax
    1842:	52                   	push   %edx
    1843:	1e                   	push   %ds
    1844:	1d 00 00 44 1d       	sbb    $0x1d440000,%eax
    1849:	00 00                	add    %al,(%eax)
    184b:	03 00                	add    (%eax),%eax
    184d:	91                   	xchg   %eax,%ecx
    184e:	98                   	cwtl   
    184f:	7e dd                	jle    182e <.debug_loc+0x182e>
    1851:	1d 00 00 f2 1d       	sbb    $0x1df20000,%eax
    1856:	00 00                	add    %al,(%eax)
    1858:	07                   	pop    %es
    1859:	00 91 98 7e 06 23    	add    %dl,0x23067e98(%ecx)
    185f:	01 9f f2 1d 00 00    	add    %ebx,0x1df2(%edi)
    1865:	00 1e                	add    %bl,(%esi)
    1867:	00 00                	add    %al,(%eax)
    1869:	01 00                	add    %eax,(%eax)
    186b:	52                   	push   %edx
    186c:	00 1e                	add    %bl,(%esi)
    186e:	00 00                	add    %al,(%eax)
    1870:	18 1e                	sbb    %bl,(%esi)
    1872:	00 00                	add    %al,(%eax)
    1874:	03 00                	add    (%eax),%eax
    1876:	91                   	xchg   %eax,%ecx
    1877:	98                   	cwtl   
    1878:	7e 18                	jle    1892 <.debug_loc+0x1892>
    187a:	1e                   	push   %ds
    187b:	00 00                	add    %al,(%eax)
    187d:	1a 1e                	sbb    (%esi),%bl
    187f:	00 00                	add    %al,(%eax)
    1881:	01 00                	add    %eax,(%eax)
    1883:	50                   	push   %eax
    1884:	1a 1e                	sbb    (%esi),%bl
    1886:	00 00                	add    %al,(%eax)
    1888:	24 1e                	and    $0x1e,%al
    188a:	00 00                	add    %al,(%eax)
    188c:	01 00                	add    %eax,(%eax)
    188e:	52                   	push   %edx
    188f:	46                   	inc    %esi
    1890:	1e                   	push   %ds
    1891:	00 00                	add    %al,(%eax)
    1893:	4b                   	dec    %ebx
    1894:	1e                   	push   %ds
    1895:	00 00                	add    %al,(%eax)
    1897:	02 00                	add    (%eax),%al
    1899:	31 9f b7 1e 00 00    	xor    %ebx,0x1eb7(%edi)
    189f:	db 1e                	fistpl (%esi)
    18a1:	00 00                	add    %al,(%eax)
    18a3:	01 00                	add    %eax,(%eax)
    18a5:	52                   	push   %edx
	...
    18ae:	2d 00 00 00 9b       	sub    $0x9b000000,%eax
    18b3:	00 00                	add    %al,(%eax)
    18b5:	00 02                	add    %al,(%edx)
    18b7:	00 30                	add    %dh,(%eax)
    18b9:	9f                   	lahf   
    18ba:	9b                   	fwait
    18bb:	00 00                	add    %al,(%eax)
    18bd:	00 e3                	add    %ah,%bl
    18bf:	01 00                	add    %eax,(%eax)
    18c1:	00 03                	add    %al,(%ebx)
    18c3:	00 91 90 7e ee 01    	add    %dl,0x1ee7e90(%ecx)
    18c9:	00 00                	add    %al,(%eax)
    18cb:	6d                   	insl   (%dx),%es:(%edi)
    18cc:	06                   	push   %es
    18cd:	00 00                	add    %al,(%eax)
    18cf:	03 00                	add    (%eax),%eax
    18d1:	91                   	xchg   %eax,%ecx
    18d2:	90                   	nop
    18d3:	7e 6d                	jle    1942 <.debug_loc+0x1942>
    18d5:	06                   	push   %es
    18d6:	00 00                	add    %al,(%eax)
    18d8:	9f                   	lahf   
    18d9:	06                   	push   %es
    18da:	00 00                	add    %al,(%eax)
    18dc:	06                   	push   %es
    18dd:	00 03                	add    %al,(%ebx)
    18df:	21 00                	and    %eax,(%eax)
    18e1:	00 00                	add    %al,(%eax)
    18e3:	9f                   	lahf   
    18e4:	9f                   	lahf   
    18e5:	06                   	push   %es
    18e6:	00 00                	add    %al,(%eax)
    18e8:	c6 07 00             	movb   $0x0,(%edi)
    18eb:	00 03                	add    %al,(%ebx)
    18ed:	00 91 90 7e 14 08    	add    %dl,0x8147e90(%ecx)
    18f3:	00 00                	add    %al,(%eax)
    18f5:	39 08                	cmp    %ecx,(%eax)
    18f7:	00 00                	add    %al,(%eax)
    18f9:	03 00                	add    (%eax),%eax
    18fb:	91                   	xchg   %eax,%ecx
    18fc:	90                   	nop
    18fd:	7e 43                	jle    1942 <.debug_loc+0x1942>
    18ff:	08 00                	or     %al,(%eax)
    1901:	00 99 12 00 00 03    	add    %bl,0x3000012(%ecx)
    1907:	00 91 90 7e a7 12    	add    %dl,0x12a77e90(%ecx)
    190d:	00 00                	add    %al,(%eax)
    190f:	a3 18 00 00 03       	mov    %eax,0x3000018
    1914:	00 91 90 7e a3 18    	add    %dl,0x18a37e90(%ecx)
    191a:	00 00                	add    %al,(%eax)
    191c:	d5 18                	aad    $0x18
    191e:	00 00                	add    %al,(%eax)
    1920:	02 00                	add    (%eax),%al
    1922:	30 9f d5 18 00 00    	xor    %bl,0x18d5(%edi)
    1928:	db 1e                	fistpl (%esi)
    192a:	00 00                	add    %al,(%eax)
    192c:	03 00                	add    (%eax),%eax
    192e:	91                   	xchg   %eax,%ecx
    192f:	90                   	nop
    1930:	7e db                	jle    190d <.debug_loc+0x190d>
    1932:	1e                   	push   %ds
    1933:	00 00                	add    %al,(%eax)
    1935:	ee                   	out    %al,(%dx)
    1936:	1e                   	push   %ds
    1937:	00 00                	add    %al,(%eax)
    1939:	02 00                	add    (%eax),%al
    193b:	30 9f ee 1e 00 00    	xor    %bl,0x1eee(%edi)
    1941:	f9                   	stc    
    1942:	1e                   	push   %ds
    1943:	00 00                	add    %al,(%eax)
    1945:	03 00                	add    (%eax),%eax
    1947:	91                   	xchg   %eax,%ecx
    1948:	90                   	nop
    1949:	7e 00                	jle    194b <.debug_loc+0x194b>
    194b:	00 00                	add    %al,(%eax)
    194d:	00 00                	add    %al,(%eax)
    194f:	00 00                	add    %al,(%eax)
    1951:	00 41 00             	add    %al,0x0(%ecx)
    1954:	00 00                	add    %al,(%eax)
    1956:	44                   	inc    %esp
    1957:	00 00                	add    %al,(%eax)
    1959:	00 04 00             	add    %al,(%eax,%eax,1)
    195c:	91                   	xchg   %eax,%ecx
    195d:	a0 7f 9f 44 00       	mov    0x449f7f,%al
    1962:	00 00                	add    %al,(%eax)
    1964:	53                   	push   %ebx
    1965:	00 00                	add    %al,(%eax)
    1967:	00 01                	add    %al,(%ecx)
    1969:	00 50 53             	add    %dl,0x53(%eax)
    196c:	00 00                	add    %al,(%eax)
    196e:	00 9b 00 00 00 01    	add    %bl,0x1000000(%ebx)
    1974:	00 57 9b             	add    %dl,-0x65(%edi)
    1977:	00 00                	add    %al,(%eax)
    1979:	00 d4                	add    %dl,%ah
    197b:	00 00                	add    %al,(%eax)
    197d:	00 04 00             	add    %al,(%eax,%eax,1)
    1980:	91                   	xchg   %eax,%ecx
    1981:	a0 7f 9f d4 00       	mov    0xd49f7f,%al
    1986:	00 00                	add    %al,(%eax)
    1988:	ef                   	out    %eax,(%dx)
    1989:	00 00                	add    %al,(%eax)
    198b:	00 04 00             	add    %al,(%eax,%eax,1)
    198e:	91                   	xchg   %eax,%ecx
    198f:	a8 7f                	test   $0x7f,%al
    1991:	9f                   	lahf   
    1992:	ef                   	out    %eax,(%dx)
    1993:	00 00                	add    %al,(%eax)
    1995:	00 7c 01 00          	add    %bh,0x0(%ecx,%eax,1)
    1999:	00 04 00             	add    %al,(%eax,%eax,1)
    199c:	91                   	xchg   %eax,%ecx
    199d:	a0 7f 9f 7c 01       	mov    0x17c9f7f,%al
    19a2:	00 00                	add    %al,(%eax)
    19a4:	a3 01 00 00 04       	mov    %eax,0x4000001
    19a9:	00 91 a8 7f 9f a3    	add    %dl,-0x5c608058(%ecx)
    19af:	01 00                	add    %eax,(%eax)
    19b1:	00 a8 01 00 00 03    	add    %ch,0x3000001(%eax)
    19b7:	00 77 08             	add    %dh,0x8(%edi)
    19ba:	9f                   	lahf   
    19bb:	a8 01                	test   $0x1,%al
    19bd:	00 00                	add    %al,(%eax)
    19bf:	ce                   	into   
    19c0:	01 00                	add    %eax,(%eax)
    19c2:	00 04 00             	add    %al,(%eax,%eax,1)
    19c5:	91                   	xchg   %eax,%ecx
    19c6:	a0 7f 9f ee 01       	mov    0x1ee9f7f,%al
    19cb:	00 00                	add    %al,(%eax)
    19cd:	37                   	aaa    
    19ce:	03 00                	add    (%eax),%eax
    19d0:	00 04 00             	add    %al,(%eax,%eax,1)
    19d3:	91                   	xchg   %eax,%ecx
    19d4:	a0 7f 9f 37 03       	mov    0x3379f7f,%al
    19d9:	00 00                	add    %al,(%eax)
    19db:	72 03                	jb     19e0 <.debug_loc+0x19e0>
    19dd:	00 00                	add    %al,(%eax)
    19df:	04 00                	add    $0x0,%al
    19e1:	91                   	xchg   %eax,%ecx
    19e2:	a8 7f                	test   $0x7f,%al
    19e4:	9f                   	lahf   
    19e5:	72 03                	jb     19ea <.debug_loc+0x19ea>
    19e7:	00 00                	add    %al,(%eax)
    19e9:	74 03                	je     19ee <.debug_loc+0x19ee>
    19eb:	00 00                	add    %al,(%eax)
    19ed:	01 00                	add    %eax,(%eax)
    19ef:	57                   	push   %edi
    19f0:	74 03                	je     19f5 <.debug_loc+0x19f5>
    19f2:	00 00                	add    %al,(%eax)
    19f4:	8b 03                	mov    (%ebx),%eax
    19f6:	00 00                	add    %al,(%eax)
    19f8:	04 00                	add    $0x0,%al
    19fa:	91                   	xchg   %eax,%ecx
    19fb:	a0 7f 9f 8b 03       	mov    0x38b9f7f,%al
    1a00:	00 00                	add    %al,(%eax)
    1a02:	97                   	xchg   %eax,%edi
    1a03:	03 00                	add    (%eax),%eax
    1a05:	00 04 00             	add    %al,(%eax,%eax,1)
    1a08:	91                   	xchg   %eax,%ecx
    1a09:	a8 7f                	test   $0x7f,%al
    1a0b:	9f                   	lahf   
    1a0c:	97                   	xchg   %eax,%edi
    1a0d:	03 00                	add    (%eax),%eax
    1a0f:	00 9a 03 00 00 03    	add    %bl,0x3000003(%edx)
    1a15:	00 77 10             	add    %dh,0x10(%edi)
    1a18:	9f                   	lahf   
    1a19:	9a 03 00 00 a6 03 00 	lcall  $0x3,$0xa6000003
    1a20:	00 03                	add    %al,(%ebx)
    1a22:	00 77 08             	add    %dh,0x8(%edi)
    1a25:	9f                   	lahf   
    1a26:	a6                   	cmpsb  %es:(%edi),%ds:(%esi)
    1a27:	03 00                	add    (%eax),%eax
    1a29:	00 23                	add    %ah,(%ebx)
    1a2b:	04 00                	add    $0x0,%al
    1a2d:	00 04 00             	add    %al,(%eax,%eax,1)
    1a30:	91                   	xchg   %eax,%ecx
    1a31:	a0 7f 9f 23 04       	mov    0x4239f7f,%al
    1a36:	00 00                	add    %al,(%eax)
    1a38:	2f                   	das    
    1a39:	04 00                	add    $0x0,%al
    1a3b:	00 01                	add    %al,(%ecx)
    1a3d:	00 50 2f             	add    %dl,0x2f(%eax)
    1a40:	04 00                	add    $0x0,%al
    1a42:	00 48 04             	add    %cl,0x4(%eax)
    1a45:	00 00                	add    %al,(%eax)
    1a47:	04 00                	add    $0x0,%al
    1a49:	91                   	xchg   %eax,%ecx
    1a4a:	a0 7f 9f 48 04       	mov    0x4489f7f,%al
    1a4f:	00 00                	add    %al,(%eax)
    1a51:	4a                   	dec    %edx
    1a52:	04 00                	add    $0x0,%al
    1a54:	00 01                	add    %al,(%ecx)
    1a56:	00 52 4a             	add    %dl,0x4a(%edx)
    1a59:	04 00                	add    $0x0,%al
    1a5b:	00 fe                	add    %bh,%dh
    1a5d:	08 00                	or     %al,(%eax)
    1a5f:	00 04 00             	add    %al,(%eax,%eax,1)
    1a62:	91                   	xchg   %eax,%ecx
    1a63:	a0 7f 9f 0f 0a       	mov    0xa0f9f7f,%al
    1a68:	00 00                	add    %al,(%eax)
    1a6a:	12 0a                	adc    (%edx),%cl
    1a6c:	00 00                	add    %al,(%eax)
    1a6e:	04 00                	add    $0x0,%al
    1a70:	91                   	xchg   %eax,%ecx
    1a71:	a8 7f                	test   $0x7f,%al
    1a73:	9f                   	lahf   
    1a74:	12 0a                	adc    (%edx),%cl
    1a76:	00 00                	add    %al,(%eax)
    1a78:	14 0a                	adc    $0xa,%al
    1a7a:	00 00                	add    %al,(%eax)
    1a7c:	01 00                	add    %eax,(%eax)
    1a7e:	57                   	push   %edi
    1a7f:	60                   	pusha  
    1a80:	0a 00                	or     (%eax),%al
    1a82:	00 63 0a             	add    %ah,0xa(%ebx)
    1a85:	00 00                	add    %al,(%eax)
    1a87:	04 00                	add    $0x0,%al
    1a89:	91                   	xchg   %eax,%ecx
    1a8a:	a8 7f                	test   $0x7f,%al
    1a8c:	9f                   	lahf   
    1a8d:	3f                   	aas    
    1a8e:	0b 00                	or     (%eax),%eax
    1a90:	00 42 0b             	add    %al,0xb(%edx)
    1a93:	00 00                	add    %al,(%eax)
    1a95:	04 00                	add    $0x0,%al
    1a97:	91                   	xchg   %eax,%ecx
    1a98:	a8 7f                	test   $0x7f,%al
    1a9a:	9f                   	lahf   
    1a9b:	42                   	inc    %edx
    1a9c:	0b 00                	or     (%eax),%eax
    1a9e:	00 44 0b 00          	add    %al,0x0(%ebx,%ecx,1)
    1aa2:	00 01                	add    %al,(%ecx)
    1aa4:	00 57 b9             	add    %dl,-0x47(%edi)
    1aa7:	0b 00                	or     (%eax),%eax
    1aa9:	00 bc 0b 00 00 04 00 	add    %bh,0x40000(%ebx,%ecx,1)
    1ab0:	91                   	xchg   %eax,%ecx
    1ab1:	a0 7f 9f bc 0b       	mov    0xbbc9f7f,%al
    1ab6:	00 00                	add    %al,(%eax)
    1ab8:	c1 0b 00             	rorl   $0x0,(%ebx)
    1abb:	00 01                	add    %al,(%ecx)
    1abd:	00 57 f8             	add    %dl,-0x8(%edi)
    1ac0:	0c 00                	or     $0x0,%al
    1ac2:	00 fa                	add    %bh,%dl
    1ac4:	0c 00                	or     $0x0,%al
    1ac6:	00 03                	add    %al,(%ebx)
    1ac8:	00 77 08             	add    %dh,0x8(%edi)
    1acb:	9f                   	lahf   
    1acc:	fa                   	cli    
    1acd:	0c 00                	or     $0x0,%al
    1acf:	00 33                	add    %dh,(%ebx)
    1ad1:	0d 00 00 04 00       	or     $0x40000,%eax
    1ad6:	91                   	xchg   %eax,%ecx
    1ad7:	a0 7f 9f 33 0d       	mov    0xd339f7f,%al
    1adc:	00 00                	add    %al,(%eax)
    1ade:	48                   	dec    %eax
    1adf:	0d 00 00 01 00       	or     $0x10000,%eax
    1ae4:	50                   	push   %eax
    1ae5:	cf                   	iret   
    1ae6:	0d 00 00 d2 0d       	or     $0xdd20000,%eax
    1aeb:	00 00                	add    %al,(%eax)
    1aed:	04 00                	add    $0x0,%al
    1aef:	91                   	xchg   %eax,%ecx
    1af0:	a8 7f                	test   $0x7f,%al
    1af2:	9f                   	lahf   
    1af3:	d2 0d 00 00 d4 0d    	rorb   %cl,0xdd40000
    1af9:	00 00                	add    %al,(%eax)
    1afb:	01 00                	add    %eax,(%eax)
    1afd:	57                   	push   %edi
    1afe:	24 0e                	and    $0xe,%al
    1b00:	00 00                	add    %al,(%eax)
    1b02:	27                   	daa    
    1b03:	0e                   	push   %cs
    1b04:	00 00                	add    %al,(%eax)
    1b06:	04 00                	add    $0x0,%al
    1b08:	91                   	xchg   %eax,%ecx
    1b09:	a8 7f                	test   $0x7f,%al
    1b0b:	9f                   	lahf   
    1b0c:	27                   	daa    
    1b0d:	0e                   	push   %cs
    1b0e:	00 00                	add    %al,(%eax)
    1b10:	2c 0e                	sub    $0xe,%al
    1b12:	00 00                	add    %al,(%eax)
    1b14:	03 00                	add    (%eax),%eax
    1b16:	77 08                	ja     1b20 <.debug_loc+0x1b20>
    1b18:	9f                   	lahf   
    1b19:	70 0e                	jo     1b29 <.debug_loc+0x1b29>
    1b1b:	00 00                	add    %al,(%eax)
    1b1d:	7c 0e                	jl     1b2d <.debug_loc+0x1b2d>
    1b1f:	00 00                	add    %al,(%eax)
    1b21:	01 00                	add    %eax,(%eax)
    1b23:	57                   	push   %edi
    1b24:	7c 0e                	jl     1b34 <.debug_loc+0x1b34>
    1b26:	00 00                	add    %al,(%eax)
    1b28:	99                   	cltd   
    1b29:	0e                   	push   %cs
    1b2a:	00 00                	add    %al,(%eax)
    1b2c:	03 00                	add    (%eax),%eax
    1b2e:	77 78                	ja     1ba8 <.debug_loc+0x1ba8>
    1b30:	9f                   	lahf   
    1b31:	9f                   	lahf   
    1b32:	0e                   	push   %cs
    1b33:	00 00                	add    %al,(%eax)
    1b35:	d8 0e                	fmuls  (%esi)
    1b37:	00 00                	add    %al,(%eax)
    1b39:	01 00                	add    %eax,(%eax)
    1b3b:	57                   	push   %edi
    1b3c:	d8 0e                	fmuls  (%esi)
    1b3e:	00 00                	add    %al,(%eax)
    1b40:	e4 0e                	in     $0xe,%al
    1b42:	00 00                	add    %al,(%eax)
    1b44:	03 00                	add    (%eax),%eax
    1b46:	77 08                	ja     1b50 <.debug_loc+0x1b50>
    1b48:	9f                   	lahf   
    1b49:	e7 0e                	out    %eax,$0xe
    1b4b:	00 00                	add    %al,(%eax)
    1b4d:	fb                   	sti    
    1b4e:	0e                   	push   %cs
    1b4f:	00 00                	add    %al,(%eax)
    1b51:	01 00                	add    %eax,(%eax)
    1b53:	57                   	push   %edi
    1b54:	07                   	pop    %es
    1b55:	0f 00 00             	sldt   (%eax)
    1b58:	13 0f                	adc    (%edi),%ecx
    1b5a:	00 00                	add    %al,(%eax)
    1b5c:	03 00                	add    (%eax),%eax
    1b5e:	77 08                	ja     1b68 <.debug_loc+0x1b68>
    1b60:	9f                   	lahf   
    1b61:	a2 0f 00 00 a5       	mov    %al,0xa500000f
    1b66:	0f 00 00             	sldt   (%eax)
    1b69:	04 00                	add    $0x0,%al
    1b6b:	91                   	xchg   %eax,%ecx
    1b6c:	a8 7f                	test   $0x7f,%al
    1b6e:	9f                   	lahf   
    1b6f:	a5                   	movsl  %ds:(%esi),%es:(%edi)
    1b70:	0f 00 00             	sldt   (%eax)
    1b73:	aa                   	stos   %al,%es:(%edi)
    1b74:	0f 00 00             	sldt   (%eax)
    1b77:	03 00                	add    (%eax),%eax
    1b79:	77 08                	ja     1b83 <.debug_loc+0x1b83>
    1b7b:	9f                   	lahf   
    1b7c:	da 0f                	fimull (%edi)
    1b7e:	00 00                	add    %al,(%eax)
    1b80:	dd 0f                	fisttpll (%edi)
    1b82:	00 00                	add    %al,(%eax)
    1b84:	04 00                	add    $0x0,%al
    1b86:	91                   	xchg   %eax,%ecx
    1b87:	a8 7f                	test   $0x7f,%al
    1b89:	9f                   	lahf   
    1b8a:	dd 0f                	fisttpll (%edi)
    1b8c:	00 00                	add    %al,(%eax)
    1b8e:	e2 0f                	loop   1b9f <.debug_loc+0x1b9f>
    1b90:	00 00                	add    %al,(%eax)
    1b92:	03 00                	add    (%eax),%eax
    1b94:	77 08                	ja     1b9e <.debug_loc+0x1b9e>
    1b96:	9f                   	lahf   
    1b97:	e2 0f                	loop   1ba8 <.debug_loc+0x1ba8>
    1b99:	00 00                	add    %al,(%eax)
    1b9b:	ea 0f 00 00 01 00 50 	ljmp   $0x5000,$0x100000f
    1ba2:	ea 0f 00 00 3a 10 00 	ljmp   $0x10,$0x3a00000f
    1ba9:	00 04 00             	add    %al,(%eax,%eax,1)
    1bac:	91                   	xchg   %eax,%ecx
    1bad:	a0 7f 9f 30 11       	mov    0x11309f7f,%al
    1bb2:	00 00                	add    %al,(%eax)
    1bb4:	32 11                	xor    (%ecx),%dl
    1bb6:	00 00                	add    %al,(%eax)
    1bb8:	03 00                	add    (%eax),%eax
    1bba:	77 08                	ja     1bc4 <.debug_loc+0x1bc4>
    1bbc:	9f                   	lahf   
    1bbd:	32 11                	xor    (%ecx),%dl
    1bbf:	00 00                	add    %al,(%eax)
    1bc1:	35 11 00 00 04       	xor    $0x4000011,%eax
    1bc6:	00 91 a0 7f 9f 35    	add    %dl,0x359f7fa0(%ecx)
    1bcc:	11 00                	adc    %eax,(%eax)
    1bce:	00 42 11             	add    %al,0x11(%edx)
    1bd1:	00 00                	add    %al,(%eax)
    1bd3:	01 00                	add    %eax,(%eax)
    1bd5:	50                   	push   %eax
    1bd6:	42                   	inc    %edx
    1bd7:	11 00                	adc    %eax,(%eax)
    1bd9:	00 75 11             	add    %dh,0x11(%ebp)
    1bdc:	00 00                	add    %al,(%eax)
    1bde:	04 00                	add    $0x0,%al
    1be0:	91                   	xchg   %eax,%ecx
    1be1:	a0 7f 9f 75 11       	mov    0x11759f7f,%al
    1be6:	00 00                	add    %al,(%eax)
    1be8:	77 11                	ja     1bfb <.debug_loc+0x1bfb>
    1bea:	00 00                	add    %al,(%eax)
    1bec:	01 00                	add    %eax,(%eax)
    1bee:	50                   	push   %eax
    1bef:	77 11                	ja     1c02 <.debug_loc+0x1c02>
    1bf1:	00 00                	add    %al,(%eax)
    1bf3:	ad                   	lods   %ds:(%esi),%eax
    1bf4:	11 00                	adc    %eax,(%eax)
    1bf6:	00 04 00             	add    %al,(%eax,%eax,1)
    1bf9:	91                   	xchg   %eax,%ecx
    1bfa:	a0 7f 9f ad 11       	mov    0x11ad9f7f,%al
    1bff:	00 00                	add    %al,(%eax)
    1c01:	db 11                	fistl  (%ecx)
    1c03:	00 00                	add    %al,(%eax)
    1c05:	04 00                	add    $0x0,%al
    1c07:	91                   	xchg   %eax,%ecx
    1c08:	a8 7f                	test   $0x7f,%al
    1c0a:	9f                   	lahf   
    1c0b:	db 11                	fistl  (%ecx)
    1c0d:	00 00                	add    %al,(%eax)
    1c0f:	e6 11                	out    %al,$0x11
    1c11:	00 00                	add    %al,(%eax)
    1c13:	03 00                	add    (%eax),%eax
    1c15:	77 08                	ja     1c1f <.debug_loc+0x1c1f>
    1c17:	9f                   	lahf   
    1c18:	e6 11                	out    %al,$0x11
    1c1a:	00 00                	add    %al,(%eax)
    1c1c:	1f                   	pop    %ds
    1c1d:	12 00                	adc    (%eax),%al
    1c1f:	00 01                	add    %al,(%ecx)
    1c21:	00 57 1f             	add    %dl,0x1f(%edi)
    1c24:	12 00                	adc    (%eax),%al
    1c26:	00 2f                	add    %ch,(%edi)
    1c28:	12 00                	adc    (%eax),%al
    1c2a:	00 03                	add    %al,(%ebx)
    1c2c:	00 77 78             	add    %dh,0x78(%edi)
    1c2f:	9f                   	lahf   
    1c30:	6a 12                	push   $0x12
    1c32:	00 00                	add    %al,(%eax)
    1c34:	7c 12                	jl     1c48 <.debug_loc+0x1c48>
    1c36:	00 00                	add    %al,(%eax)
    1c38:	01 00                	add    %eax,(%eax)
    1c3a:	57                   	push   %edi
    1c3b:	8c 12                	mov    %ss,(%edx)
    1c3d:	00 00                	add    %al,(%eax)
    1c3f:	a7                   	cmpsl  %es:(%edi),%ds:(%esi)
    1c40:	12 00                	adc    (%eax),%al
    1c42:	00 04 00             	add    %al,(%eax,%eax,1)
    1c45:	91                   	xchg   %eax,%ecx
    1c46:	a0 7f 9f f3 12       	mov    0x12f39f7f,%al
    1c4b:	00 00                	add    %al,(%eax)
    1c4d:	f6 12                	notb   (%edx)
    1c4f:	00 00                	add    %al,(%eax)
    1c51:	04 00                	add    $0x0,%al
    1c53:	91                   	xchg   %eax,%ecx
    1c54:	a8 7f                	test   $0x7f,%al
    1c56:	9f                   	lahf   
    1c57:	50                   	push   %eax
    1c58:	13 00                	adc    (%eax),%eax
    1c5a:	00 53 13             	add    %dl,0x13(%ebx)
    1c5d:	00 00                	add    %al,(%eax)
    1c5f:	03 00                	add    (%eax),%eax
    1c61:	77 10                	ja     1c73 <.debug_loc+0x1c73>
    1c63:	9f                   	lahf   
    1c64:	53                   	push   %ebx
    1c65:	13 00                	adc    (%eax),%eax
    1c67:	00 55 13             	add    %dl,0x13(%ebp)
    1c6a:	00 00                	add    %al,(%eax)
    1c6c:	03 00                	add    (%eax),%eax
    1c6e:	77 08                	ja     1c78 <.debug_loc+0x1c78>
    1c70:	9f                   	lahf   
    1c71:	20 14 00             	and    %dl,(%eax,%eax,1)
    1c74:	00 22                	add    %ah,(%edx)
    1c76:	14 00                	adc    $0x0,%al
    1c78:	00 03                	add    %al,(%ebx)
    1c7a:	00 77 08             	add    %dh,0x8(%edi)
    1c7d:	9f                   	lahf   
    1c7e:	01 15 00 00 82 15    	add    %edx,0x15820000
    1c84:	00 00                	add    %al,(%eax)
    1c86:	04 00                	add    $0x0,%al
    1c88:	91                   	xchg   %eax,%ecx
    1c89:	a0 7f 9f ac 15       	mov    0x15ac9f7f,%al
    1c8e:	00 00                	add    %al,(%eax)
    1c90:	af                   	scas   %es:(%edi),%eax
    1c91:	15 00 00 04 00       	adc    $0x40000,%eax
    1c96:	91                   	xchg   %eax,%ecx
    1c97:	a8 7f                	test   $0x7f,%al
    1c99:	9f                   	lahf   
    1c9a:	af                   	scas   %es:(%edi),%eax
    1c9b:	15 00 00 b4 15       	adc    $0x15b40000,%eax
    1ca0:	00 00                	add    %al,(%eax)
    1ca2:	03 00                	add    (%eax),%eax
    1ca4:	77 08                	ja     1cae <.debug_loc+0x1cae>
    1ca6:	9f                   	lahf   
    1ca7:	37                   	aaa    
    1ca8:	16                   	push   %ss
    1ca9:	00 00                	add    %al,(%eax)
    1cab:	73 16                	jae    1cc3 <.debug_loc+0x1cc3>
    1cad:	00 00                	add    %al,(%eax)
    1caf:	01 00                	add    %eax,(%eax)
    1cb1:	57                   	push   %edi
    1cb2:	73 16                	jae    1cca <.debug_loc+0x1cca>
    1cb4:	00 00                	add    %al,(%eax)
    1cb6:	83 16 00             	adcl   $0x0,(%esi)
    1cb9:	00 03                	add    %al,(%ebx)
    1cbb:	00 77 78             	add    %dh,0x78(%edi)
    1cbe:	9f                   	lahf   
    1cbf:	ba 16 00 00 4b       	mov    $0x4b000016,%edx
    1cc4:	18 00                	sbb    %al,(%eax)
    1cc6:	00 04 00             	add    %al,(%eax,%eax,1)
    1cc9:	91                   	xchg   %eax,%ecx
    1cca:	a0 7f 9f 75 18       	mov    0x18759f7f,%al
    1ccf:	00 00                	add    %al,(%eax)
    1cd1:	78 18                	js     1ceb <.debug_loc+0x1ceb>
    1cd3:	00 00                	add    %al,(%eax)
    1cd5:	04 00                	add    $0x0,%al
    1cd7:	91                   	xchg   %eax,%ecx
    1cd8:	a8 7f                	test   $0x7f,%al
    1cda:	9f                   	lahf   
    1cdb:	78 18                	js     1cf5 <.debug_loc+0x1cf5>
    1cdd:	00 00                	add    %al,(%eax)
    1cdf:	7d 18                	jge    1cf9 <.debug_loc+0x1cf9>
    1ce1:	00 00                	add    %al,(%eax)
    1ce3:	03 00                	add    (%eax),%eax
    1ce5:	77 08                	ja     1cef <.debug_loc+0x1cef>
    1ce7:	9f                   	lahf   
    1ce8:	84 18                	test   %bl,(%eax)
    1cea:	00 00                	add    %al,(%eax)
    1cec:	a3 18 00 00 04       	mov    %eax,0x4000018
    1cf1:	00 91 a0 7f 9f 08    	add    %dl,0x89f7fa0(%ecx)
    1cf7:	19 00                	sbb    %eax,(%eax)
    1cf9:	00 0d 19 00 00 03    	add    %cl,0x3000019
    1cff:	00 77 08             	add    %dh,0x8(%edi)
    1d02:	9f                   	lahf   
    1d03:	0d 19 00 00 1b       	or     $0x1b000019,%eax
    1d08:	19 00                	sbb    %eax,(%eax)
    1d0a:	00 01                	add    %al,(%ecx)
    1d0c:	00 57 1b             	add    %dl,0x1b(%edi)
    1d0f:	19 00                	sbb    %eax,(%eax)
    1d11:	00 27                	add    %ah,(%edi)
    1d13:	19 00                	sbb    %eax,(%eax)
    1d15:	00 03                	add    %al,(%ebx)
    1d17:	00 77 78             	add    %dh,0x78(%edi)
    1d1a:	9f                   	lahf   
    1d1b:	62 19                	bound  %ebx,(%ecx)
    1d1d:	00 00                	add    %al,(%eax)
    1d1f:	87 19                	xchg   %ebx,(%ecx)
    1d21:	00 00                	add    %al,(%eax)
    1d23:	01 00                	add    %eax,(%eax)
    1d25:	57                   	push   %edi
    1d26:	87 19                	xchg   %ebx,(%ecx)
    1d28:	00 00                	add    %al,(%eax)
    1d2a:	90                   	nop
    1d2b:	19 00                	sbb    %eax,(%eax)
    1d2d:	00 03                	add    %al,(%ebx)
    1d2f:	00 77 08             	add    %dh,0x8(%edi)
    1d32:	9f                   	lahf   
    1d33:	90                   	nop
    1d34:	19 00                	sbb    %eax,(%eax)
    1d36:	00 97 19 00 00 01    	add    %dl,0x1000019(%edi)
    1d3c:	00 57 d5             	add    %dl,-0x2b(%edi)
    1d3f:	19 00                	sbb    %eax,(%eax)
    1d41:	00 f7                	add    %dh,%bh
    1d43:	19 00                	sbb    %eax,(%eax)
    1d45:	00 04 00             	add    %al,(%eax,%eax,1)
    1d48:	91                   	xchg   %eax,%ecx
    1d49:	a0 7f 9f 21 1a       	mov    0x1a219f7f,%al
    1d4e:	00 00                	add    %al,(%eax)
    1d50:	24 1a                	and    $0x1a,%al
    1d52:	00 00                	add    %al,(%eax)
    1d54:	04 00                	add    $0x0,%al
    1d56:	91                   	xchg   %eax,%ecx
    1d57:	a8 7f                	test   $0x7f,%al
    1d59:	9f                   	lahf   
    1d5a:	24 1a                	and    $0x1a,%al
    1d5c:	00 00                	add    %al,(%eax)
    1d5e:	29 1a                	sub    %ebx,(%edx)
    1d60:	00 00                	add    %al,(%eax)
    1d62:	03 00                	add    (%eax),%eax
    1d64:	77 08                	ja     1d6e <.debug_loc+0x1d6e>
    1d66:	9f                   	lahf   
    1d67:	5c                   	pop    %esp
    1d68:	1a 00                	sbb    (%eax),%al
    1d6a:	00 61 1a             	add    %ah,0x1a(%ecx)
    1d6d:	00 00                	add    %al,(%eax)
    1d6f:	03 00                	add    (%eax),%eax
    1d71:	77 08                	ja     1d7b <.debug_loc+0x1d7b>
    1d73:	9f                   	lahf   
    1d74:	9a 1a 00 00 9f 1a 00 	lcall  $0x1a,$0x9f00001a
    1d7b:	00 03                	add    %al,(%ebx)
    1d7d:	00 77 08             	add    %dh,0x8(%edi)
    1d80:	9f                   	lahf   
    1d81:	9f                   	lahf   
    1d82:	1a 00                	sbb    (%eax),%al
    1d84:	00 db                	add    %bl,%bl
    1d86:	1e                   	push   %ds
    1d87:	00 00                	add    %al,(%eax)
    1d89:	04 00                	add    $0x0,%al
    1d8b:	91                   	xchg   %eax,%ecx
    1d8c:	a0 7f 9f ee 1e       	mov    0x1eee9f7f,%al
    1d91:	00 00                	add    %al,(%eax)
    1d93:	f9                   	stc    
    1d94:	1e                   	push   %ds
    1d95:	00 00                	add    %al,(%eax)
    1d97:	04 00                	add    $0x0,%al
    1d99:	91                   	xchg   %eax,%ecx
    1d9a:	a0 7f 9f 00 00       	mov    0x9f7f,%al
    1d9f:	00 00                	add    %al,(%eax)
    1da1:	00 00                	add    %al,(%eax)
    1da3:	00 00                	add    %al,(%eax)
    1da5:	48                   	dec    %eax
    1da6:	02 00                	add    (%eax),%al
    1da8:	00 5c 02 00          	add    %bl,0x0(%edx,%eax,1)
    1dac:	00 01                	add    %al,(%ecx)
    1dae:	00 50 f0             	add    %dl,-0x10(%eax)
    1db1:	1b 00                	sbb    (%eax),%eax
    1db3:	00 f6                	add    %dh,%dh
    1db5:	1b 00                	sbb    (%eax),%eax
    1db7:	00 01                	add    %al,(%ecx)
    1db9:	00 50 00             	add    %dl,0x0(%eax)
    1dbc:	00 00                	add    %al,(%eax)
    1dbe:	00 00                	add    %al,(%eax)
    1dc0:	00 00                	add    %al,(%eax)
    1dc2:	00 4e 10             	add    %cl,0x10(%esi)
    1dc5:	00 00                	add    %al,(%eax)
    1dc7:	32 11                	xor    (%ecx),%dl
    1dc9:	00 00                	add    %al,(%eax)
    1dcb:	03 00                	add    (%eax),%eax
    1dcd:	91                   	xchg   %eax,%ecx
    1dce:	a0 7e a7 12 00       	mov    0x12a77e,%al
    1dd3:	00 22                	add    %ah,(%edx)
    1dd5:	14 00                	adc    $0x0,%al
    1dd7:	00 03                	add    %al,(%ebx)
    1dd9:	00 91 a0 7e 7d 18    	add    %dl,0x187d7ea0(%ecx)
    1ddf:	00 00                	add    %al,(%eax)
    1de1:	84 18                	test   %bl,(%eax)
    1de3:	00 00                	add    %al,(%eax)
    1de5:	03 00                	add    (%eax),%eax
    1de7:	91                   	xchg   %eax,%ecx
    1de8:	a0 7e f7 19 00       	mov    0x19f77e,%al
    1ded:	00 9f 1a 00 00 03    	add    %bl,0x300001a(%edi)
    1df3:	00 91 a0 7e 00 00    	add    %dl,0x7ea0(%ecx)
    1df9:	00 00                	add    %al,(%eax)
    1dfb:	00 00                	add    %al,(%eax)
    1dfd:	00 00                	add    %al,(%eax)
    1dff:	60                   	pusha  
    1e00:	10 00                	adc    %al,(%eax)
    1e02:	00 ae 10 00 00 01    	add    %ch,0x1000010(%esi)
    1e08:	00 53 ae             	add    %dl,-0x52(%ebx)
    1e0b:	10 00                	adc    %al,(%eax)
    1e0d:	00 32                	add    %dh,(%edx)
    1e0f:	11 00                	adc    %eax,(%eax)
    1e11:	00 01                	add    %al,(%ecx)
    1e13:	00 56 a7             	add    %dl,-0x59(%esi)
    1e16:	12 00                	adc    (%eax),%al
    1e18:	00 10                	add    %dl,(%eax)
    1e1a:	13 00                	adc    (%eax),%eax
    1e1c:	00 01                	add    %al,(%ecx)
    1e1e:	00 56 f7             	add    %dl,-0x9(%esi)
    1e21:	19 00                	sbb    %eax,(%eax)
    1e23:	00 29                	add    %ch,(%ecx)
    1e25:	1a 00                	sbb    (%eax),%al
    1e27:	00 01                	add    %al,(%ecx)
    1e29:	00 53 00             	add    %dl,0x0(%ebx)
    1e2c:	00 00                	add    %al,(%eax)
    1e2e:	00 00                	add    %al,(%eax)
    1e30:	00 00                	add    %al,(%eax)
    1e32:	00 5f 13             	add    %bl,0x13(%edi)
    1e35:	00 00                	add    %al,(%eax)
    1e37:	a2 13 00 00 01       	mov    %al,0x1000013
    1e3c:	00 53 a2             	add    %dl,-0x5e(%ebx)
    1e3f:	13 00                	adc    (%eax),%eax
    1e41:	00 22                	add    %ah,(%edx)
    1e43:	14 00                	adc    $0x0,%al
    1e45:	00 01                	add    %al,(%ecx)
    1e47:	00 56 61             	add    %dl,0x61(%esi)
    1e4a:	1a 00                	sbb    (%eax),%al
    1e4c:	00 9f 1a 00 00 01    	add    %bl,0x100001a(%edi)
    1e52:	00 53 00             	add    %dl,0x0(%ebx)
    1e55:	00 00                	add    %al,(%eax)
    1e57:	00 00                	add    %al,(%eax)
    1e59:	00 00                	add    %al,(%eax)
    1e5b:	00 06                	add    %al,(%esi)
    1e5d:	17                   	pop    %ss
    1e5e:	00 00                	add    %al,(%eax)
    1e60:	4b                   	dec    %ebx
    1e61:	18 00                	sbb    %al,(%eax)
    1e63:	00 06                	add    %al,(%esi)
    1e65:	00 f2                	add    %dh,%dl
    1e67:	6f                   	outsl  %ds:(%esi),(%dx)
    1e68:	0d 00 00 00 84       	or     $0x84000000,%eax
    1e6d:	18 00                	sbb    %al,(%eax)
    1e6f:	00 a3 18 00 00 06    	add    %ah,0x6000018(%ebx)
    1e75:	00 f2                	add    %dh,%dl
    1e77:	6f                   	outsl  %ds:(%esi),(%dx)
    1e78:	0d 00 00 00 fd       	or     $0xfd000000,%eax
    1e7d:	1a 00                	sbb    (%eax),%al
    1e7f:	00 f0                	add    %dh,%al
    1e81:	1b 00                	sbb    (%eax),%eax
    1e83:	00 06                	add    %al,(%esi)
    1e85:	00 f2                	add    %dh,%dl
    1e87:	6f                   	outsl  %ds:(%esi),(%dx)
    1e88:	0d 00 00 00 25       	or     $0x25000000,%eax
    1e8d:	1c 00                	sbb    $0x0,%al
    1e8f:	00 b6 1c 00 00 06    	add    %dh,0x600001c(%esi)
    1e95:	00 f2                	add    %dh,%dl
    1e97:	6f                   	outsl  %ds:(%esi),(%dx)
    1e98:	0d 00 00 00 cb       	or     $0xcb000000,%eax
    1e9d:	1c 00                	sbb    $0x0,%al
    1e9f:	00 84 1e 00 00 06 00 	add    %al,0x60000(%esi,%ebx,1)
    1ea6:	f2 6f                	repnz outsl %ds:(%esi),(%dx)
    1ea8:	0d 00 00 00 b7       	or     $0xb7000000,%eax
    1ead:	1e                   	push   %ds
    1eae:	00 00                	add    %al,(%eax)
    1eb0:	db 1e                	fistpl (%esi)
    1eb2:	00 00                	add    %al,(%eax)
    1eb4:	06                   	push   %es
    1eb5:	00 f2                	add    %dh,%dl
    1eb7:	6f                   	outsl  %ds:(%esi),(%dx)
    1eb8:	0d 00 00 00 ee       	or     $0xee000000,%eax
    1ebd:	1e                   	push   %ds
    1ebe:	00 00                	add    %al,(%eax)
    1ec0:	f9                   	stc    
    1ec1:	1e                   	push   %ds
    1ec2:	00 00                	add    %al,(%eax)
    1ec4:	06                   	push   %es
    1ec5:	00 f2                	add    %dh,%dl
    1ec7:	6f                   	outsl  %ds:(%esi),(%dx)
    1ec8:	0d 00 00 00 00       	or     $0x0,%eax
    1ecd:	00 00                	add    %al,(%eax)
    1ecf:	00 00                	add    %al,(%eax)
    1ed1:	00 00                	add    %al,(%eax)
    1ed3:	00 06                	add    %al,(%esi)
    1ed5:	17                   	pop    %ss
    1ed6:	00 00                	add    %al,(%eax)
    1ed8:	0b 18                	or     (%eax),%ebx
    1eda:	00 00                	add    %al,(%eax)
    1edc:	03 00                	add    (%eax),%eax
    1ede:	91                   	xchg   %eax,%ecx
    1edf:	9c                   	pushf  
    1ee0:	7e 84                	jle    1e66 <.debug_loc+0x1e66>
    1ee2:	18 00                	sbb    %al,(%eax)
    1ee4:	00 a3 18 00 00 03    	add    %ah,0x3000018(%ebx)
    1eea:	00 91 9c 7e fd 1a    	add    %dl,0x1afd7e9c(%ecx)
    1ef0:	00 00                	add    %al,(%eax)
    1ef2:	8b 1b                	mov    (%ebx),%ebx
    1ef4:	00 00                	add    %al,(%eax)
    1ef6:	03 00                	add    (%eax),%eax
    1ef8:	91                   	xchg   %eax,%ecx
    1ef9:	9c                   	pushf  
    1efa:	7e b8                	jle    1eb4 <.debug_loc+0x1eb4>
    1efc:	1b 00                	sbb    (%eax),%eax
    1efe:	00 f0                	add    %dh,%al
    1f00:	1b 00                	sbb    (%eax),%eax
    1f02:	00 03                	add    %al,(%ebx)
    1f04:	00 91 9c 7e 25 1c    	add    %dl,0x1c257e9c(%ecx)
    1f0a:	00 00                	add    %al,(%eax)
    1f0c:	2c 1c                	sub    $0x1c,%al
    1f0e:	00 00                	add    %al,(%eax)
    1f10:	03 00                	add    (%eax),%eax
    1f12:	91                   	xchg   %eax,%ecx
    1f13:	9c                   	pushf  
    1f14:	7e cb                	jle    1ee1 <.debug_loc+0x1ee1>
    1f16:	1c 00                	sbb    $0x0,%al
    1f18:	00 08                	add    %cl,(%eax)
    1f1a:	1d 00 00 03 00       	sbb    $0x30000,%eax
    1f1f:	91                   	xchg   %eax,%ecx
    1f20:	9c                   	pushf  
    1f21:	7e 16                	jle    1f39 <.debug_loc+0x1f39>
    1f23:	1d 00 00 44 1d       	sbb    $0x1d440000,%eax
    1f28:	00 00                	add    %al,(%eax)
    1f2a:	03 00                	add    (%eax),%eax
    1f2c:	91                   	xchg   %eax,%ecx
    1f2d:	9c                   	pushf  
    1f2e:	7e b5                	jle    1ee5 <.debug_loc+0x1ee5>
    1f30:	1d 00 00 ef 1d       	sbb    $0x1def0000,%eax
    1f35:	00 00                	add    %al,(%eax)
    1f37:	03 00                	add    (%eax),%eax
    1f39:	91                   	xchg   %eax,%ecx
    1f3a:	9c                   	pushf  
    1f3b:	7e 00                	jle    1f3d <.debug_loc+0x1f3d>
    1f3d:	1e                   	push   %ds
    1f3e:	00 00                	add    %al,(%eax)
    1f40:	76 1e                	jbe    1f60 <.debug_loc+0x1f60>
    1f42:	00 00                	add    %al,(%eax)
    1f44:	03 00                	add    (%eax),%eax
    1f46:	91                   	xchg   %eax,%ecx
    1f47:	9c                   	pushf  
    1f48:	7e 00                	jle    1f4a <.debug_loc+0x1f4a>
    1f4a:	00 00                	add    %al,(%eax)
    1f4c:	00 00                	add    %al,(%eax)
    1f4e:	00 00                	add    %al,(%eax)
    1f50:	00 06                	add    %al,(%esi)
    1f52:	17                   	pop    %ss
    1f53:	00 00                	add    %al,(%eax)
    1f55:	67 17                	addr16 pop %ss
    1f57:	00 00                	add    %al,(%eax)
    1f59:	04 00                	add    $0x0,%al
    1f5b:	91                   	xchg   %eax,%ecx
    1f5c:	d4 7e                	aam    $0x7e
    1f5e:	9f                   	lahf   
    1f5f:	67 17                	addr16 pop %ss
    1f61:	00 00                	add    %al,(%eax)
    1f63:	6e                   	outsb  %ds:(%esi),(%dx)
    1f64:	17                   	pop    %ss
    1f65:	00 00                	add    %al,(%eax)
    1f67:	01 00                	add    %eax,(%eax)
    1f69:	50                   	push   %eax
    1f6a:	6e                   	outsb  %ds:(%esi),(%dx)
    1f6b:	17                   	pop    %ss
    1f6c:	00 00                	add    %al,(%eax)
    1f6e:	79 17                	jns    1f87 <.debug_loc+0x1f87>
    1f70:	00 00                	add    %al,(%eax)
    1f72:	02 00                	add    (%eax),%al
    1f74:	74 14                	je     1f8a <.debug_loc+0x1f8a>
    1f76:	79 17                	jns    1f8f <.debug_loc+0x1f8f>
    1f78:	00 00                	add    %al,(%eax)
    1f7a:	4b                   	dec    %ebx
    1f7b:	18 00                	sbb    %al,(%eax)
    1f7d:	00 04 00             	add    %al,(%eax,%eax,1)
    1f80:	91                   	xchg   %eax,%ecx
    1f81:	d4 7e                	aam    $0x7e
    1f83:	9f                   	lahf   
    1f84:	84 18                	test   %bl,(%eax)
    1f86:	00 00                	add    %al,(%eax)
    1f88:	a3 18 00 00 04       	mov    %eax,0x4000018
    1f8d:	00 91 d4 7e 9f fd    	add    %dl,-0x260812c(%ecx)
    1f93:	1a 00                	sbb    (%eax),%al
    1f95:	00 1c 1b             	add    %bl,(%ebx,%ebx,1)
    1f98:	00 00                	add    %al,(%eax)
    1f9a:	04 00                	add    $0x0,%al
    1f9c:	91                   	xchg   %eax,%ecx
    1f9d:	d4 7e                	aam    $0x7e
    1f9f:	9f                   	lahf   
    1fa0:	1c 1b                	sbb    $0x1b,%al
    1fa2:	00 00                	add    %al,(%eax)
    1fa4:	26 1b 00             	sbb    %es:(%eax),%eax
    1fa7:	00 01                	add    %al,(%ecx)
    1fa9:	00 50 26             	add    %dl,0x26(%eax)
    1fac:	1b 00                	sbb    (%eax),%eax
    1fae:	00 42 1b             	add    %al,0x1b(%edx)
    1fb1:	00 00                	add    %al,(%eax)
    1fb3:	02 00                	add    (%eax),%al
    1fb5:	74 14                	je     1fcb <.debug_loc+0x1fcb>
    1fb7:	42                   	inc    %edx
    1fb8:	1b 00                	sbb    (%eax),%eax
    1fba:	00 f0                	add    %dh,%al
    1fbc:	1b 00                	sbb    (%eax),%eax
    1fbe:	00 04 00             	add    %al,(%eax,%eax,1)
    1fc1:	91                   	xchg   %eax,%ecx
    1fc2:	d4 7e                	aam    $0x7e
    1fc4:	9f                   	lahf   
    1fc5:	25 1c 00 00 b6       	and    $0xb600001c,%eax
    1fca:	1c 00                	sbb    $0x0,%al
    1fcc:	00 04 00             	add    %al,(%eax,%eax,1)
    1fcf:	91                   	xchg   %eax,%ecx
    1fd0:	d4 7e                	aam    $0x7e
    1fd2:	9f                   	lahf   
    1fd3:	cb                   	lret   
    1fd4:	1c 00                	sbb    $0x0,%al
    1fd6:	00 84 1e 00 00 04 00 	add    %al,0x40000(%esi,%ebx,1)
    1fdd:	91                   	xchg   %eax,%ecx
    1fde:	d4 7e                	aam    $0x7e
    1fe0:	9f                   	lahf   
    1fe1:	b7 1e                	mov    $0x1e,%bh
    1fe3:	00 00                	add    %al,(%eax)
    1fe5:	db 1e                	fistpl (%esi)
    1fe7:	00 00                	add    %al,(%eax)
    1fe9:	04 00                	add    $0x0,%al
    1feb:	91                   	xchg   %eax,%ecx
    1fec:	d4 7e                	aam    $0x7e
    1fee:	9f                   	lahf   
    1fef:	ee                   	out    %al,(%dx)
    1ff0:	1e                   	push   %ds
    1ff1:	00 00                	add    %al,(%eax)
    1ff3:	f9                   	stc    
    1ff4:	1e                   	push   %ds
    1ff5:	00 00                	add    %al,(%eax)
    1ff7:	04 00                	add    $0x0,%al
    1ff9:	91                   	xchg   %eax,%ecx
    1ffa:	d4 7e                	aam    $0x7e
    1ffc:	9f                   	lahf   
	...
    2005:	06                   	push   %es
    2006:	17                   	pop    %ss
    2007:	00 00                	add    %al,(%eax)
    2009:	4b                   	dec    %ebx
    200a:	18 00                	sbb    %al,(%eax)
    200c:	00 06                	add    %al,(%esi)
    200e:	00 f2                	add    %dh,%dl
    2010:	f0 0c 00             	lock or $0x0,%al
    2013:	00 00                	add    %al,(%eax)
    2015:	84 18                	test   %bl,(%eax)
    2017:	00 00                	add    %al,(%eax)
    2019:	a3 18 00 00 06       	mov    %eax,0x6000018
    201e:	00 f2                	add    %dh,%dl
    2020:	f0 0c 00             	lock or $0x0,%al
    2023:	00 00                	add    %al,(%eax)
    2025:	fd                   	std    
    2026:	1a 00                	sbb    (%eax),%al
    2028:	00 f0                	add    %dh,%al
    202a:	1b 00                	sbb    (%eax),%eax
    202c:	00 06                	add    %al,(%esi)
    202e:	00 f2                	add    %dh,%dl
    2030:	f0 0c 00             	lock or $0x0,%al
    2033:	00 00                	add    %al,(%eax)
    2035:	25 1c 00 00 b6       	and    $0xb600001c,%eax
    203a:	1c 00                	sbb    $0x0,%al
    203c:	00 06                	add    %al,(%esi)
    203e:	00 f2                	add    %dh,%dl
    2040:	f0 0c 00             	lock or $0x0,%al
    2043:	00 00                	add    %al,(%eax)
    2045:	cb                   	lret   
    2046:	1c 00                	sbb    $0x0,%al
    2048:	00 84 1e 00 00 06 00 	add    %al,0x60000(%esi,%ebx,1)
    204f:	f2 f0 0c 00          	repnz lock or $0x0,%al
    2053:	00 00                	add    %al,(%eax)
    2055:	b7 1e                	mov    $0x1e,%bh
    2057:	00 00                	add    %al,(%eax)
    2059:	db 1e                	fistpl (%esi)
    205b:	00 00                	add    %al,(%eax)
    205d:	06                   	push   %es
    205e:	00 f2                	add    %dh,%dl
    2060:	f0 0c 00             	lock or $0x0,%al
    2063:	00 00                	add    %al,(%eax)
    2065:	ee                   	out    %al,(%dx)
    2066:	1e                   	push   %ds
    2067:	00 00                	add    %al,(%eax)
    2069:	f9                   	stc    
    206a:	1e                   	push   %ds
    206b:	00 00                	add    %al,(%eax)
    206d:	06                   	push   %es
    206e:	00 f2                	add    %dh,%dl
    2070:	f0 0c 00             	lock or $0x0,%al
	...
    207b:	00 00                	add    %al,(%eax)
    207d:	06                   	push   %es
    207e:	17                   	pop    %ss
    207f:	00 00                	add    %al,(%eax)
    2081:	0c 17                	or     $0x17,%al
    2083:	00 00                	add    %al,(%eax)
    2085:	01 00                	add    %eax,(%eax)
    2087:	50                   	push   %eax
    2088:	0c 17                	or     $0x17,%al
    208a:	00 00                	add    %al,(%eax)
    208c:	4b                   	dec    %ebx
    208d:	18 00                	sbb    %al,(%eax)
    208f:	00 03                	add    %al,(%ebx)
    2091:	00 91 a8 7e 84 18    	add    %dl,0x18847ea8(%ecx)
    2097:	00 00                	add    %al,(%eax)
    2099:	a3 18 00 00 03       	mov    %eax,0x3000018
    209e:	00 91 a8 7e fd 1a    	add    %dl,0x1afd7ea8(%ecx)
    20a4:	00 00                	add    %al,(%eax)
    20a6:	f0 1b 00             	lock sbb (%eax),%eax
    20a9:	00 03                	add    %al,(%ebx)
    20ab:	00 91 a8 7e 25 1c    	add    %dl,0x1c257ea8(%ecx)
    20b1:	00 00                	add    %al,(%eax)
    20b3:	b6 1c                	mov    $0x1c,%dh
    20b5:	00 00                	add    %al,(%eax)
    20b7:	03 00                	add    (%eax),%eax
    20b9:	91                   	xchg   %eax,%ecx
    20ba:	a8 7e                	test   $0x7e,%al
    20bc:	cb                   	lret   
    20bd:	1c 00                	sbb    $0x0,%al
    20bf:	00 84 1e 00 00 03 00 	add    %al,0x30000(%esi,%ebx,1)
    20c6:	91                   	xchg   %eax,%ecx
    20c7:	a8 7e                	test   $0x7e,%al
    20c9:	b7 1e                	mov    $0x1e,%bh
    20cb:	00 00                	add    %al,(%eax)
    20cd:	db 1e                	fistpl (%esi)
    20cf:	00 00                	add    %al,(%eax)
    20d1:	03 00                	add    (%eax),%eax
    20d3:	91                   	xchg   %eax,%ecx
    20d4:	a8 7e                	test   $0x7e,%al
    20d6:	ee                   	out    %al,(%dx)
    20d7:	1e                   	push   %ds
    20d8:	00 00                	add    %al,(%eax)
    20da:	f9                   	stc    
    20db:	1e                   	push   %ds
    20dc:	00 00                	add    %al,(%eax)
    20de:	03 00                	add    (%eax),%eax
    20e0:	91                   	xchg   %eax,%ecx
    20e1:	a8 7e                	test   $0x7e,%al
	...
    20eb:	06                   	push   %es
    20ec:	17                   	pop    %ss
    20ed:	00 00                	add    %al,(%eax)
    20ef:	4d                   	dec    %ebp
    20f0:	17                   	pop    %ss
    20f1:	00 00                	add    %al,(%eax)
    20f3:	03 00                	add    (%eax),%eax
    20f5:	91                   	xchg   %eax,%ecx
    20f6:	bc 7e 4d 17 00       	mov    $0x174d7e,%esp
    20fb:	00 89 17 00 00 01    	add    %cl,0x1000017(%ecx)
    2101:	00 56 fd             	add    %dl,-0x3(%esi)
    2104:	1a 00                	sbb    (%eax),%al
    2106:	00 8b 1b 00 00 03    	add    %cl,0x300001b(%ebx)
    210c:	00 91 bc 7e b8 1b    	add    %dl,0x1bb87ebc(%ecx)
    2112:	00 00                	add    %al,(%eax)
    2114:	d2 1b                	rcrb   %cl,(%ebx)
    2116:	00 00                	add    %al,(%eax)
    2118:	03 00                	add    (%eax),%eax
    211a:	91                   	xchg   %eax,%ecx
    211b:	bc 7e cb 1c 00       	mov    $0x1ccb7e,%esp
    2120:	00 e3                	add    %ah,%bl
    2122:	1c 00                	sbb    $0x0,%al
    2124:	00 03                	add    %al,(%ebx)
    2126:	00 91 bc 7e b5 1d    	add    %dl,0x1db57ebc(%ecx)
    212c:	00 00                	add    %al,(%eax)
    212e:	dd 1d 00 00 03 00    	fstpl  0x30000
    2134:	91                   	xchg   %eax,%ecx
    2135:	bc 7e 00 00 00       	mov    $0x7e,%esp
    213a:	00 00                	add    %al,(%eax)
    213c:	00 00                	add    %al,(%eax)
    213e:	00 06                	add    %al,(%esi)
    2140:	17                   	pop    %ss
    2141:	00 00                	add    %al,(%eax)
    2143:	79 17                	jns    215c <.debug_loc+0x215c>
    2145:	00 00                	add    %al,(%eax)
    2147:	01 00                	add    %eax,(%eax)
    2149:	5b                   	pop    %ebx
    214a:	79 17                	jns    2163 <.debug_loc+0x2163>
    214c:	00 00                	add    %al,(%eax)
    214e:	16                   	push   %ss
    214f:	18 00                	sbb    %al,(%eax)
    2151:	00 03                	add    %al,(%ebx)
    2153:	00 91 b0 7e 84 18    	add    %dl,0x18847eb0(%ecx)
    2159:	00 00                	add    %al,(%eax)
    215b:	a3 18 00 00 03       	mov    %eax,0x3000018
    2160:	00 91 b0 7e fd 1a    	add    %dl,0x1afd7eb0(%ecx)
    2166:	00 00                	add    %al,(%eax)
    2168:	42                   	inc    %edx
    2169:	1b 00                	sbb    (%eax),%eax
    216b:	00 01                	add    %al,(%ecx)
    216d:	00 5b 42             	add    %bl,0x42(%ebx)
    2170:	1b 00                	sbb    (%eax),%eax
    2172:	00 8b 1b 00 00 03    	add    %cl,0x300001b(%ebx)
    2178:	00 91 b0 7e b8 1b    	add    %dl,0x1bb87eb0(%ecx)
    217e:	00 00                	add    %al,(%eax)
    2180:	f0 1b 00             	lock sbb (%eax),%eax
    2183:	00 03                	add    %al,(%ebx)
    2185:	00 91 b0 7e 25 1c    	add    %dl,0x1c257eb0(%ecx)
    218b:	00 00                	add    %al,(%eax)
    218d:	91                   	xchg   %eax,%ecx
    218e:	1c 00                	sbb    $0x0,%al
    2190:	00 03                	add    %al,(%ebx)
    2192:	00 91 b0 7e cb 1c    	add    %dl,0x1ccb7eb0(%ecx)
    2198:	00 00                	add    %al,(%eax)
    219a:	e3 1c                	jecxz  21b8 <.debug_loc+0x21b8>
    219c:	00 00                	add    %al,(%eax)
    219e:	01 00                	add    %eax,(%eax)
    21a0:	5b                   	pop    %ebx
    21a1:	e3 1c                	jecxz  21bf <.debug_loc+0x21bf>
    21a3:	00 00                	add    %al,(%eax)
    21a5:	0e                   	push   %cs
    21a6:	1d 00 00 03 00       	sbb    $0x30000,%eax
    21ab:	91                   	xchg   %eax,%ecx
    21ac:	b0 7e                	mov    $0x7e,%al
    21ae:	16                   	push   %ss
    21af:	1d 00 00 3f 1d       	sbb    $0x1d3f0000,%eax
    21b4:	00 00                	add    %al,(%eax)
    21b6:	03 00                	add    (%eax),%eax
    21b8:	91                   	xchg   %eax,%ecx
    21b9:	b0 7e                	mov    $0x7e,%al
    21bb:	44                   	inc    %esp
    21bc:	1d 00 00 f8 1d       	sbb    $0x1df80000,%eax
    21c1:	00 00                	add    %al,(%eax)
    21c3:	03 00                	add    (%eax),%eax
    21c5:	91                   	xchg   %eax,%ecx
    21c6:	b0 7e                	mov    $0x7e,%al
    21c8:	00 1e                	add    %bl,(%esi)
    21ca:	00 00                	add    %al,(%eax)
    21cc:	18 1e                	sbb    %bl,(%esi)
    21ce:	00 00                	add    %al,(%eax)
    21d0:	03 00                	add    (%eax),%eax
    21d2:	91                   	xchg   %eax,%ecx
    21d3:	b0 7e                	mov    $0x7e,%al
    21d5:	24 1e                	and    $0x1e,%al
    21d7:	00 00                	add    %al,(%eax)
    21d9:	46                   	inc    %esi
    21da:	1e                   	push   %ds
    21db:	00 00                	add    %al,(%eax)
    21dd:	03 00                	add    (%eax),%eax
    21df:	91                   	xchg   %eax,%ecx
    21e0:	b0 7e                	mov    $0x7e,%al
    21e2:	4b                   	dec    %ebx
    21e3:	1e                   	push   %ds
    21e4:	00 00                	add    %al,(%eax)
    21e6:	6e                   	outsb  %ds:(%esi),(%dx)
    21e7:	1e                   	push   %ds
    21e8:	00 00                	add    %al,(%eax)
    21ea:	03 00                	add    (%eax),%eax
    21ec:	91                   	xchg   %eax,%ecx
    21ed:	b0 7e                	mov    $0x7e,%al
    21ef:	76 1e                	jbe    220f <.debug_loc+0x220f>
    21f1:	00 00                	add    %al,(%eax)
    21f3:	84 1e                	test   %bl,(%esi)
    21f5:	00 00                	add    %al,(%eax)
    21f7:	03 00                	add    (%eax),%eax
    21f9:	91                   	xchg   %eax,%ecx
    21fa:	b0 7e                	mov    $0x7e,%al
    21fc:	ee                   	out    %al,(%dx)
    21fd:	1e                   	push   %ds
    21fe:	00 00                	add    %al,(%eax)
    2200:	f9                   	stc    
    2201:	1e                   	push   %ds
    2202:	00 00                	add    %al,(%eax)
    2204:	03 00                	add    (%eax),%eax
    2206:	91                   	xchg   %eax,%ecx
    2207:	b0 7e                	mov    $0x7e,%al
	...
    2211:	06                   	push   %es
    2212:	17                   	pop    %ss
    2213:	00 00                	add    %al,(%eax)
    2215:	4b                   	dec    %ebx
    2216:	18 00                	sbb    %al,(%eax)
    2218:	00 02                	add    %al,(%edx)
    221a:	00 91 00 84 18 00    	add    %dl,0x188400(%ecx)
    2220:	00 a3 18 00 00 02    	add    %ah,0x2000018(%ebx)
    2226:	00 91 00 fd 1a 00    	add    %dl,0x1afd00(%ecx)
    222c:	00 f0                	add    %dh,%al
    222e:	1b 00                	sbb    (%eax),%eax
    2230:	00 02                	add    %al,(%edx)
    2232:	00 91 00 25 1c 00    	add    %dl,0x1c2500(%ecx)
    2238:	00 b6 1c 00 00 02    	add    %dh,0x200001c(%esi)
    223e:	00 91 00 cb 1c 00    	add    %dl,0x1ccb00(%ecx)
    2244:	00 84 1e 00 00 02 00 	add    %al,0x20000(%esi,%ebx,1)
    224b:	91                   	xchg   %eax,%ecx
    224c:	00 b7 1e 00 00 db    	add    %dh,-0x24ffffe2(%edi)
    2252:	1e                   	push   %ds
    2253:	00 00                	add    %al,(%eax)
    2255:	02 00                	add    (%eax),%al
    2257:	91                   	xchg   %eax,%ecx
    2258:	00 ee                	add    %ch,%dh
    225a:	1e                   	push   %ds
    225b:	00 00                	add    %al,(%eax)
    225d:	f9                   	stc    
    225e:	1e                   	push   %ds
    225f:	00 00                	add    %al,(%eax)
    2261:	02 00                	add    (%eax),%al
    2263:	91                   	xchg   %eax,%ecx
	...
    226c:	00 4d 17             	add    %cl,0x17(%ebp)
    226f:	00 00                	add    %al,(%eax)
    2271:	89 17                	mov    %edx,(%edi)
    2273:	00 00                	add    %al,(%eax)
    2275:	02 00                	add    (%eax),%al
    2277:	32 9f 02 1b 00 00    	xor    0x1b02(%edi),%bl
    227d:	42                   	inc    %edx
    227e:	1b 00                	sbb    (%eax),%eax
    2280:	00 01                	add    %al,(%ecx)
    2282:	00 52 00             	add    %dl,0x0(%edx)
    2285:	00 00                	add    %al,(%eax)
    2287:	00 00                	add    %al,(%eax)
    2289:	00 00                	add    %al,(%eax)
    228b:	00 80 17 00 00 89    	add    %al,-0x76ffffe9(%eax)
    2291:	17                   	pop    %ss
    2292:	00 00                	add    %al,(%eax)
    2294:	01 00                	add    %eax,(%eax)
    2296:	50                   	push   %eax
    2297:	89 17                	mov    %edx,(%edi)
    2299:	00 00                	add    %al,(%eax)
    229b:	4b                   	dec    %ebx
    229c:	18 00                	sbb    %al,(%eax)
    229e:	00 03                	add    %al,(%ebx)
    22a0:	00 91 a0 7e 84 18    	add    %dl,0x18847ea0(%ecx)
    22a6:	00 00                	add    %al,(%eax)
    22a8:	a3 18 00 00 03       	mov    %eax,0x3000018
    22ad:	00 91 a0 7e 4c 1b    	add    %dl,0x1b4c7ea0(%ecx)
    22b3:	00 00                	add    %al,(%eax)
    22b5:	65 1b 00             	sbb    %gs:(%eax),%eax
    22b8:	00 01                	add    %al,(%ecx)
    22ba:	00 50 65             	add    %dl,0x65(%eax)
    22bd:	1b 00                	sbb    (%eax),%eax
    22bf:	00 b8 1b 00 00 03    	add    %bh,0x300001b(%eax)
    22c5:	00 91 a0 7e b8 1b    	add    %dl,0x1bb87ea0(%ecx)
    22cb:	00 00                	add    %al,(%eax)
    22cd:	c0 1b 00             	rcrb   $0x0,(%ebx)
    22d0:	00 01                	add    %al,(%ecx)
    22d2:	00 50 c0             	add    %dl,-0x40(%eax)
    22d5:	1b 00                	sbb    (%eax),%eax
    22d7:	00 f0                	add    %dh,%al
    22d9:	1b 00                	sbb    (%eax),%eax
    22db:	00 03                	add    %al,(%ebx)
    22dd:	00 91 a0 7e 25 1c    	add    %dl,0x1c257ea0(%ecx)
    22e3:	00 00                	add    %al,(%eax)
    22e5:	b6 1c                	mov    $0x1c,%dh
    22e7:	00 00                	add    %al,(%eax)
    22e9:	03 00                	add    (%eax),%eax
    22eb:	91                   	xchg   %eax,%ecx
    22ec:	a0 7e e3 1c 00       	mov    0x1ce37e,%al
    22f1:	00 84 1e 00 00 03 00 	add    %al,0x30000(%esi,%ebx,1)
    22f8:	91                   	xchg   %eax,%ecx
    22f9:	a0 7e b7 1e 00       	mov    0x1eb77e,%al
    22fe:	00 db                	add    %bl,%bl
    2300:	1e                   	push   %ds
    2301:	00 00                	add    %al,(%eax)
    2303:	03 00                	add    (%eax),%eax
    2305:	91                   	xchg   %eax,%ecx
    2306:	a0 7e ee 1e 00       	mov    0x1eee7e,%al
    230b:	00 f9                	add    %bh,%cl
    230d:	1e                   	push   %ds
    230e:	00 00                	add    %al,(%eax)
    2310:	03 00                	add    (%eax),%eax
    2312:	91                   	xchg   %eax,%ecx
    2313:	a0 7e 00 00 00       	mov    0x7e,%al
    2318:	00 00                	add    %al,(%eax)
    231a:	00 00                	add    %al,(%eax)
    231c:	00 83 17 00 00 da    	add    %al,-0x25ffffe9(%ebx)
    2322:	17                   	pop    %ss
    2323:	00 00                	add    %al,(%eax)
    2325:	01 00                	add    %eax,(%eax)
    2327:	51                   	push   %ecx
    2328:	84 18                	test   %bl,(%eax)
    232a:	00 00                	add    %al,(%eax)
    232c:	a3 18 00 00 01       	mov    %eax,0x1000018
    2331:	00 51 6d             	add    %dl,0x6d(%ecx)
    2334:	1b 00                	sbb    (%eax),%eax
    2336:	00 8b 1b 00 00 01    	add    %cl,0x100001b(%ebx)
    233c:	00 51 16             	add    %dl,0x16(%ecx)
    233f:	1d 00 00 44 1d       	sbb    $0x1d440000,%eax
    2344:	00 00                	add    %al,(%eax)
    2346:	01 00                	add    %eax,(%eax)
    2348:	51                   	push   %ecx
    2349:	b5 1d                	mov    $0x1d,%ch
    234b:	00 00                	add    %al,(%eax)
    234d:	dd 1d 00 00 01 00    	fstpl  0x10000
    2353:	51                   	push   %ecx
    2354:	00 1e                	add    %bl,(%esi)
    2356:	00 00                	add    %al,(%eax)
    2358:	4b                   	dec    %ebx
    2359:	1e                   	push   %ds
    235a:	00 00                	add    %al,(%eax)
    235c:	01 00                	add    %eax,(%eax)
    235e:	51                   	push   %ecx
    235f:	5d                   	pop    %ebp
    2360:	1e                   	push   %ds
    2361:	00 00                	add    %al,(%eax)
    2363:	76 1e                	jbe    2383 <.debug_loc+0x2383>
    2365:	00 00                	add    %al,(%eax)
    2367:	01 00                	add    %eax,(%eax)
    2369:	51                   	push   %ecx
	...
    2372:	3e 1c 00             	ds sbb $0x0,%al
    2375:	00 b6 1c 00 00 03    	add    %dh,0x300001c(%esi)
    237b:	00 91 9c 7e 44 1d    	add    %dl,0x1d447e9c(%ecx)
    2381:	00 00                	add    %al,(%eax)
    2383:	b5 1d                	mov    $0x1d,%ch
    2385:	00 00                	add    %al,(%eax)
    2387:	03 00                	add    (%eax),%eax
    2389:	91                   	xchg   %eax,%ecx
    238a:	9c                   	pushf  
    238b:	7e 76                	jle    2403 <.debug_loc+0x2403>
    238d:	1e                   	push   %ds
    238e:	00 00                	add    %al,(%eax)
    2390:	84 1e                	test   %bl,(%esi)
    2392:	00 00                	add    %al,(%eax)
    2394:	03 00                	add    (%eax),%eax
    2396:	91                   	xchg   %eax,%ecx
    2397:	9c                   	pushf  
    2398:	7e b7                	jle    2351 <.debug_loc+0x2351>
    239a:	1e                   	push   %ds
    239b:	00 00                	add    %al,(%eax)
    239d:	db 1e                	fistpl (%esi)
    239f:	00 00                	add    %al,(%eax)
    23a1:	03 00                	add    (%eax),%eax
    23a3:	91                   	xchg   %eax,%ecx
    23a4:	9c                   	pushf  
    23a5:	7e ee                	jle    2395 <.debug_loc+0x2395>
    23a7:	1e                   	push   %ds
    23a8:	00 00                	add    %al,(%eax)
    23aa:	f9                   	stc    
    23ab:	1e                   	push   %ds
    23ac:	00 00                	add    %al,(%eax)
    23ae:	03 00                	add    (%eax),%eax
    23b0:	91                   	xchg   %eax,%ecx
    23b1:	9c                   	pushf  
    23b2:	7e 00                	jle    23b4 <.debug_loc+0x23b4>
    23b4:	00 00                	add    %al,(%eax)
    23b6:	00 00                	add    %al,(%eax)
    23b8:	00 00                	add    %al,(%eax)
    23ba:	00 3e                	add    %bh,(%esi)
    23bc:	1c 00                	sbb    $0x0,%al
    23be:	00 5d 1c             	add    %bl,0x1c(%ebp)
    23c1:	00 00                	add    %al,(%eax)
    23c3:	01 00                	add    %eax,(%eax)
    23c5:	51                   	push   %ecx
    23c6:	5d                   	pop    %ebp
    23c7:	1c 00                	sbb    $0x0,%al
    23c9:	00 70 1c             	add    %dh,0x1c(%eax)
    23cc:	00 00                	add    %al,(%eax)
    23ce:	03 00                	add    (%eax),%eax
    23d0:	71 50                	jno    2422 <.debug_loc+0x2422>
    23d2:	9f                   	lahf   
    23d3:	44                   	inc    %esp
    23d4:	1d 00 00 67 1d       	sbb    $0x1d670000,%eax
    23d9:	00 00                	add    %al,(%eax)
    23db:	01 00                	add    %eax,(%eax)
    23dd:	51                   	push   %ecx
    23de:	6f                   	outsl  %ds:(%esi),(%dx)
    23df:	1d 00 00 8a 1d       	sbb    $0x1d8a0000,%eax
    23e4:	00 00                	add    %al,(%eax)
    23e6:	01 00                	add    %eax,(%eax)
    23e8:	52                   	push   %edx
    23e9:	8a 1d 00 00 8c 1d    	mov    0x1d8c0000,%bl
    23ef:	00 00                	add    %al,(%eax)
    23f1:	03 00                	add    (%eax),%eax
    23f3:	71 50                	jno    2445 <.debug_loc+0x2445>
    23f5:	9f                   	lahf   
    23f6:	76 1e                	jbe    2416 <.debug_loc+0x2416>
    23f8:	00 00                	add    %al,(%eax)
    23fa:	84 1e                	test   %bl,(%esi)
    23fc:	00 00                	add    %al,(%eax)
    23fe:	01 00                	add    %eax,(%eax)
    2400:	51                   	push   %ecx
    2401:	ee                   	out    %al,(%dx)
    2402:	1e                   	push   %ds
    2403:	00 00                	add    %al,(%eax)
    2405:	f9                   	stc    
    2406:	1e                   	push   %ds
    2407:	00 00                	add    %al,(%eax)
    2409:	01 00                	add    %eax,(%eax)
    240b:	52                   	push   %edx
	...
    2414:	3e 1c 00             	ds sbb $0x0,%al
    2417:	00 7c 1c 00          	add    %bh,0x0(%esp,%ebx,1)
    241b:	00 04 00             	add    %al,(%eax,%eax,1)
    241e:	91                   	xchg   %eax,%ecx
    241f:	dd 7e 9f             	fnstsw -0x61(%esi)
    2422:	7c 1c                	jl     2440 <.debug_loc+0x2440>
    2424:	00 00                	add    %al,(%eax)
    2426:	86 1c 00             	xchg   %bl,(%eax,%eax,1)
    2429:	00 01                	add    %al,(%ecx)
    242b:	00 52 86             	add    %dl,-0x7a(%edx)
    242e:	1c 00                	sbb    $0x0,%al
    2430:	00 b6 1c 00 00 04    	add    %dh,0x400001c(%esi)
    2436:	00 91 dd 7e 9f 44    	add    %dl,0x449f7edd(%ecx)
    243c:	1d 00 00 b5 1d       	sbb    $0x1db50000,%eax
    2441:	00 00                	add    %al,(%eax)
    2443:	04 00                	add    $0x0,%al
    2445:	91                   	xchg   %eax,%ecx
    2446:	dd 7e 9f             	fnstsw -0x61(%esi)
    2449:	76 1e                	jbe    2469 <.debug_loc+0x2469>
    244b:	00 00                	add    %al,(%eax)
    244d:	84 1e                	test   %bl,(%esi)
    244f:	00 00                	add    %al,(%eax)
    2451:	04 00                	add    $0x0,%al
    2453:	91                   	xchg   %eax,%ecx
    2454:	dd 7e 9f             	fnstsw -0x61(%esi)
    2457:	b7 1e                	mov    $0x1e,%bh
    2459:	00 00                	add    %al,(%eax)
    245b:	db 1e                	fistpl (%esi)
    245d:	00 00                	add    %al,(%eax)
    245f:	04 00                	add    $0x0,%al
    2461:	91                   	xchg   %eax,%ecx
    2462:	dd 7e 9f             	fnstsw -0x61(%esi)
    2465:	ee                   	out    %al,(%dx)
    2466:	1e                   	push   %ds
    2467:	00 00                	add    %al,(%eax)
    2469:	f9                   	stc    
    246a:	1e                   	push   %ds
    246b:	00 00                	add    %al,(%eax)
    246d:	04 00                	add    $0x0,%al
    246f:	91                   	xchg   %eax,%ecx
    2470:	dd 7e 9f             	fnstsw -0x61(%esi)
	...
    247b:	3e 1c 00             	ds sbb $0x0,%al
    247e:	00 4a 1c             	add    %cl,0x1c(%edx)
    2481:	00 00                	add    %al,(%eax)
    2483:	04 00                	add    $0x0,%al
    2485:	91                   	xchg   %eax,%ecx
    2486:	de 7e 9f             	fidivr -0x61(%esi)
    2489:	4a                   	dec    %edx
    248a:	1c 00                	sbb    $0x0,%al
    248c:	00 5a 1c             	add    %bl,0x1c(%edx)
    248f:	00 00                	add    %al,(%eax)
    2491:	04 00                	add    $0x0,%al
    2493:	91                   	xchg   %eax,%ecx
    2494:	df 7e 9f             	fistpll -0x61(%esi)
    2497:	5a                   	pop    %edx
    2498:	1c 00                	sbb    $0x0,%al
    249a:	00 64 1c 00          	add    %ah,0x0(%esp,%ebx,1)
    249e:	00 04 00             	add    %al,(%eax,%eax,1)
    24a1:	91                   	xchg   %eax,%ecx
    24a2:	e0 7e                	loopne 2522 <.debug_loc+0x2522>
    24a4:	9f                   	lahf   
    24a5:	64 1c 00             	fs sbb $0x0,%al
    24a8:	00 6a 1c             	add    %ch,0x1c(%edx)
    24ab:	00 00                	add    %al,(%eax)
    24ad:	04 00                	add    $0x0,%al
    24af:	91                   	xchg   %eax,%ecx
    24b0:	e1 7e                	loope  2530 <.debug_loc+0x2530>
    24b2:	9f                   	lahf   
    24b3:	6a 1c                	push   $0x1c
    24b5:	00 00                	add    %al,(%eax)
    24b7:	7e 1c                	jle    24d5 <.debug_loc+0x24d5>
    24b9:	00 00                	add    %al,(%eax)
    24bb:	01 00                	add    %eax,(%eax)
    24bd:	50                   	push   %eax
    24be:	44                   	inc    %esp
    24bf:	1d 00 00 8a 1d       	sbb    $0x1d8a0000,%eax
    24c4:	00 00                	add    %al,(%eax)
    24c6:	04 00                	add    $0x0,%al
    24c8:	91                   	xchg   %eax,%ecx
    24c9:	df 7e 9f             	fistpll -0x61(%esi)
    24cc:	8a 1d 00 00 ae 1d    	mov    0x1dae0000,%bl
    24d2:	00 00                	add    %al,(%eax)
    24d4:	01 00                	add    %eax,(%eax)
    24d6:	52                   	push   %edx
    24d7:	76 1e                	jbe    24f7 <.debug_loc+0x24f7>
    24d9:	00 00                	add    %al,(%eax)
    24db:	78 1e                	js     24fb <.debug_loc+0x24fb>
    24dd:	00 00                	add    %al,(%eax)
    24df:	04 00                	add    $0x0,%al
    24e1:	91                   	xchg   %eax,%ecx
    24e2:	de 7e 9f             	fidivr -0x61(%esi)
    24e5:	78 1e                	js     2505 <.debug_loc+0x2505>
    24e7:	00 00                	add    %al,(%eax)
    24e9:	84 1e                	test   %bl,(%esi)
    24eb:	00 00                	add    %al,(%eax)
    24ed:	04 00                	add    $0x0,%al
    24ef:	91                   	xchg   %eax,%ecx
    24f0:	df 7e 9f             	fistpll -0x61(%esi)
    24f3:	ee                   	out    %al,(%dx)
    24f4:	1e                   	push   %ds
    24f5:	00 00                	add    %al,(%eax)
    24f7:	f4                   	hlt    
    24f8:	1e                   	push   %ds
    24f9:	00 00                	add    %al,(%eax)
    24fb:	04 00                	add    $0x0,%al
    24fd:	91                   	xchg   %eax,%ecx
    24fe:	df 7e 9f             	fistpll -0x61(%esi)
    2501:	f4                   	hlt    
    2502:	1e                   	push   %ds
    2503:	00 00                	add    %al,(%eax)
    2505:	f9                   	stc    
    2506:	1e                   	push   %ds
    2507:	00 00                	add    %al,(%eax)
    2509:	01 00                	add    %eax,(%eax)
    250b:	50                   	push   %eax
	...
    2514:	51                   	push   %ecx
    2515:	1c 00                	sbb    $0x0,%al
    2517:	00 70 1c             	add    %dh,0x1c(%eax)
    251a:	00 00                	add    %al,(%eax)
    251c:	04 00                	add    $0x0,%al
    251e:	91                   	xchg   %eax,%ecx
    251f:	eb 7e                	jmp    259f <blanks.3938+0x242b>
    2521:	9f                   	lahf   
    2522:	44                   	inc    %esp
    2523:	1d 00 00 4a 1d       	sbb    $0x1d4a0000,%eax
    2528:	00 00                	add    %al,(%eax)
    252a:	04 00                	add    $0x0,%al
    252c:	91                   	xchg   %eax,%ecx
    252d:	eb 7e                	jmp    25ad <blanks.3938+0x2439>
    252f:	9f                   	lahf   
    2530:	4a                   	dec    %edx
    2531:	1d 00 00 4c 1d       	sbb    $0x1d4c0000,%eax
    2536:	00 00                	add    %al,(%eax)
    2538:	01 00                	add    %eax,(%eax)
    253a:	56                   	push   %esi
    253b:	4c                   	dec    %esp
    253c:	1d 00 00 76 1d       	sbb    $0x1d760000,%eax
    2541:	00 00                	add    %al,(%eax)
    2543:	01 00                	add    %eax,(%eax)
    2545:	53                   	push   %ebx
    2546:	76 1d                	jbe    2565 <.debug_loc+0x2565>
    2548:	00 00                	add    %al,(%eax)
    254a:	96                   	xchg   %eax,%esi
    254b:	1d 00 00 01 00       	sbb    $0x10000,%eax
    2550:	50                   	push   %eax
    2551:	96                   	xchg   %eax,%esi
    2552:	1d 00 00 99 1d       	sbb    $0x1d990000,%eax
    2557:	00 00                	add    %al,(%eax)
    2559:	03 00                	add    (%eax),%eax
    255b:	70 7f                	jo     25dc <blanks.3938+0x2468>
    255d:	9f                   	lahf   
    255e:	99                   	cltd   
    255f:	1d 00 00 a6 1d       	sbb    $0x1da60000,%eax
    2564:	00 00                	add    %al,(%eax)
    2566:	01 00                	add    %eax,(%eax)
    2568:	50                   	push   %eax
    2569:	ee                   	out    %al,(%dx)
    256a:	1e                   	push   %ds
    256b:	00 00                	add    %al,(%eax)
    256d:	f4                   	hlt    
    256e:	1e                   	push   %ds
    256f:	00 00                	add    %al,(%eax)
    2571:	01 00                	add    %eax,(%eax)
    2573:	50                   	push   %eax
    2574:	f4                   	hlt    
    2575:	1e                   	push   %ds
    2576:	00 00                	add    %al,(%eax)
    2578:	f9                   	stc    
    2579:	1e                   	push   %ds
    257a:	00 00                	add    %al,(%eax)
    257c:	03 00                	add    (%eax),%eax
    257e:	73 7f                	jae    25ff <blanks.3938+0x248b>
    2580:	9f                   	lahf   
	...

Disassembly of section .debug_aranges:

00000000 <.debug_aranges>:
   0:	1c 00                	sbb    $0x0,%al
   2:	00 00                	add    %al,(%eax)
   4:	02 00                	add    (%eax),%al
   6:	00 00                	add    %al,(%eax)
   8:	00 00                	add    %al,(%eax)
   a:	04 00                	add    $0x0,%al
	...
  14:	f9                   	stc    
  15:	1e                   	push   %ds
	...

Disassembly of section .debug_ranges:

00000000 <.debug_ranges>:
   0:	2e 02 00             	add    %cs:(%eax),%al
   3:	00 61 02             	add    %ah,0x2(%ecx)
   6:	00 00                	add    %al,(%eax)
   8:	f0 1b 00             	lock sbb (%eax),%eax
   b:	00 fd                	add    %bh,%ch
   d:	1b 00                	sbb    (%eax),%eax
   f:	00 0a                	add    %cl,(%edx)
  11:	1c 00                	sbb    $0x0,%al
  13:	00 16                	add    %dl,(%esi)
  15:	1c 00                	sbb    $0x0,%al
	...
  1f:	00 4e 10             	add    %cl,0x10(%esi)
  22:	00 00                	add    %al,(%eax)
  24:	32 11                	xor    (%ecx),%dl
  26:	00 00                	add    %al,(%eax)
  28:	7c 12                	jl     3c <.debug_ranges+0x3c>
  2a:	00 00                	add    %al,(%eax)
  2c:	8c 12                	mov    %ss,(%edx)
  2e:	00 00                	add    %al,(%eax)
  30:	a7                   	cmpsl  %es:(%edi),%ds:(%esi)
  31:	12 00                	adc    (%eax),%al
  33:	00 22                	add    %ah,(%edx)
  35:	14 00                	adc    $0x0,%al
  37:	00 7d 18             	add    %bh,0x18(%ebp)
  3a:	00 00                	add    %al,(%eax)
  3c:	88 18                	mov    %bl,(%eax)
  3e:	00 00                	add    %al,(%eax)
  40:	f7 19                	negl   (%ecx)
  42:	00 00                	add    %al,(%eax)
  44:	9f                   	lahf   
  45:	1a 00                	sbb    (%eax),%al
	...
  4f:	00 4e 10             	add    %cl,0x10(%esi)
  52:	00 00                	add    %al,(%eax)
  54:	32 11                	xor    (%ecx),%dl
  56:	00 00                	add    %al,(%eax)
  58:	a7                   	cmpsl  %es:(%edi),%ds:(%esi)
  59:	12 00                	adc    (%eax),%al
  5b:	00 f6                	add    %dh,%dh
  5d:	12 00                	adc    (%eax),%al
  5f:	00 f7                	add    %dh,%bh
  61:	19 00                	sbb    %eax,(%eax)
  63:	00 29                	add    %ch,(%ecx)
  65:	1a 00                	sbb    (%eax),%al
	...
  6f:	00 7c 12 00          	add    %bh,0x0(%edx,%edx,1)
  73:	00 8c 12 00 00 55 13 	add    %cl,0x13550000(%edx,%edx,1)
  7a:	00 00                	add    %al,(%eax)
  7c:	22 14 00             	and    (%eax,%eax,1),%dl
  7f:	00 61 1a             	add    %ah,0x1a(%ecx)
  82:	00 00                	add    %al,(%eax)
  84:	9f                   	lahf   
  85:	1a 00                	sbb    (%eax),%al
	...
  8f:	00 f1                	add    %dh,%cl
  91:	16                   	push   %ss
  92:	00 00                	add    %al,(%eax)
  94:	fd                   	std    
  95:	16                   	push   %ss
  96:	00 00                	add    %al,(%eax)
  98:	06                   	push   %es
  99:	17                   	pop    %ss
  9a:	00 00                	add    %al,(%eax)
  9c:	a5                   	movsl  %ds:(%esi),%es:(%edi)
  9d:	17                   	pop    %ss
  9e:	00 00                	add    %al,(%eax)
  a0:	a8 17                	test   $0x17,%al
  a2:	00 00                	add    %al,(%eax)
  a4:	ae                   	scas   %es:(%edi),%al
  a5:	17                   	pop    %ss
  a6:	00 00                	add    %al,(%eax)
  a8:	88 18                	mov    %bl,(%eax)
  aa:	00 00                	add    %al,(%eax)
  ac:	a3 18 00 00 fd       	mov    %eax,0xfd000018
  b1:	1a 00                	sbb    (%eax),%al
  b3:	00 8b 1b 00 00 ba    	add    %cl,-0x45ffffe5(%ebx)
  b9:	1b 00                	sbb    (%eax),%eax
  bb:	00 d2                	add    %dl,%dl
  bd:	1b 00                	sbb    (%eax),%eax
  bf:	00 cb                	add    %cl,%bl
  c1:	1c 00                	sbb    $0x0,%al
  c3:	00 e3                	add    %ah,%bl
  c5:	1c 00                	sbb    $0x0,%al
  c7:	00 b5 1d 00 00 e5    	add    %dh,-0x1affffe3(%ebp)
  cd:	1d 00 00 00 00       	sbb    $0x0,%eax
  d2:	00 00                	add    %al,(%eax)
  d4:	00 00                	add    %al,(%eax)
  d6:	00 00                	add    %al,(%eax)
  d8:	2f                   	das    
  d9:	1c 00                	sbb    $0x0,%al
  db:	00 38                	add    %bh,(%eax)
  dd:	1c 00                	sbb    $0x0,%al
  df:	00 3e                	add    %bh,(%esi)
  e1:	1c 00                	sbb    $0x0,%al
  e3:	00 70 1c             	add    %dh,0x1c(%eax)
  e6:	00 00                	add    %al,(%eax)
  e8:	76 1c                	jbe    106 <.debug_ranges+0x106>
  ea:	00 00                	add    %al,(%eax)
  ec:	84 1c 00             	test   %bl,(%eax,%eax,1)
  ef:	00 44 1d 00          	add    %al,0x0(%ebp,%ebx,1)
  f3:	00 b5 1d 00 00 76    	add    %dh,0x7600001d(%ebp)
  f9:	1e                   	push   %ds
  fa:	00 00                	add    %al,(%eax)
  fc:	84 1e                	test   %bl,(%esi)
  fe:	00 00                	add    %al,(%eax)
 100:	ee                   	out    %al,(%dx)
 101:	1e                   	push   %ds
 102:	00 00                	add    %al,(%eax)
 104:	f9                   	stc    
 105:	1e                   	push   %ds
	...

Disassembly of section .debug_line:

00000000 <.debug_line>:
   0:	ba 08 00 00 02       	mov    $0x2000008,%edx
   5:	00 c9                	add    %cl,%cl
   7:	01 00                	add    %eax,(%eax)
   9:	00 01                	add    %al,(%ecx)
   b:	01 fb                	add    %edi,%ebx
   d:	0e                   	push   %cs
   e:	0d 00 01 01 01       	or     $0x1010100,%eax
  13:	01 00                	add    %eax,(%eax)
  15:	00 00                	add    %al,(%eax)
  17:	01 00                	add    %eax,(%eax)
  19:	00 01                	add    %al,(%ecx)
  1b:	2e 2e 2f             	cs cs das 
  1e:	2e 2e 2f             	cs cs das 
  21:	2e 2e 2f             	cs cs das 
  24:	2e 2e 2f             	cs cs das 
  27:	2e 2e 2f             	cs cs das 
  2a:	6e                   	outsb  %ds:(%esi),(%dx)
  2b:	65 77 6c             	gs ja  9a <.debug_line+0x9a>
  2e:	69 62 2d 32 2e 31 2e 	imul   $0x2e312e32,0x2d(%edx),%esp
  35:	30 2f                	xor    %ch,(%edi)
  37:	6e                   	outsb  %ds:(%esi),(%dx)
  38:	65 77 6c             	gs ja  a7 <.debug_line+0xa7>
  3b:	69 62 2f 6c 69 62 63 	imul   $0x6362696c,0x2f(%edx),%esp
  42:	2f                   	das    
  43:	73 74                	jae    b9 <.debug_line+0xb9>
  45:	64 69 6f 00 2f 75 73 	imul   $0x7273752f,%fs:0x0(%edi),%ebp
  4c:	72 
  4d:	2f                   	das    
  4e:	6c                   	insb   (%dx),%es:(%edi)
  4f:	69 62 2f 67 63 63 2f 	imul   $0x2f636367,0x2f(%edx),%esp
  56:	69 36 38 36 2d 6c    	imul   $0x6c2d3638,(%esi),%esi
  5c:	69 6e 75 78 2d 67 6e 	imul   $0x6e672d78,0x75(%esi),%ebp
  63:	75 2f                	jne    94 <.debug_line+0x94>
  65:	34 2e                	xor    $0x2e,%al
  67:	38 2f                	cmp    %ch,(%edi)
  69:	69 6e 63 6c 75 64 65 	imul   $0x6564756c,0x63(%esi),%ebp
  70:	00 2f                	add    %ch,(%edi)
  72:	68 6f 6d 65 2f       	push   $0x2f656d6f
  77:	6a 79                	push   $0x79
  79:	79 2f                	jns    aa <.debug_line+0xaa>
  7b:	44                   	inc    %esp
  7c:	65 73 6b             	gs jae ea <.debug_line+0xea>
  7f:	74 6f                	je     f0 <.debug_line+0xf0>
  81:	70 2f                	jo     b2 <.debug_line+0xb2>
  83:	6e                   	outsb  %ds:(%esi),(%dx)
  84:	65 77 6c             	gs ja  f3 <.debug_line+0xf3>
  87:	69 62 2d 32 2e 31 2e 	imul   $0x2e312e32,0x2d(%edx),%esp
  8e:	30 2f                	xor    %ch,(%edi)
  90:	6e                   	outsb  %ds:(%esi),(%dx)
  91:	65 77 6c             	gs ja  100 <.debug_line+0x100>
  94:	69 62 2f 6c 69 62 63 	imul   $0x6362696c,0x2f(%edx),%esp
  9b:	2f                   	das    
  9c:	69 6e 63 6c 75 64 65 	imul   $0x6564756c,0x63(%esi),%ebp
  a3:	2f                   	das    
  a4:	6d                   	insl   (%dx),%es:(%edi)
  a5:	61                   	popa   
  a6:	63 68 69             	arpl   %bp,0x69(%eax)
  a9:	6e                   	outsb  %ds:(%esi),(%dx)
  aa:	65 00 2f             	add    %ch,%gs:(%edi)
  ad:	68 6f 6d 65 2f       	push   $0x2f656d6f
  b2:	6a 79                	push   $0x79
  b4:	79 2f                	jns    e5 <.debug_line+0xe5>
  b6:	44                   	inc    %esp
  b7:	65 73 6b             	gs jae 125 <.debug_line+0x125>
  ba:	74 6f                	je     12b <.debug_line+0x12b>
  bc:	70 2f                	jo     ed <.debug_line+0xed>
  be:	6e                   	outsb  %ds:(%esi),(%dx)
  bf:	65 77 6c             	gs ja  12e <.debug_line+0x12e>
  c2:	69 62 2d 32 2e 31 2e 	imul   $0x2e312e32,0x2d(%edx),%esp
  c9:	30 2f                	xor    %ch,(%edi)
  cb:	6e                   	outsb  %ds:(%esi),(%dx)
  cc:	65 77 6c             	gs ja  13b <.debug_line+0x13b>
  cf:	69 62 2f 6c 69 62 63 	imul   $0x6362696c,0x2f(%edx),%esp
  d6:	2f                   	das    
  d7:	69 6e 63 6c 75 64 65 	imul   $0x6564756c,0x63(%esi),%ebp
  de:	2f                   	das    
  df:	73 79                	jae    15a <.debug_line+0x15a>
  e1:	73 00                	jae    e3 <.debug_line+0xe3>
  e3:	2f                   	das    
  e4:	68 6f 6d 65 2f       	push   $0x2f656d6f
  e9:	6a 79                	push   $0x79
  eb:	79 2f                	jns    11c <.debug_line+0x11c>
  ed:	44                   	inc    %esp
  ee:	65 73 6b             	gs jae 15c <.debug_line+0x15c>
  f1:	74 6f                	je     162 <.debug_line+0x162>
  f3:	70 2f                	jo     124 <.debug_line+0x124>
  f5:	6e                   	outsb  %ds:(%esi),(%dx)
  f6:	65 77 6c             	gs ja  165 <.debug_line+0x165>
  f9:	69 62 2d 32 2e 31 2e 	imul   $0x2e312e32,0x2d(%edx),%esp
 100:	30 2f                	xor    %ch,(%edi)
 102:	6e                   	outsb  %ds:(%esi),(%dx)
 103:	65 77 6c             	gs ja  172 <.debug_line+0x172>
 106:	69 62 2f 6c 69 62 63 	imul   $0x6362696c,0x2f(%edx),%esp
 10d:	2f                   	das    
 10e:	69 6e 63 6c 75 64 65 	imul   $0x6564756c,0x63(%esi),%ebp
 115:	00 00                	add    %al,(%eax)
 117:	76 66                	jbe    17f <.debug_line+0x17f>
 119:	70 72                	jo     18d <.debug_line+0x18d>
 11b:	69 6e 74 66 2e 63 00 	imul   $0x632e66,0x74(%esi),%ebp
 122:	01 00                	add    %eax,(%eax)
 124:	00 73 74             	add    %dh,0x74(%ebx)
 127:	64 64 65 66 2e 68 00 	fs fs gs cs pushw $0x200
 12e:	02 
 12f:	00 00                	add    %al,(%eax)
 131:	5f                   	pop    %edi
 132:	64 65 66 61          	fs gs popaw 
 136:	75 6c                	jne    1a4 <.debug_line+0x1a4>
 138:	74 5f                	je     199 <.debug_line+0x199>
 13a:	74 79                	je     1b5 <.debug_line+0x1b5>
 13c:	70 65                	jo     1a3 <.debug_line+0x1a3>
 13e:	73 2e                	jae    16e <.debug_line+0x16e>
 140:	68 00 03 00 00       	push   $0x300
 145:	6c                   	insb   (%dx),%es:(%edi)
 146:	6f                   	outsl  %ds:(%esi),(%dx)
 147:	63 6b 2e             	arpl   %bp,0x2e(%ebx)
 14a:	68 00 04 00 00       	push   $0x400
 14f:	5f                   	pop    %edi
 150:	74 79                	je     1cb <.debug_line+0x1cb>
 152:	70 65                	jo     1b9 <.debug_line+0x1b9>
 154:	73 2e                	jae    184 <.debug_line+0x184>
 156:	68 00 04 00 00       	push   $0x400
 15b:	72 65                	jb     1c2 <.debug_line+0x1c2>
 15d:	65 6e                	outsb  %gs:(%esi),(%dx)
 15f:	74 2e                	je     18f <.debug_line+0x18f>
 161:	68 00 04 00 00       	push   $0x400
 166:	73 74                	jae    1dc <.debug_line+0x1dc>
 168:	64 61                	fs popa 
 16a:	72 67                	jb     1d3 <.debug_line+0x1d3>
 16c:	2e 68 00 02 00 00    	cs push $0x200
 172:	74 79                	je     1ed <.debug_line+0x1ed>
 174:	70 65                	jo     1db <.debug_line+0x1db>
 176:	73 2e                	jae    1a6 <.debug_line+0x1a6>
 178:	68 00 04 00 00       	push   $0x400
 17d:	73 74                	jae    1f3 <.debug_line+0x1f3>
 17f:	64 69 6e 74 2e 68 00 	imul   $0x500682e,%fs:0x74(%esi),%ebp
 186:	05 
 187:	00 00                	add    %al,(%eax)
 189:	66 76 77             	data16 jbe 203 <.debug_line+0x203>
 18c:	72 69                	jb     1f7 <.debug_line+0x1f7>
 18e:	74 65                	je     1f5 <.debug_line+0x1f5>
 190:	2e 68 00 01 00 00    	cs push $0x100
 196:	76 66                	jbe    1fe <.debug_line+0x1fe>
 198:	69 65 65 65 66 70 2e 	imul   $0x2e706665,0x65(%ebp),%esp
 19f:	68 00 01 00 00       	push   $0x100
 1a4:	6c                   	insb   (%dx),%es:(%edi)
 1a5:	6f                   	outsl  %ds:(%esi),(%dx)
 1a6:	63 61 6c             	arpl   %sp,0x6c(%ecx)
 1a9:	65 2e 68 00 05 00 00 	gs cs push $0x500
 1b0:	73 74                	jae    226 <.debug_line+0x226>
 1b2:	72 69                	jb     21d <.debug_line+0x21d>
 1b4:	6e                   	outsb  %ds:(%esi),(%dx)
 1b5:	67 2e 68 00 05 00 00 	addr16 cs push $0x500
 1bc:	73 74                	jae    232 <.debug_line+0x232>
 1be:	64 6c                	fs insb (%dx),%es:(%edi)
 1c0:	69 62 2e 68 00 05 00 	imul   $0x50068,0x2e(%edx),%esp
 1c7:	00 6d 61             	add    %ch,0x61(%ebp)
 1ca:	74 68                	je     234 <.debug_line+0x234>
 1cc:	2e 68 00 05 00 00    	cs push $0x500
 1d2:	00 00                	add    %al,(%eax)
 1d4:	05 02 00 00 00       	add    $0x2,%eax
 1d9:	00 03                	add    %al,(%ebx)
 1db:	9b                   	fwait
 1dc:	05 01 03 1c ba       	add    $0xba1c0301,%eax
 1e1:	c9                   	leave  
 1e2:	3b 67 03             	cmp    0x3(%edi),%esp
 1e5:	b7 01                	mov    $0x1,%bh
 1e7:	ac                   	lods   %ds:(%esi),%al
 1e8:	00 02                	add    %al,(%edx)
 1ea:	04 01                	add    $0x1,%al
 1ec:	06                   	push   %es
 1ed:	90                   	nop
 1ee:	06                   	push   %es
 1ef:	03 0e                	add    (%esi),%ecx
 1f1:	ac                   	lods   %ds:(%esi),%al
 1f2:	03 bd 7e d6 03 c4    	add    -0x3bfc2982(%ebp),%edi
 1f8:	01 4a 03             	add    %ecx,0x3(%edx)
 1fb:	bc 7e 9e 03 c5       	mov    $0xc5039e7e,%esp
 200:	01 66 03             	add    %esp,0x3(%esi)
 203:	c3                   	ret    
 204:	7e 9e                	jle    1a4 <.debug_line+0x1a4>
 206:	03 0b                	add    (%ebx),%ecx
 208:	9e                   	sahf   
 209:	03 70 9e             	add    -0x62(%eax),%esi
 20c:	03 c4                	add    %esp,%eax
 20e:	01 9e 03 1b f2 08    	add    %ebx,0x8f21b03(%esi)
 214:	83 3b 77             	cmpl   $0x77,(%ebx)
 217:	75 02                	jne    21b <.debug_line+0x21b>
 219:	2a 13                	sub    (%ebx),%dl
 21b:	6c                   	insb   (%dx),%es:(%edi)
 21c:	94                   	xchg   %eax,%esp
 21d:	03 24 3c             	add    (%esp,%edi,1),%esp
 220:	03 62 58             	add    0x58(%edx),%esp
 223:	8f                   	(bad)  
 224:	9d                   	popf   
 225:	9c                   	pushf  
 226:	03 10                	add    (%eax),%edx
 228:	9e                   	sahf   
 229:	67 03 ab 01 08       	add    0x801(%bp,%di),%ebp
 22e:	4a                   	dec    %edx
 22f:	03 90 7f 74 08 24    	add    0x2408747f(%eax),%edx
 235:	2a 6a 30             	sub    0x30(%edx),%ch
 238:	69 03 77 74 00 02    	imul   $0x2007477,(%ebx),%eax
 23e:	04 01                	add    $0x1,%al
 240:	03 a7 7f 82 06 08    	add    0x806827f(%edi),%esp
 246:	e4 06                	in     $0x6,%al
 248:	03 d7                	add    %edi,%edx
 24a:	06                   	push   %es
 24b:	82                   	(bad)  
 24c:	00 02                	add    %al,(%edx)
 24e:	04 01                	add    $0x1,%al
 250:	06                   	push   %es
 251:	9e                   	sahf   
 252:	06                   	push   %es
 253:	08 cf                	or     %cl,%bh
 255:	08 30                	or     %dh,(%eax)
 257:	03 85 7a ac 03 74    	add    0x7403ac7a(%ebp),%eax
 25d:	58                   	pop    %eax
 25e:	03 a3 03 c8 6a 70    	add    0x706ac803(%ebx),%esp
 264:	03 0a                	add    (%edx),%ecx
 266:	58                   	pop    %eax
 267:	03 76 2e             	add    0x2e(%esi),%esi
 26a:	03 0a                	add    (%edx),%ecx
 26c:	66 03 c5             	add    %bp,%ax
 26f:	00 66 dc             	add    %ah,-0x24(%esi)
 272:	08 92 d7 b2 03 a2    	or     %dl,-0x5dfc4d29(%edx)
 278:	7f 08                	jg     282 <.debug_line+0x282>
 27a:	ac                   	lods   %ds:(%esi),%al
 27b:	03 92 7c 3c a3 03    	add    0x3a33c7c(%edx),%edx
 281:	dd 05 d6 4b 76 08    	fldl   0x8764bd6
 287:	af                   	scas   %es:(%edi),%eax
 288:	2b 3f                	sub    (%edi),%edi
 28a:	63 69 bb             	arpl   %bp,-0x45(%ecx)
 28d:	00 02                	add    %al,(%edx)
 28f:	04 01                	add    $0x1,%al
 291:	06                   	push   %es
 292:	08 3c 00             	or     %bh,(%eax,%eax,1)
 295:	02 04 02             	add    (%edx,%eax,1),%al
 298:	08 e4                	or     %ah,%ah
 29a:	00 02                	add    %al,(%edx)
 29c:	04 01                	add    $0x1,%al
 29e:	02 2f                	add    (%edi),%ch
 2a0:	12 08                	adc    (%eax),%cl
 2a2:	c8 00 02 04          	enter  $0x200,$0x4
 2a6:	03 08                	add    (%eax),%ecx
 2a8:	66 02 23             	data16 add (%ebx),%ah
 2ab:	12 06                	adc    (%esi),%al
 2ad:	03 ea                	add    %edx,%ebp
 2af:	7e e4                	jle    295 <.debug_line+0x295>
 2b1:	00 02                	add    %al,(%edx)
 2b3:	04 02                	add    $0x2,%al
 2b5:	06                   	push   %es
 2b6:	08 82 00 02 04 01    	or     %al,0x1040200(%edx)
 2bc:	f2 00 02             	repnz add %al,(%edx)
 2bf:	04 01                	add    $0x1,%al
 2c1:	06                   	push   %es
 2c2:	67 03 14             	add    (%si),%edx
 2c5:	ac                   	lods   %ds:(%esi),%al
 2c6:	97                   	xchg   %eax,%edi
 2c7:	08 a6 08 26 00 02    	or     %ah,0x2002608(%esi)
 2cd:	04 01                	add    $0x1,%al
 2cf:	03 30                	add    (%eax),%esi
 2d1:	08 90 00 02 04 01    	or     %dl,0x1040200(%eax)
 2d7:	bb 00 02 04 01       	mov    $0x1040200,%ebx
 2dc:	3d 00 02 04 01       	cmp    $0x1040200,%eax
 2e1:	2c 00                	sub    $0x0,%al
 2e3:	02 04 01             	add    (%ecx,%eax,1),%al
 2e6:	30 06                	xor    %al,(%esi)
 2e8:	2e 06                	cs push %es
 2ea:	03 d6                	add    %esi,%edx
 2ec:	7a 08                	jp     2f6 <.debug_line+0x2f6>
 2ee:	d6                   	(bad)  
 2ef:	03 1c 08             	add    (%eax,%ecx,1),%ebx
 2f2:	90                   	nop
 2f3:	03 2a                	add    (%edx),%ebp
 2f5:	2e 03 56 2e          	add    %cs:0x2e(%esi),%edx
 2f9:	85 03                	test   %eax,(%ebx)
 2fb:	27                   	daa    
 2fc:	74 03                	je     301 <.debug_line+0x301>
 2fe:	c2 00 74             	ret    $0x7400
 301:	03 be 7f 9e 03 45    	add    0x45039e7f(%esi),%edi
 307:	08 20                	or     %ah,(%eax)
 309:	00 02                	add    %al,(%edx)
 30b:	04 01                	add    $0x1,%al
 30d:	03 83 01 ba 00 02    	add    0x200ba01(%ebx),%eax
 313:	04 01                	add    $0x1,%al
 315:	3d 00 02 04 01       	cmp    $0x1040200,%eax
 31a:	3b 00                	cmp    (%eax),%eax
 31c:	02 04 01             	add    (%ecx,%eax,1),%al
 31f:	3d 00 02 04 01       	cmp    $0x1040200,%eax
 324:	4b                   	dec    %ebx
 325:	03 e7                	add    %edi,%esp
 327:	00 08                	add    %cl,(%eax)
 329:	82                   	(bad)  
 32a:	78 00                	js     32c <.debug_line+0x32c>
 32c:	02 04 02             	add    (%edx,%eax,1),%al
 32f:	06                   	push   %es
 330:	08 d6                	or     %dl,%dh
 332:	00 02                	add    %al,(%edx)
 334:	04 03                	add    $0x3,%al
 336:	c8 00 02 04          	enter  $0x200,$0x4
 33a:	03 06                	add    (%esi),%eax
 33c:	94                   	xchg   %eax,%esp
 33d:	eb 03                	jmp    342 <.debug_line+0x342>
 33f:	0e                   	push   %cs
 340:	9e                   	sahf   
 341:	c9                   	leave  
 342:	b9 67 03 0b d6       	mov    $0xd60b0367,%ecx
 347:	08 67 08             	or     %ah,0x8(%edi)
 34a:	a1 08 17 99 94       	mov    0x94991708,%eax
 34f:	9d                   	popf   
 350:	03 d4                	add    %esp,%edx
 352:	7d 9e                	jge    2f2 <.debug_line+0x2f2>
 354:	a3 03 a9 02 9e       	mov    %eax,0x9e02a903
 359:	03 ac 7e 58 00 02 04 	add    0x4020058(%esi,%edi,2),%ebp
 360:	01 03                	add    %eax,(%ebx)
 362:	27                   	daa    
 363:	08 4a 08             	or     %cl,0x8(%edx)
 366:	e5 3d                	in     $0x3d,%eax
 368:	3b 3d 48 08 e6 bd    	cmp    0xbde60848,%edi
 36e:	03 dd                	add    %ebp,%ebx
 370:	02 58 69             	add    0x69(%eax),%bl
 373:	71 83                	jno    2f8 <.debug_line+0x2f8>
 375:	5b                   	pop    %ebx
 376:	75 71                	jne    3e9 <.debug_line+0x3e9>
 378:	a1 9f 03 6b 58       	mov    0x586b039f,%eax
 37d:	00 02                	add    %al,(%edx)
 37f:	04 02                	add    $0x2,%al
 381:	06                   	push   %es
 382:	08 82 00 02 04 01    	or     %al,0x1040200(%edx)
 388:	ba 00 02 04 01       	mov    $0x1040200,%edx
 38d:	06                   	push   %es
 38e:	67 03 d0             	addr16 add %eax,%edx
 391:	7d 74                	jge    407 <.debug_line+0x407>
 393:	03 a6 7f 74 03 fa    	add    -0x5fc8b81(%esi),%esp
 399:	02 74 08 5a          	add    0x5a(%eax,%ecx,1),%dh
 39d:	c9                   	leave  
 39e:	03 09                	add    (%ecx),%ecx
 3a0:	08 ba 77 00 02 04    	or     %bh,0x4020077(%edx)
 3a6:	02 06                	add    (%esi),%al
 3a8:	08 82 00 02 04 02    	or     %al,0x2040200(%edx)
 3ae:	06                   	push   %es
 3af:	83 03 ab             	addl   $0xffffffab,(%ebx)
 3b2:	7e 74                	jle    428 <.debug_line+0x428>
 3b4:	00 02                	add    %al,(%edx)
 3b6:	04 04                	add    $0x4,%al
 3b8:	06                   	push   %es
 3b9:	08 d6                	or     %dl,%dh
 3bb:	00 02                	add    %al,(%edx)
 3bd:	04 04                	add    $0x4,%al
 3bf:	06                   	push   %es
 3c0:	86 86 2f bc 03 a4    	xchg   %al,-0x5bfc43d1(%esi)
 3c6:	7f 9e                	jg     366 <.debug_line+0x366>
 3c8:	03 9c 7f 74 03 90 04 	add    0x4900374(%edi,%edi,2),%ebx
 3cf:	74 08                	je     3d9 <.debug_line+0x3d9>
 3d1:	81 9f 00 02 04 02 06 	sbbl   $0x2002e06,0x2040200(%edi)
 3d8:	2e 00 02 
 3db:	04 01                	add    $0x1,%al
 3dd:	ba 00 02 04 03       	mov    $0x3040200,%edx
 3e2:	06                   	push   %es
 3e3:	69 00 02 04 03 72    	imul   $0x72030402,(%eax),%eax
 3e9:	00 02                	add    %al,(%edx)
 3eb:	04 03                	add    $0x3,%al
 3ed:	5a                   	pop    %edx
 3ee:	00 02                	add    %al,(%edx)
 3f0:	04 01                	add    $0x1,%al
 3f2:	06                   	push   %es
 3f3:	66 06                	pushw  %es
 3f5:	84 73 76             	test   %dh,0x76(%ebx)
 3f8:	73 a7                	jae    3a1 <.debug_line+0x3a1>
 3fa:	08 7e a2             	or     %bh,-0x5e(%esi)
 3fd:	00 02                	add    %al,(%edx)
 3ff:	04 02                	add    $0x2,%al
 401:	06                   	push   %es
 402:	2e 06                	cs push %es
 404:	03 9b 7d f2 69 71    	add    0x7169f27d(%ebx),%ebx
 40a:	03 d5                	add    %ebp,%edx
 40c:	03 d6                	add    %esi,%edx
 40e:	40                   	inc    %eax
 40f:	b8 03 b3 7a 9e       	mov    $0x9e7ab303,%eax
 414:	a3 03 c6 05 9e       	mov    %eax,0x9e05c603
 419:	6a 03                	push   $0x3
 41b:	81 7f 58 77 00 02 04 	cmpl   $0x4020077,0x58(%edi)
 422:	02 06                	add    (%esi),%al
 424:	08 82 00 02 04 02    	or     %al,0x2040200(%edx)
 42a:	06                   	push   %es
 42b:	83 03 f4             	addl   $0xfffffff4,(%ebx)
 42e:	00 9e 08 6a 3e 03    	add    %bl,0x33e6a08(%esi)
 434:	1e                   	push   %ds
 435:	08 58 4b             	or     %bl,0x4b(%eax)
 438:	02 33                	add    (%ebx),%dh
 43a:	13 9f 02 33 15 f6    	adc    -0x9eaccfe(%edi),%ebx
 440:	00 02                	add    %al,(%edx)
 442:	04 01                	add    $0x1,%al
 444:	06                   	push   %es
 445:	08 3c 00             	or     %bh,(%eax,%eax,1)
 448:	02 04 02             	add    (%edx,%eax,1),%al
 44b:	08 90 00 02 04 01    	or     %dl,0x1040200(%eax)
 451:	02 2f                	add    (%edi),%ch
 453:	12 08                	adc    (%eax),%cl
 455:	c8 00 02 04          	enter  $0x200,$0x4
 459:	03 08                	add    (%eax),%ecx
 45b:	66 00 02             	data16 add %al,(%edx)
 45e:	04 01                	add    $0x1,%al
 460:	02 22                	add    (%edx),%ah
 462:	12 02                	adc    (%edx),%al
 464:	2a 12                	sub    (%edx),%dl
 466:	06                   	push   %es
 467:	86 f3                	xchg   %dh,%bl
 469:	03 39                	add    (%ecx),%edi
 46b:	02 31                	add    (%ecx),%dh
 46d:	01 43 c9             	add    %eax,-0x37(%ebx)
 470:	00 02                	add    %al,(%edx)
 472:	04 01                	add    $0x1,%al
 474:	06                   	push   %es
 475:	08 3c 00             	or     %bh,(%eax,%eax,1)
 478:	02 04 02             	add    (%edx,%eax,1),%al
 47b:	08 2e                	or     %ch,(%esi)
 47d:	00 02                	add    %al,(%edx)
 47f:	04 01                	add    $0x1,%al
 481:	02 2f                	add    (%edi),%ch
 483:	12 08                	adc    (%eax),%cl
 485:	c8 00 02 04          	enter  $0x200,$0x4
 489:	03 08                	add    (%eax),%ecx
 48b:	66 00 02             	data16 add %al,(%edx)
 48e:	04 01                	add    $0x1,%al
 490:	08 d6                	or     %dl,%dh
 492:	06                   	push   %es
 493:	02 2d 15 08 68 03    	add    0x3680815,%ch
 499:	bc 7f 08 f2 c9       	mov    $0xc9f2087f,%esp
 49e:	08 76 02             	or     %dh,0x2(%esi)
 4a1:	32 13                	xor    (%ebx),%dl
 4a3:	00 02                	add    %al,(%edx)
 4a5:	04 01                	add    $0x1,%al
 4a7:	06                   	push   %es
 4a8:	d6                   	(bad)  
 4a9:	06                   	push   %es
 4aa:	c9                   	leave  
 4ab:	02 35 13 00 02 04    	add    0x4020013,%dh
 4b1:	01 06                	add    %eax,(%esi)
 4b3:	08 12                	or     %dl,(%edx)
 4b5:	00 02                	add    %al,(%edx)
 4b7:	04 02                	add    $0x2,%al
 4b9:	08 74 00 02          	or     %dh,0x2(%eax,%eax,1)
 4bd:	04 01                	add    $0x1,%al
 4bf:	02 33                	add    (%ebx),%dh
 4c1:	12 02                	adc    (%edx),%al
 4c3:	24 12                	and    $0x12,%al
 4c5:	06                   	push   %es
 4c6:	03 be 7f 08 12 00    	add    0x12087f(%esi),%edi
 4cc:	02 04 01             	add    (%ecx,%eax,1),%al
 4cf:	06                   	push   %es
 4d0:	4a                   	dec    %edx
 4d1:	06                   	push   %es
 4d2:	91                   	xchg   %eax,%ecx
 4d3:	03 b4 7f 02 23 01 03 	add    0x3012302(%edi,%edi,2),%esi
 4da:	fd                   	std    
 4db:	00 08                	add    %cl,(%eax)
 4dd:	74 00                	je     4df <.debug_line+0x4df>
 4df:	02 04 01             	add    (%ecx,%eax,1),%al
 4e2:	06                   	push   %es
 4e3:	08 3c 00             	or     %bh,(%eax,%eax,1)
 4e6:	02 04 02             	add    (%edx,%eax,1),%al
 4e9:	08 3c 00             	or     %bh,(%eax,%eax,1)
 4ec:	02 04 01             	add    (%ecx,%eax,1),%al
 4ef:	02 2f                	add    (%edi),%ch
 4f1:	12 08                	adc    (%eax),%cl
 4f3:	c8 00 02 04          	enter  $0x200,$0x4
 4f7:	03 08                	add    (%eax),%ecx
 4f9:	66 00 02             	data16 add %al,(%edx)
 4fc:	04 01                	add    $0x1,%al
 4fe:	02 26                	add    (%esi),%ah
 500:	12 02                	adc    (%edx),%al
 502:	2a 12                	sub    (%edx),%dl
 504:	06                   	push   %es
 505:	03 36                	add    (%esi),%esi
 507:	ba 75 65 67 02       	mov    $0x2676575,%edx
 50c:	2d 14 02 2f 13       	sub    $0x132f0214,%eax
 511:	08 3a                	or     %bh,(%edx)
 513:	69 63 5b 00 02 04 03 	imul   $0x3040200,0x5b(%ebx),%esp
 51a:	85 08                	test   %ecx,(%eax)
 51c:	76 3d                	jbe    55b <.debug_line+0x55b>
 51e:	00 02                	add    %al,(%edx)
 520:	04 01                	add    $0x1,%al
 522:	06                   	push   %es
 523:	02 2c 12             	add    (%edx,%edx,1),%ch
 526:	02 2a                	add    (%edx),%ch
 528:	12 00                	adc    (%eax),%al
 52a:	02 04 01             	add    (%ecx,%eax,1),%al
 52d:	06                   	push   %es
 52e:	03 0d ac 00 02 04    	add    0x40200ac,%ecx
 534:	01 03                	add    %eax,(%ebx)
 536:	ae                   	scas   %es:(%edi),%al
 537:	7f 02                	jg     53b <.debug_line+0x53b>
 539:	30 01                	xor    %al,(%ecx)
 53b:	06                   	push   %es
 53c:	02 2a                	add    (%edx),%ch
 53e:	12 00                	adc    (%eax),%al
 540:	02 04 01             	add    (%ecx,%eax,1),%al
 543:	06                   	push   %es
 544:	d4 06                	aam    $0x6
 546:	02 2a                	add    (%edx),%ch
 548:	12 06                	adc    (%esi),%al
 54a:	03 90 7f d6 00 02    	add    0x200d67f(%eax),%edx
 550:	04 01                	add    $0x1,%al
 552:	85 00                	test   %eax,(%eax)
 554:	02 04 01             	add    (%ecx,%eax,1),%al
 557:	83 00 02             	addl   $0x2,(%eax)
 55a:	04 01                	add    $0x1,%al
 55c:	3b 00                	cmp    (%eax),%eax
 55e:	02 04 01             	add    (%ecx,%eax,1),%al
 561:	3e 00 02             	add    %al,%ds:(%edx)
 564:	04 01                	add    $0x1,%al
 566:	2c 00                	sub    $0x0,%al
 568:	02 04 01             	add    (%ecx,%eax,1),%al
 56b:	30 30                	xor    %dh,(%eax)
 56d:	00 02                	add    %al,(%edx)
 56f:	04 01                	add    $0x1,%al
 571:	06                   	push   %es
 572:	08 2e                	or     %ch,(%esi)
 574:	06                   	push   %es
 575:	4b                   	dec    %ebx
 576:	03 80 01 02 25 01    	add    0x1250201(%eax),%eax
 57c:	03 09                	add    (%ecx),%ecx
 57e:	d6                   	(bad)  
 57f:	00 02                	add    %al,(%edx)
 581:	04 01                	add    $0x1,%al
 583:	06                   	push   %es
 584:	02 29                	add    (%ecx),%ch
 586:	12 00                	adc    (%eax),%al
 588:	02 04 02             	add    (%edx,%eax,1),%al
 58b:	02 28                	add    (%eax),%ch
 58d:	12 00                	adc    (%eax),%al
 58f:	02 04 01             	add    (%ecx,%eax,1),%al
 592:	08 66 00             	or     %ah,0x0(%esi)
 595:	02 04 02             	add    (%edx,%eax,1),%al
 598:	08 90 00 02 04 01    	or     %dl,0x1040200(%eax)
 59e:	02 33                	add    (%ebx),%dh
 5a0:	12 02                	adc    (%edx),%al
 5a2:	24 12                	and    $0x12,%al
 5a4:	06                   	push   %es
 5a5:	03 fc                	add    %esp,%edi
 5a7:	7e ac                	jle    555 <.debug_line+0x555>
 5a9:	44                   	inc    %esp
 5aa:	00 02                	add    %al,(%edx)
 5ac:	04 01                	add    $0x1,%al
 5ae:	06                   	push   %es
 5af:	08 2e                	or     %ch,(%esi)
 5b1:	00 02                	add    %al,(%edx)
 5b3:	04 01                	add    $0x1,%al
 5b5:	06                   	push   %es
 5b6:	03 16                	add    (%esi),%edx
 5b8:	08 3c 00             	or     %bh,(%eax,%eax,1)
 5bb:	02 04 01             	add    (%ecx,%eax,1),%al
 5be:	03 6a 2e             	add    0x2e(%edx),%ebp
 5c1:	00 02                	add    %al,(%edx)
 5c3:	04 01                	add    $0x1,%al
 5c5:	03 15 2e 00 02 04    	add    0x402002e,%edx
 5cb:	01 2f                	add    %ebp,(%edi)
 5cd:	06                   	push   %es
 5ce:	f2 06                	repnz push %es
 5d0:	03 62 08             	add    0x8(%edx),%esp
 5d3:	58                   	pop    %eax
 5d4:	5a                   	pop    %edx
 5d5:	65 67 65 91          	gs addr16 gs xchg %eax,%ecx
 5d9:	00 02                	add    %al,(%edx)
 5db:	04 01                	add    $0x1,%al
 5dd:	03 dd                	add    %ebp,%ebx
 5df:	00 58 06             	add    %bl,0x6(%eax)
 5e2:	02 2b                	add    (%ebx),%ch
 5e4:	12 06                	adc    (%esi),%al
 5e6:	03 c8                	add    %eax,%ecx
 5e8:	00 d6                	add    %dl,%dh
 5ea:	00 02                	add    %al,(%edx)
 5ec:	04 01                	add    $0x1,%al
 5ee:	06                   	push   %es
 5ef:	08 12                	or     %dl,(%edx)
 5f1:	58                   	pop    %eax
 5f2:	00 02                	add    %al,(%edx)
 5f4:	04 02                	add    $0x2,%al
 5f6:	ba 00 02 04 01       	mov    $0x1040200,%edx
 5fb:	02 2f                	add    (%edi),%ch
 5fd:	12 08                	adc    (%eax),%cl
 5ff:	c8 00 02 04          	enter  $0x200,$0x4
 603:	03 08                	add    (%eax),%ecx
 605:	66 00 02             	data16 add %al,(%edx)
 608:	04 03                	add    $0x3,%al
 60a:	06                   	push   %es
 60b:	03 74 f2 03          	add    0x3(%edx,%esi,8),%esi
 60f:	a9 7d f2 00 02       	test   $0x200f27d,%eax
 614:	04 03                	add    $0x3,%al
 616:	03 c0                	add    %eax,%eax
 618:	02 08                	add    (%eax),%cl
 61a:	9e                   	sahf   
 61b:	00 02                	add    %al,(%edx)
 61d:	04 01                	add    $0x1,%al
 61f:	06                   	push   %es
 620:	02 22                	add    (%edx),%ah
 622:	12 02                	adc    (%edx),%al
 624:	2a 12                	sub    (%edx),%dl
 626:	06                   	push   %es
 627:	3e 03 13             	add    %ds:(%ebx),%edx
 62a:	66 03 6d 66          	add    0x66(%ebp),%bp
 62e:	03 13                	add    (%ebx),%edx
 630:	66 03 6d 66          	add    0x66(%ebp),%bp
 634:	03 13                	add    (%ebx),%edx
 636:	2e 00 02             	add    %al,%cs:(%edx)
 639:	04 01                	add    $0x1,%al
 63b:	06                   	push   %es
 63c:	2e 06                	cs push %es
 63e:	c9                   	leave  
 63f:	02 34 11             	add    (%ecx,%edx,1),%dh
 642:	30 00                	xor    %al,(%eax)
 644:	02 04 01             	add    (%ecx,%eax,1),%al
 647:	06                   	push   %es
 648:	08 9e 00 02 04 02    	or     %bl,0x2040200(%esi)
 64e:	02 29                	add    (%ecx),%ch
 650:	12 00                	adc    (%eax),%al
 652:	02 04 01             	add    (%ecx,%eax,1),%al
 655:	08 12                	or     %dl,(%edx)
 657:	00 02                	add    %al,(%edx)
 659:	04 02                	add    $0x2,%al
 65b:	08 58 00             	or     %bl,0x0(%eax)
 65e:	02 04 01             	add    (%ecx,%eax,1),%al
 661:	02 33                	add    (%ebx),%dh
 663:	12 02                	adc    (%edx),%al
 665:	24 12                	and    $0x12,%al
 667:	00 02                	add    %al,(%edx)
 669:	04 01                	add    $0x1,%al
 66b:	06                   	push   %es
 66c:	b0 03                	mov    $0x3,%al
 66e:	0a c8                	or     %al,%cl
 670:	00 02                	add    %al,(%edx)
 672:	04 01                	add    $0x1,%al
 674:	06                   	push   %es
 675:	02 2a                	add    (%edx),%ch
 677:	12 02                	adc    (%edx),%al
 679:	2a 12                	sub    (%edx),%dl
 67b:	00 02                	add    %al,(%edx)
 67d:	04 01                	add    $0x1,%al
 67f:	06                   	push   %es
 680:	03 79 d6             	add    -0x2a(%ecx),%edi
 683:	06                   	push   %es
 684:	02 2a                	add    (%edx),%ch
 686:	12 00                	adc    (%eax),%al
 688:	02 04 01             	add    (%ecx,%eax,1),%al
 68b:	06                   	push   %es
 68c:	d4 06                	aam    $0x6
 68e:	02 2a                	add    (%edx),%ch
 690:	12 06                	adc    (%esi),%al
 692:	03 86 7c d6 08 5a    	add    0x5a08d67c(%esi),%eax
 698:	08 79 99             	or     %bh,-0x67(%ecx)
 69b:	94                   	xchg   %eax,%esp
 69c:	9d                   	popf   
 69d:	03 cb                	add    %ebx,%ecx
 69f:	7d 9e                	jge    63f <.debug_line+0x63f>
 6a1:	a3 03 b2 02 9e       	mov    %eax,0x9e02b203
 6a6:	03 65 58             	add    0x58(%ebp),%esp
 6a9:	00 02                	add    %al,(%edx)
 6ab:	04 01                	add    $0x1,%al
 6ad:	03 e4                	add    %esp,%esp
 6af:	03 08                	add    (%eax),%ecx
 6b1:	2e 06                	cs push %es
 6b3:	02 2a                	add    (%edx),%ch
 6b5:	12 06                	adc    (%esi),%al
 6b7:	88 02                	mov    %al,(%edx)
 6b9:	32 13                	xor    (%ebx),%dl
 6bb:	00 02                	add    %al,(%edx)
 6bd:	04 01                	add    $0x1,%al
 6bf:	06                   	push   %es
 6c0:	4a                   	dec    %edx
 6c1:	06                   	push   %es
 6c2:	08 67 02             	or     %ah,0x2(%edi)
 6c5:	36 13 00             	adc    %ss:(%eax),%eax
 6c8:	02 04 01             	add    (%ecx,%eax,1),%al
 6cb:	06                   	push   %es
 6cc:	9e                   	sahf   
 6cd:	90                   	nop
 6ce:	00 02                	add    %al,(%edx)
 6d0:	04 02                	add    $0x2,%al
 6d2:	d6                   	(bad)  
 6d3:	00 02                	add    %al,(%edx)
 6d5:	04 01                	add    $0x1,%al
 6d7:	02 33                	add    (%ebx),%dh
 6d9:	12 02                	adc    (%edx),%al
 6db:	24 12                	and    $0x12,%al
 6dd:	06                   	push   %es
 6de:	03 e5                	add    %ebp,%esp
 6e0:	7c 08                	jl     6ea <.debug_line+0x6ea>
 6e2:	3c ca                	cmp    $0xca,%al
 6e4:	00 02                	add    %al,(%edx)
 6e6:	04 01                	add    $0x1,%al
 6e8:	59                   	pop    %ecx
 6e9:	08 5b 03             	or     %bl,0x3(%ebx)
 6ec:	f2 03 66 03          	repnz add 0x3(%esi),%esp
 6f0:	8e 7c ba 03          	mov    0x3(%edx,%edi,4),%?
 6f4:	f3 03 90 6a 70 03 35 	repz add 0x3503706a(%eax),%edx
 6fb:	82                   	(bad)  
 6fc:	dd 91 6b 08 1b 41    	fstl   0x411b086b(%ecx)
 702:	02 33                	add    (%ebx),%dh
 704:	15 96 08 5d 03       	adc    $0x35d0896,%eax
 709:	c2 7b 66             	ret    $0x667b
 70c:	03 be 04 3c 03 c2    	add    -0x3dfcc3fc(%esi),%edi
 712:	7b 66                	jnp    77a <.debug_line+0x77a>
 714:	03 0a                	add    (%edx),%ecx
 716:	66 03 0a             	add    (%edx),%cx
 719:	08 2e                	or     %ch,(%esi)
 71b:	75 65                	jne    782 <.debug_line+0x782>
 71d:	03 09                	add    (%ecx),%ecx
 71f:	66 08 22             	data16 or %ah,(%edx)
 722:	03 1a                	add    (%edx),%ebx
 724:	02 2a                	add    (%edx),%ch
 726:	01 03                	add    %eax,(%ebx)
 728:	42                   	inc    %edx
 729:	08 2e                	or     %ch,(%esi)
 72b:	03 8c 7d c8 03 f4 02 	add    0x2f403c8(%ebp,%edi,2),%ecx
 732:	9e                   	sahf   
 733:	00 02                	add    %al,(%edx)
 735:	04 01                	add    $0x1,%al
 737:	03 8e 03 ac 06 02    	add    0x206ac03(%esi),%ecx
 73d:	2a 12                	sub    (%edx),%dl
 73f:	06                   	push   %es
 740:	03 b3 01 08 2e b9    	add    -0x46d1f7ff(%ebx),%esi
 746:	03 8f 78 e4 08 59    	add    0x5908e478(%edi),%ecx
 74c:	2d 59 6b 00 02       	sub    $0x2006b59,%eax
 751:	04 01                	add    $0x1,%al
 753:	03 bd 06 e4 06 02    	add    0x206e406(%ebp),%edi
 759:	2a 12                	sub    (%edx),%dl
 75b:	00 02                	add    %al,(%edx)
 75d:	04 03                	add    $0x3,%al
 75f:	06                   	push   %es
 760:	d9 00                	flds   (%eax)
 762:	02 04 01             	add    (%ecx,%eax,1),%al
 765:	06                   	push   %es
 766:	02 22                	add    (%edx),%ah
 768:	12 02                	adc    (%edx),%al
 76a:	2a 12                	sub    (%edx),%dl
 76c:	06                   	push   %es
 76d:	91                   	xchg   %eax,%ecx
 76e:	00 02                	add    %al,(%edx)
 770:	04 01                	add    $0x1,%al
 772:	02 35 10 06 02 2a    	add    0x2a020610,%dh
 778:	12 06                	adc    (%esi),%al
 77a:	03 e7                	add    %edi,%esp
 77c:	7c 08                	jl     786 <.debug_line+0x786>
 77e:	3c 03                	cmp    $0x3,%al
 780:	dd 01                	fldl   (%ecx)
 782:	e4 00                	in     $0x0,%al
 784:	02 04 01             	add    (%ecx,%eax,1),%al
 787:	03 c2                	add    %edx,%eax
 789:	01 08                	add    %ecx,(%eax)
 78b:	2e 06                	cs push %es
 78d:	02 2a                	add    (%edx),%ch
 78f:	12 00                	adc    (%eax),%al
 791:	02 04 01             	add    (%ecx,%eax,1),%al
 794:	06                   	push   %es
 795:	03 16                	add    (%esi),%edx
 797:	82                   	(bad)  
 798:	06                   	push   %es
 799:	02 2a                	add    (%edx),%ch
 79b:	12 00                	adc    (%eax),%al
 79d:	02 04 01             	add    (%ecx,%eax,1),%al
 7a0:	06                   	push   %es
 7a1:	d7                   	xlat   %ds:(%ebx)
 7a2:	06                   	push   %es
 7a3:	02 2a                	add    (%edx),%ch
 7a5:	12 06                	adc    (%esi),%al
 7a7:	03 d5                	add    %ebp,%edx
 7a9:	7d 08                	jge    7b3 <.debug_line+0x7b3>
 7ab:	3c 03                	cmp    $0x3,%al
 7ad:	74 82                	je     731 <.debug_line+0x731>
 7af:	03 92 7c 3c a3 03    	add    0x3a33c7c(%edx),%edx
 7b5:	f5                   	cmc    
 7b6:	03 9e 08 3b 03 ae    	add    -0x51fcc4f8(%esi),%ebx
 7bc:	7e 08                	jle    7c6 <.debug_line+0x7c6>
 7be:	90                   	nop
 7bf:	03 f6                	add    %esi,%esi
 7c1:	04 08                	add    $0x8,%al
 7c3:	12 03                	adc    (%ebx),%al
 7c5:	0c 58                	or     $0x58,%al
 7c7:	02 41 14             	add    0x14(%ecx),%al
 7ca:	3a 68 08             	cmp    0x8(%eax),%ch
 7cd:	13 67 2d             	adc    0x2d(%edi),%esp
 7d0:	83 83 e6 03 83 7c 74 	addl   $0x74,0x7c8303e6(%ebx)
 7d7:	03 41 66             	add    0x66(%ecx),%eax
 7da:	03 3f                	add    (%edi),%edi
 7dc:	66 03 cd             	add    %bp,%cx
 7df:	7c ba                	jl     79b <.debug_line+0x79b>
 7e1:	03 f4                	add    %esp,%esi
 7e3:	02 9e 03 c3 04 c8    	add    -0x37fb3cfd(%esi),%bl
 7e9:	03 c3                	add    %ebx,%eax
 7eb:	7b 08                	jnp    7f5 <.debug_line+0x7f5>
 7ed:	74 00                	je     7ef <.debug_line+0x7ef>
 7ef:	02 04 01             	add    (%ecx,%eax,1),%al
 7f2:	06                   	push   %es
 7f3:	ac                   	lods   %ds:(%esi),%al
 7f4:	06                   	push   %es
 7f5:	03 cb                	add    %ebx,%ecx
 7f7:	01 08                	add    %ecx,(%eax)
 7f9:	2e 03 a9 7f c8 03 92 	add    %cs:-0x6dfc3781(%ecx),%ebp
 800:	7c 3c                	jl     83e <.debug_line+0x83e>
 802:	03 c5                	add    %ebp,%eax
 804:	04 9e                	add    $0x9e,%al
 806:	03 c0                	add    %eax,%eax
 808:	7b ba                	jnp    7c4 <.debug_line+0x7c4>
 80a:	03 f6                	add    %esi,%esi
 80c:	02 e4                	add    %ah,%ah
 80e:	03 09                	add    (%ecx),%ecx
 810:	74 03                	je     815 <.debug_line+0x815>
 812:	c3                   	ret    
 813:	04 3c                	add    $0x3c,%al
 815:	75 03                	jne    81a <.debug_line+0x81a>
 817:	bc 7b 2e 03 c3       	mov    $0xc3032e7b,%esp
 81c:	04 66                	add    $0x66,%al
 81e:	67 6b 76 03 0a       	imul   $0xa,0x3(%bp),%esi
 823:	90                   	nop
 824:	3b 75 03             	cmp    0x3(%ebp),%esi
 827:	ad                   	lods   %ds:(%esi),%eax
 828:	7b ba                	jnp    7e4 <.debug_line+0x7e4>
 82a:	03 d5                	add    %ebp,%edx
 82c:	04 66                	add    $0x66,%al
 82e:	03 ab 7b d6 4b 3b    	add    0x3b4bd67b(%ebx),%ebp
 834:	67 03 fe             	addr16 add %esi,%edi
 837:	7c 08                	jl     841 <.debug_line+0x841>
 839:	58                   	pop    %eax
 83a:	03 d5                	add    %ebp,%edx
 83c:	00 e4                	add    %ah,%ah
 83e:	03 27                	add    (%edi),%esp
 840:	66 03 a5 06 e4 03 42 	add    0x4203e406(%ebp),%sp
 847:	9e                   	sahf   
 848:	2f                   	das    
 849:	03 b3 7c ba 08 9d    	add    -0x62f74584(%ebx),%esi
 84f:	03 73 08             	add    0x8(%ebx),%esi
 852:	74 84                	je     7d8 <.debug_line+0x7d8>
 854:	00 02                	add    %al,(%edx)
 856:	04 01                	add    $0x1,%al
 858:	06                   	push   %es
 859:	d6                   	(bad)  
 85a:	c8 06 03 bf          	enter  $0x306,$0xbf
 85e:	04 ac                	add    $0xac,%al
 860:	84 08                	test   %cl,(%eax)
 862:	9f                   	lahf   
 863:	3b 3d 2d 2f 2f 67    	cmp    0x672f2f2d,%edi
 869:	2d 3d 03 5a 02       	sub    $0x25a033d,%eax
 86e:	37                   	aaa    
 86f:	01 f3                	add    %esi,%ebx
 871:	08 13                	or     %dl,(%ebx)
 873:	03 e9                	add    %ecx,%ebp
 875:	7b e4                	jnp    85b <.debug_line+0x85b>
 877:	03 78 08             	add    0x8(%eax),%edi
 87a:	9e                   	sahf   
 87b:	02 24 16             	add    (%esi,%edx,1),%ah
 87e:	9c                   	pushf  
 87f:	d8 00                	fadds  (%eax)
 881:	02 04 01             	add    (%ecx,%eax,1),%al
 884:	08 43 00             	or     %al,0x0(%ebx)
 887:	02 04 01             	add    (%ecx,%eax,1),%al
 88a:	03 79 08             	add    0x8(%ecx),%edi
 88d:	f2 03 b4 04 58 2f 03 	repnz add -0x51fcd0a8(%esp,%eax,1),%esi
 894:	ae 
 895:	79 ba                	jns    851 <.debug_line+0x851>
 897:	03 62 66             	add    0x66(%edx),%esp
 89a:	03 1e                	add    (%esi),%ebx
 89c:	66 86 2a             	data16 xchg %ch,(%edx)
 89f:	6a 67                	push   $0x67
 8a1:	03 4e 9e             	add    -0x62(%esi),%ecx
 8a4:	00 02                	add    %al,(%edx)
 8a6:	04 01                	add    $0x1,%al
 8a8:	03 bc 02 82 03 fe 7c 	add    0x7cfe0382(%edx,%eax,1),%edi
 8af:	08 3c 03             	or     %bh,(%ebx,%eax,1)
 8b2:	41                   	inc    %ecx
 8b3:	e4 91                	in     $0x91,%al
 8b5:	03 8d 08 9e 02 0b    	add    0xb029e08(%ebp),%ecx
 8bb:	00 01                	add    %al,(%ecx)
 8bd:	01                   	.byte 0x1

Disassembly of section .debug_str:

00000000 <.debug_str>:
   0:	69 6f 76 70 00 65 78 	imul   $0x78650070,0x76(%edi),%ebp
   7:	70 6f                	jo     78 <.debug_str+0x78>
   9:	6e                   	outsb  %ds:(%esi),(%dx)
   a:	65 6e                	outsb  %gs:(%esi),(%dx)
   c:	74 00                	je     e <.debug_str+0xe>
   e:	73 74                	jae    84 <.debug_str+0x84>
  10:	72 6c                	jb     7e <.debug_str+0x7e>
  12:	65 6e                	outsb  %gs:(%esi),(%dx)
  14:	00 5f 6f             	add    %bl,0x6f(%edi)
  17:	6e                   	outsb  %ds:(%esi),(%dx)
  18:	5f                   	pop    %edi
  19:	65 78 69             	gs js  85 <.debug_str+0x85>
  1c:	74 5f                	je     7d <.debug_str+0x7d>
  1e:	61                   	popa   
  1f:	72 67                	jb     88 <.debug_str+0x88>
  21:	73 00                	jae    23 <.debug_str+0x23>
  23:	65 78 70             	gs js  96 <.debug_str+0x96>
  26:	62 75 66             	bound  %esi,0x66(%ebp)
  29:	00 72 66             	add    %dh,0x66(%edx)
  2c:	6c                   	insb   (%dx),%es:(%edi)
  2d:	61                   	popa   
  2e:	67 00 5f 5f          	add    %bl,0x5f(%bx)
  32:	73 73                	jae    a7 <.debug_str+0xa7>
  34:	70 72                	jo     a8 <.debug_str+0xa8>
  36:	69 6e 74 5f 72 00 5f 	imul   $0x5f00725f,0x74(%esi),%ebp
  3d:	77 63                	ja     a2 <.debug_str+0xa2>
  3f:	74 6f                	je     b0 <.debug_str+0xb0>
  41:	6d                   	insl   (%dx),%es:(%edi)
  42:	62 5f 73             	bound  %ebx,0x73(%edi)
  45:	74 61                	je     a8 <.debug_str+0xa8>
  47:	74 65                	je     ae <.debug_str+0xae>
  49:	00 66 6c             	add    %ah,0x6c(%esi)
  4c:	61                   	popa   
  4d:	67 73 00             	addr16 jae 50 <.debug_str+0x50>
  50:	5f                   	pop    %edi
  51:	72 34                	jb     87 <.debug_str+0x87>
  53:	38 00                	cmp    %al,(%eax)
  55:	5f                   	pop    %edi
  56:	73 69                	jae    c1 <.debug_str+0xc1>
  58:	67 6e                	outsb  %ds:(%si),(%dx)
  5a:	61                   	popa   
  5b:	6c                   	insb   (%dx),%es:(%edi)
  5c:	5f                   	pop    %edi
  5d:	62 75 66             	bound  %esi,0x66(%ebp)
  60:	00 75 6e             	add    %dh,0x6e(%ebp)
  63:	73 69                	jae    ce <.debug_str+0xce>
  65:	67 6e                	outsb  %ds:(%si),(%dx)
  67:	65 64 20 69 6e       	gs and %ch,%fs:0x6e(%ecx)
  6c:	74 00                	je     6e <.debug_str+0x6e>
  6e:	5f                   	pop    %edi
  6f:	6c                   	insb   (%dx),%es:(%edi)
  70:	62 66 73             	bound  %esp,0x73(%esi)
  73:	69 7a 65 00 5f 66 6c 	imul   $0x6c665f00,0x65(%edx),%edi
  7a:	61                   	popa   
  7b:	67 73 00             	addr16 jae 7e <.debug_str+0x7e>
  7e:	5f                   	pop    %edi
  7f:	65 72 72             	gs jb  f4 <.debug_str+0xf4>
  82:	6e                   	outsb  %ds:(%esi),(%dx)
  83:	6f                   	outsl  %ds:(%esi),(%dx)
  84:	00 64 65 63          	add    %ah,0x63(%ebp,%eiz,2)
  88:	70 74                	jo     fe <.debug_str+0xfe>
  8a:	00 70 72             	add    %dh,0x72(%eax)
  8d:	65 63 00             	arpl   %ax,%gs:(%eax)
  90:	6d                   	insl   (%dx),%es:(%edi)
  91:	6f                   	outsl  %ds:(%esi),(%dx)
  92:	6e                   	outsb  %ds:(%esi),(%dx)
  93:	5f                   	pop    %edi
  94:	64 65 63 69 6d       	fs arpl %bp,%gs:0x6d(%ecx)
  99:	61                   	popa   
  9a:	6c                   	insb   (%dx),%es:(%edi)
  9b:	5f                   	pop    %edi
  9c:	70 6f                	jo     10d <.debug_str+0x10d>
  9e:	69 6e 74 00 5f 4c 4f 	imul   $0x4f4c5f00,0x74(%esi),%ebp
  a5:	43                   	inc    %ebx
  a6:	4b                   	dec    %ebx
  a7:	5f                   	pop    %edi
  a8:	52                   	push   %edx
  a9:	45                   	inc    %ebp
  aa:	43                   	inc    %ebx
  ab:	55                   	push   %ebp
  ac:	52                   	push   %edx
  ad:	53                   	push   %ebx
  ae:	49                   	dec    %ecx
  af:	56                   	push   %esi
  b0:	45                   	inc    %ebp
  b1:	5f                   	pop    %edi
  b2:	54                   	push   %esp
  b3:	00 65 72             	add    %ah,0x72(%ebp)
  b6:	72 6f                	jb     127 <.debug_str+0x127>
  b8:	72 00                	jb     ba <.debug_str+0xba>
  ba:	5f                   	pop    %edi
  bb:	72 65                	jb     122 <.debug_str+0x122>
  bd:	61                   	popa   
  be:	64 00 6d 6f          	add    %ch,%fs:0x6f(%ebp)
  c2:	64 65 00 5f 6d       	fs add %bl,%gs:0x6d(%edi)
  c7:	62 72 6c             	bound  %esi,0x6c(%edx)
  ca:	65 6e                	outsb  %gs:(%esi),(%dx)
  cc:	5f                   	pop    %edi
  cd:	73 74                	jae    143 <.debug_str+0x143>
  cf:	61                   	popa   
  d0:	74 65                	je     137 <.debug_str+0x137>
  d2:	00 5f 73             	add    %bl,0x73(%edi)
  d5:	74 64                	je     13b <.debug_str+0x13b>
  d7:	6f                   	outsl  %ds:(%esi),(%dx)
  d8:	75 74                	jne    14e <.debug_str+0x14e>
  da:	00 5f 66             	add    %bl,0x66(%edi)
  dd:	70 6f                	jo     14e <.debug_str+0x14e>
  df:	73 5f                	jae    140 <.debug_str+0x140>
  e1:	74 00                	je     e3 <.debug_str+0xe3>
  e3:	6c                   	insb   (%dx),%es:(%edi)
  e4:	63 6f 6e             	arpl   %bp,0x6e(%edi)
  e7:	76 00                	jbe    e9 <.debug_str+0xe9>
  e9:	64 65 63 69 6d       	fs arpl %bp,%gs:0x6d(%ecx)
  ee:	61                   	popa   
  ef:	6c                   	insb   (%dx),%es:(%edi)
  f0:	5f                   	pop    %edi
  f1:	70 6f                	jo     162 <.debug_str+0x162>
  f3:	69 6e 74 00 5f 66 6e 	imul   $0x6e665f00,0x74(%esi),%ebp
  fa:	73 00                	jae    fc <.debug_str+0xfc>
  fc:	5f                   	pop    %edi
  fd:	63 6f 6f             	arpl   %bp,0x6f(%edi)
 100:	6b 69 65 00          	imul   $0x0,0x65(%ecx),%ebp
 104:	6e                   	outsb  %ds:(%esi),(%dx)
 105:	5f                   	pop    %edi
 106:	73 65                	jae    16d <.debug_str+0x16d>
 108:	70 5f                	jo     169 <.debug_str+0x169>
 10a:	62 79 5f             	bound  %edi,0x5f(%ecx)
 10d:	73 70                	jae    17f <.debug_str+0x17f>
 10f:	61                   	popa   
 110:	63 65 00             	arpl   %sp,0x0(%ebp)
 113:	5f                   	pop    %edi
 114:	42                   	inc    %edx
 115:	69 67 69 6e 74 00 5f 	imul   $0x5f00746e,0x69(%edi),%esp
 11c:	5f                   	pop    %edi
 11d:	74 6d                	je     18c <.debug_str+0x18c>
 11f:	5f                   	pop    %edi
 120:	77 64                	ja     186 <.debug_str+0x186>
 122:	61                   	popa   
 123:	79 00                	jns    125 <.debug_str+0x125>
 125:	5f                   	pop    %edi
 126:	72 65                	jb     18d <.debug_str+0x18d>
 128:	73 75                	jae    19f <.debug_str+0x19f>
 12a:	6c                   	insb   (%dx),%es:(%edi)
 12b:	74 00                	je     12d <.debug_str+0x12d>
 12d:	5f                   	pop    %edi
 12e:	5f                   	pop    %edi
 12f:	74 6d                	je     19e <.debug_str+0x19e>
 131:	5f                   	pop    %edi
 132:	68 6f 75 72 00       	push   $0x72756f
 137:	70 5f                	jo     198 <.debug_str+0x198>
 139:	73 65                	jae    1a0 <.debug_str+0x1a0>
 13b:	70 5f                	jo     19c <.debug_str+0x19c>
 13d:	62 79 5f             	bound  %edi,0x5f(%ecx)
 140:	73 70                	jae    1b2 <.debug_str+0x1b2>
 142:	61                   	popa   
 143:	63 65 00             	arpl   %sp,0x0(%ebp)
 146:	6e                   	outsb  %ds:(%esi),(%dx)
 147:	6f                   	outsl  %ds:(%esi),(%dx)
 148:	73 69                	jae    1b3 <.debug_str+0x1b3>
 14a:	67 6e                	outsb  %ds:(%si),(%dx)
 14c:	00 5f 5f             	add    %bl,0x5f(%edi)
 14f:	63 6f 75             	arpl   %bp,0x75(%edi)
 152:	6e                   	outsb  %ds:(%esi),(%dx)
 153:	74 00                	je     155 <.debug_str+0x155>
 155:	66 6c                	data16 insb (%dx),%es:(%edi)
 157:	6f                   	outsl  %ds:(%esi),(%dx)
 158:	61                   	popa   
 159:	74 00                	je     15b <.debug_str+0x15b>
 15b:	5f                   	pop    %edi
 15c:	5f                   	pop    %edi
 15d:	74 6d                	je     1cc <.debug_str+0x1cc>
 15f:	5f                   	pop    %edi
 160:	6d                   	insl   (%dx),%es:(%edi)
 161:	69 6e 00 5f 64 6f 75 	imul   $0x756f645f,0x0(%esi),%ebp
 168:	62 6c 65 5f          	bound  %ebp,0x5f(%ebp,%eiz,2)
 16c:	00 62 61             	add    %ah,0x61(%edx)
 16f:	73 65                	jae    1d6 <.debug_str+0x1d6>
 171:	00 5f 6e             	add    %bl,0x6e(%edi)
 174:	65 78 74             	gs js  1eb <.debug_str+0x1eb>
 177:	66 00 78 64          	data16 add %bh,0x64(%eax)
 17b:	69 67 73 00 70 6f 73 	imul   $0x736f7000,0x73(%edi),%esp
 182:	69 74 69 76 65 5f 73 	imul   $0x69735f65,0x76(%ecx,%ebp,2),%esi
 189:	69 
 18a:	67 6e                	outsb  %ds:(%si),(%dx)
 18c:	00 5f 72             	add    %bl,0x72(%edi)
 18f:	61                   	popa   
 190:	6e                   	outsb  %ds:(%esi),(%dx)
 191:	64 34 38             	fs xor $0x38,%al
 194:	00 5f 72             	add    %bl,0x72(%edi)
 197:	65 73 75             	gs jae 20f <.debug_str+0x20f>
 19a:	6c                   	insb   (%dx),%es:(%edi)
 19b:	74 5f                	je     1fc <.debug_str+0x1fc>
 19d:	6b 00 6c             	imul   $0x6c,(%eax),%eax
 1a0:	6f                   	outsl  %ds:(%esi),(%dx)
 1a1:	6e                   	outsb  %ds:(%esi),(%dx)
 1a2:	67 20 6c 6f          	and    %ch,0x6f(%si)
 1a6:	6e                   	outsb  %ds:(%esi),(%dx)
 1a7:	67 20 75 6e          	and    %dh,0x6e(%di)
 1ab:	73 69                	jae    216 <.debug_str+0x216>
 1ad:	67 6e                	outsb  %ds:(%si),(%dx)
 1af:	65 64 20 69 6e       	gs and %ch,%fs:0x6e(%ecx)
 1b4:	74 00                	je     1b6 <.debug_str+0x1b6>
 1b6:	5f                   	pop    %edi
 1b7:	61                   	popa   
 1b8:	73 63                	jae    21d <.debug_str+0x21d>
 1ba:	74 69                	je     225 <.debug_str+0x225>
 1bc:	6d                   	insl   (%dx),%es:(%edi)
 1bd:	65 5f                	gs pop %edi
 1bf:	62 75 66             	bound  %esi,0x66(%ebp)
 1c2:	00 75 69             	add    %dh,0x69(%ebp)
 1c5:	6f                   	outsl  %ds:(%esi),(%dx)
 1c6:	5f                   	pop    %edi
 1c7:	72 65                	jb     22e <.debug_str+0x22e>
 1c9:	73 69                	jae    234 <.debug_str+0x234>
 1cb:	64 00 5f 5f          	add    %bl,%fs:0x5f(%edi)
 1cf:	73 46                	jae    217 <.debug_str+0x217>
 1d1:	49                   	dec    %ecx
 1d2:	4c                   	dec    %esp
 1d3:	45                   	inc    %ebp
 1d4:	00 5f 77             	add    %bl,0x77(%edi)
 1d7:	64 73 00             	fs jae 1da <.debug_str+0x1da>
 1da:	69 6e 74 5f 6e 5f 73 	imul   $0x735f6e5f,0x74(%esi),%ebp
 1e1:	69 67 6e 5f 70 6f 73 	imul   $0x736f705f,0x6e(%edi),%esp
 1e8:	6e                   	outsb  %ds:(%esi),(%dx)
 1e9:	00 63 6f             	add    %ah,0x6f(%ebx)
 1ec:	6e                   	outsb  %ds:(%esi),(%dx)
 1ed:	76 62                	jbe    251 <.debug_str+0x251>
 1ef:	75 66                	jne    257 <.debug_str+0x257>
 1f1:	00 5f 75             	add    %bl,0x75(%edi)
 1f4:	71 75                	jno    26b <.debug_str+0x26b>
 1f6:	61                   	popa   
 1f7:	64 00 5f 5f          	add    %bl,%fs:0x5f(%edi)
 1fb:	73 69                	jae    266 <.debug_str+0x266>
 1fd:	6f                   	outsl  %ds:(%esi),(%dx)
 1fe:	76 00                	jbe    200 <.debug_str+0x200>
 200:	5f                   	pop    %edi
 201:	5f                   	pop    %edi
 202:	46                   	inc    %esi
 203:	49                   	dec    %ecx
 204:	4c                   	dec    %esp
 205:	45                   	inc    %ebp
 206:	00 64 69 67          	add    %ah,0x67(%ecx,%ebp,2)
 20a:	69 74 73 00 5f 6f 66 	imul   $0x66666f5f,0x0(%ebx,%esi,2),%esi
 211:	66 
 212:	73 65                	jae    279 <.debug_str+0x279>
 214:	74 00                	je     216 <.debug_str+0x216>
 216:	76 61                	jbe    279 <.debug_str+0x279>
 218:	6c                   	insb   (%dx),%es:(%edi)
 219:	75 65                	jne    280 <.debug_str+0x280>
 21b:	00 73 6f             	add    %dh,0x6f(%ebx)
 21e:	66 74 73             	data16 je 294 <.debug_str+0x294>
 221:	69 67 6e 00 5f 65 6d 	imul   $0x6d655f00,0x6e(%edi),%esp
 228:	65 72 67             	gs jb  292 <.debug_str+0x292>
 22b:	65 6e                	outsb  %gs:(%esi),(%dx)
 22d:	63 79 00             	arpl   %di,0x0(%ecx)
 230:	65 78 70             	gs js  2a3 <.debug_str+0x2a3>
 233:	74 00                	je     235 <.debug_str+0x235>
 235:	66 6d                	insw   (%dx),%es:(%edi)
 237:	74 30                	je     269 <.debug_str+0x269>
 239:	00 5f 5f             	add    %bl,0x5f(%edi)
 23c:	67 6e                	outsb  %ds:(%si),(%dx)
 23e:	75 63                	jne    2a3 <.debug_str+0x2a3>
 240:	5f                   	pop    %edi
 241:	76 61                	jbe    2a4 <.debug_str+0x2a4>
 243:	5f                   	pop    %edi
 244:	6c                   	insb   (%dx),%es:(%edi)
 245:	69 73 74 00 70 5f 73 	imul   $0x735f7000,0x74(%ebx),%esi
 24c:	69 67 6e 5f 70 6f 73 	imul   $0x736f705f,0x6e(%edi),%esp
 253:	6e                   	outsb  %ds:(%esi),(%dx)
 254:	00 73 69             	add    %dh,0x69(%ebx)
 257:	7a 65                	jp     2be <.debug_str+0x2be>
 259:	5f                   	pop    %edi
 25a:	74 00                	je     25c <.debug_str+0x25c>
 25c:	69 6e 74 5f 70 5f 63 	imul   $0x635f705f,0x74(%esi),%ebp
 263:	73 5f                	jae    2c4 <.debug_str+0x2c4>
 265:	70 72                	jo     2d9 <.debug_str+0x2d9>
 267:	65 63 65 64          	arpl   %sp,%gs:0x64(%ebp)
 26b:	65 73 00             	gs jae 26e <.debug_str+0x26e>
 26e:	77 69                	ja     2d9 <.debug_str+0x2d9>
 270:	64 74 68             	fs je  2db <.debug_str+0x2db>
 273:	00 5f 5f             	add    %bl,0x5f(%edi)
 276:	74 6d                	je     2e5 <.debug_str+0x2e5>
 278:	5f                   	pop    %edi
 279:	73 65                	jae    2e0 <.debug_str+0x2e0>
 27b:	63 00                	arpl   %ax,(%eax)
 27d:	5f                   	pop    %edi
 27e:	5f                   	pop    %edi
 27f:	74 6d                	je     2ee <.debug_str+0x2ee>
 281:	5f                   	pop    %edi
 282:	79 64                	jns    2e8 <.debug_str+0x2e8>
 284:	61                   	popa   
 285:	79 00                	jns    287 <.debug_str+0x287>
 287:	5f                   	pop    %edi
 288:	69 6e 63 00 5f 69 6e 	imul   $0x6e695f00,0x63(%esi),%ebp
 28f:	64 00 64 65 63       	add    %ah,%fs:0x63(%ebp,%eiz,2)
 294:	70 5f                	jo     2f5 <.debug_str+0x2f5>
 296:	6c                   	insb   (%dx),%es:(%edi)
 297:	65 6e                	outsb  %gs:(%esi),(%dx)
 299:	00 5f 6e             	add    %bl,0x6e(%edi)
 29c:	65 78 74             	gs js  313 <.debug_str+0x313>
 29f:	00 69 6e             	add    %ch,0x6e(%ecx)
 2a2:	74 5f                	je     303 <.debug_str+0x303>
 2a4:	66 72 61             	data16 jb 308 <.debug_str+0x308>
 2a7:	63 5f 64             	arpl   %bx,0x64(%edi)
 2aa:	69 67 69 74 73 00 5f 	imul   $0x5f007374,0x69(%edi),%esp
 2b1:	6d                   	insl   (%dx),%es:(%edi)
 2b2:	62 73 72             	bound  %esi,0x72(%ebx)
 2b5:	74 6f                	je     326 <.debug_str+0x326>
 2b7:	77 63                	ja     31c <.debug_str+0x31c>
 2b9:	73 5f                	jae    31a <.debug_str+0x31a>
 2bb:	73 74                	jae    331 <.debug_str+0x331>
 2bd:	61                   	popa   
 2be:	74 65                	je     325 <.debug_str+0x325>
 2c0:	00 69 6e             	add    %ch,0x6e(%ecx)
 2c3:	74 5f                	je     324 <.debug_str+0x324>
 2c5:	6e                   	outsb  %ds:(%esi),(%dx)
 2c6:	5f                   	pop    %edi
 2c7:	63 73 5f             	arpl   %si,0x5f(%ebx)
 2ca:	70 72                	jo     33e <.debug_str+0x33e>
 2cc:	65 63 65 64          	arpl   %sp,%gs:0x64(%ebp)
 2d0:	65 73 00             	gs jae 2d3 <.debug_str+0x2d3>
 2d3:	6e                   	outsb  %ds:(%esi),(%dx)
 2d4:	65 67 61             	gs addr16 popa 
 2d7:	74 69                	je     342 <.debug_str+0x342>
 2d9:	76 65                	jbe    340 <.debug_str+0x340>
 2db:	5f                   	pop    %edi
 2dc:	73 69                	jae    347 <.debug_str+0x347>
 2de:	67 6e                	outsb  %ds:(%si),(%dx)
 2e0:	00 5f 5f             	add    %bl,0x5f(%edi)
 2e3:	76 61                	jbe    346 <.debug_str+0x346>
 2e5:	6c                   	insb   (%dx),%es:(%edi)
 2e6:	75 65                	jne    34d <.debug_str+0x34d>
 2e8:	00 5f 70             	add    %bl,0x70(%edi)
 2eb:	35 73 00 6d 65       	xor    $0x656d0073,%eax
 2f0:	6d                   	insl   (%dx),%es:(%edi)
 2f1:	63 68 72             	arpl   %bp,0x72(%eax)
 2f4:	00 5f 6d             	add    %bl,0x6d(%edi)
 2f7:	61                   	popa   
 2f8:	6c                   	insb   (%dx),%es:(%edi)
 2f9:	6c                   	insb   (%dx),%es:(%edi)
 2fa:	6f                   	outsl  %ds:(%esi),(%dx)
 2fb:	63 5f 72             	arpl   %bx,0x72(%edi)
 2fe:	00 67 72             	add    %ah,0x72(%edi)
 301:	6f                   	outsl  %ds:(%esi),(%dx)
 302:	75 70                	jne    374 <.debug_str+0x374>
 304:	69 6e 67 00 6c 65 61 	imul   $0x61656c00,0x67(%esi),%ebp
 30b:	64 00 5f 77          	add    %bl,%fs:0x77(%edi)
 30f:	63 73 72             	arpl   %si,0x72(%ebx)
 312:	74 6f                	je     383 <.debug_str+0x383>
 314:	6d                   	insl   (%dx),%es:(%edi)
 315:	62 73 5f             	bound  %esi,0x5f(%ebx)
 318:	73 74                	jae    38e <.debug_str+0x38e>
 31a:	61                   	popa   
 31b:	74 65                	je     382 <.debug_str+0x382>
 31d:	00 5f 6d             	add    %bl,0x6d(%edi)
 320:	62 6c 65 6e          	bound  %ebp,0x6e(%ebp,%eiz,2)
 324:	5f                   	pop    %edi
 325:	73 74                	jae    39b <.debug_str+0x39b>
 327:	61                   	popa   
 328:	74 65                	je     38f <.debug_str+0x38f>
 32a:	00 63 68             	add    %ah,0x68(%ebx)
 32d:	61                   	popa   
 32e:	72 00                	jb     330 <.debug_str+0x330>
 330:	5f                   	pop    %edi
 331:	5f                   	pop    %edi
 332:	74 6d                	je     3a1 <.debug_str+0x3a1>
 334:	5f                   	pop    %edi
 335:	6d                   	insl   (%dx),%es:(%edi)
 336:	64 61                	fs popa 
 338:	79 00                	jns    33a <.debug_str+0x33a>
 33a:	5f                   	pop    %edi
 33b:	73 69                	jae    3a6 <.debug_str+0x3a6>
 33d:	67 5f                	addr16 pop %edi
 33f:	66 75 6e             	data16 jne 3b0 <.debug_str+0x3b0>
 342:	63 00                	arpl   %ax,(%eax)
 344:	5f                   	pop    %edi
 345:	6d                   	insl   (%dx),%es:(%edi)
 346:	62 72 74             	bound  %esi,0x74(%edx)
 349:	6f                   	outsl  %ds:(%esi),(%dx)
 34a:	77 63                	ja     3af <.debug_str+0x3af>
 34c:	5f                   	pop    %edi
 34d:	73 74                	jae    3c3 <.debug_str+0x3c3>
 34f:	61                   	popa   
 350:	74 65                	je     3b7 <.debug_str+0x3b7>
 352:	00 5f 61             	add    %bl,0x61(%edi)
 355:	74 65                	je     3bc <.debug_str+0x3bc>
 357:	78 69                	js     3c2 <.debug_str+0x3c2>
 359:	74 30                	je     38b <.debug_str+0x38b>
 35b:	00 72 65             	add    %dh,0x65(%edx)
 35e:	73 77                	jae    3d7 <.debug_str+0x3d7>
 360:	69 74 63 68 00 5f 66 	imul   $0x6c665f00,0x68(%ebx,%eiz,2),%esi
 367:	6c 
 368:	6f                   	outsl  %ds:(%esi),(%dx)
 369:	63 6b 5f             	arpl   %bp,0x5f(%ebx)
 36c:	74 00                	je     36e <.debug_str+0x36e>
 36e:	5f                   	pop    %edi
 36f:	5f                   	pop    %edi
 370:	77 63                	ja     3d5 <.debug_str+0x3d5>
 372:	68 00 5f 69 6f       	push   $0x6f695f00
 377:	62 73 00             	bound  %esi,0x0(%ebx)
 37a:	69 6f 76 5f 62 61 73 	imul   $0x7361625f,0x76(%edi),%ebp
 381:	65 00 5f 63          	add    %bl,%gs:0x63(%edi)
 385:	6c                   	insb   (%dx),%es:(%edi)
 386:	6f                   	outsl  %ds:(%esi),(%dx)
 387:	73 65                	jae    3ee <.debug_str+0x3ee>
 389:	00 5f 5f             	add    %bl,0x5f(%edi)
 38c:	73 64                	jae    3f2 <.debug_str+0x3f2>
 38e:	69 64 69 6e 69 74 00 	imul   $0x75007469,0x6e(%ecx,%ebp,2),%esp
 395:	75 
 396:	69 6f 5f 69 6f 76 00 	imul   $0x766f69,0x5f(%edi),%ebp
 39d:	73 6b                	jae    40a <.debug_str+0x40a>
 39f:	69 70 73 69 7a 65 00 	imul   $0x657a69,0x73(%eax),%esi
 3a6:	76 61                	jbe    409 <.debug_str+0x409>
 3a8:	5f                   	pop    %edi
 3a9:	6c                   	insb   (%dx),%es:(%edi)
 3aa:	69 73 74 00 5f 73 74 	imul   $0x74735f00,0x74(%ebx),%esi
 3b1:	64 69 6e 00 5f 67 61 	imul   $0x6d61675f,%fs:0x0(%esi),%ebp
 3b8:	6d 
 3b9:	6d                   	insl   (%dx),%es:(%edi)
 3ba:	61                   	popa   
 3bb:	5f                   	pop    %edi
 3bc:	73 69                	jae    427 <.debug_str+0x427>
 3be:	67 6e                	outsb  %ds:(%si),(%dx)
 3c0:	67 61                	addr16 popa 
 3c2:	6d                   	insl   (%dx),%es:(%edi)
 3c3:	00 6c 6f 6e          	add    %ch,0x6e(%edi,%ebp,2)
 3c7:	67 20 6c 6f          	and    %ch,0x6f(%si)
 3cb:	6e                   	outsb  %ds:(%esi),(%dx)
 3cc:	67 20 69 6e          	and    %ch,0x6e(%bx,%di)
 3d0:	74 00                	je     3d2 <.debug_str+0x3d2>
 3d2:	5f                   	pop    %edi
 3d3:	62 61 73             	bound  %esp,0x73(%ecx)
 3d6:	65 00 65 78          	add    %ah,%gs:0x78(%ebp)
 3da:	70 73                	jo     44f <.debug_str+0x44f>
 3dc:	69 7a 65 00 5f 66 72 	imul   $0x72665f00,0x65(%edx),%edi
 3e3:	65 65 6c             	gs gs insb (%dx),%es:(%edi)
 3e6:	69 73 74 00 5f 6d 75 	imul   $0x756d5f00,0x74(%ebx),%esi
 3ed:	6c                   	insb   (%dx),%es:(%edi)
 3ee:	74 00                	je     3f0 <.debug_str+0x3f0>
 3f0:	5f                   	pop    %edi
 3f1:	5f                   	pop    %edi
 3f2:	55                   	push   %ebp
 3f3:	4c                   	dec    %esp
 3f4:	6f                   	outsl  %ds:(%esi),(%dx)
 3f5:	6e                   	outsb  %ds:(%esi),(%dx)
 3f6:	67 00 6d 6f          	add    %ch,0x6f(%di)
 3fa:	6e                   	outsb  %ds:(%esi),(%dx)
 3fb:	5f                   	pop    %edi
 3fc:	67 72 6f             	addr16 jb 46e <.debug_str+0x46e>
 3ff:	75 70                	jne    471 <.debug_str+0x471>
 401:	69 6e 67 00 5f 77 63 	imul   $0x63775f00,0x67(%esi),%ebp
 408:	72 74                	jb     47e <.debug_str+0x47e>
 40a:	6f                   	outsl  %ds:(%esi),(%dx)
 40b:	6d                   	insl   (%dx),%es:(%edi)
 40c:	62 5f 73             	bound  %ebx,0x73(%edi)
 40f:	74 61                	je     472 <.debug_str+0x472>
 411:	74 65                	je     478 <.debug_str+0x478>
 413:	00 69 6f             	add    %ch,0x6f(%ecx)
 416:	76 5f                	jbe    477 <.debug_str+0x477>
 418:	6c                   	insb   (%dx),%es:(%edi)
 419:	65 6e                	outsb  %gs:(%esi),(%dx)
 41b:	00 5f 66             	add    %bl,0x66(%edi)
 41e:	69 6c 65 00 47 4e 55 	imul   $0x20554e47,0x0(%ebp,%eiz,2),%ebp
 425:	20 
 426:	43                   	inc    %ebx
 427:	20 34 2e             	and    %dh,(%esi,%ebp,1)
 42a:	38 2e                	cmp    %ch,(%esi)
 42c:	32 20                	xor    (%eax),%ah
 42e:	2d 6d 74 75 6e       	sub    $0x6e75746d,%eax
 433:	65 3d 67 65 6e 65    	gs cmp $0x656e6567,%eax
 439:	72 69                	jb     4a4 <.debug_str+0x4a4>
 43b:	63 20                	arpl   %sp,(%eax)
 43d:	2d 6d 61 72 63       	sub    $0x6372616d,%eax
 442:	68 3d 69 36 38       	push   $0x3836693d
 447:	36 20 2d 67 20 2d 4f 	and    %ch,%ss:0x4f2d2067
 44e:	32 20                	xor    (%eax),%ah
 450:	2d 66 6e 6f 2d       	sub    $0x2d6f6e66,%eax
 455:	62 75 69             	bound  %esi,0x69(%ebp)
 458:	6c                   	insb   (%dx),%es:(%edi)
 459:	74 69                	je     4c4 <.debug_str+0x4c4>
 45b:	6e                   	outsb  %ds:(%esi),(%dx)
 45c:	20 2d 66 6e 6f 2d    	and    %ch,0x2d6f6e66
 462:	73 74                	jae    4d8 <.debug_str+0x4d8>
 464:	61                   	popa   
 465:	63 6b 2d             	arpl   %bp,0x2d(%ebx)
 468:	70 72                	jo     4dc <.debug_str+0x4dc>
 46a:	6f                   	outsl  %ds:(%esi),(%dx)
 46b:	74 65                	je     4d2 <.debug_str+0x4d2>
 46d:	63 74 6f 72          	arpl   %si,0x72(%edi,%ebp,2)
 471:	20 2d 66 6e 6f 2d    	and    %ch,0x2d6f6e66
 477:	6f                   	outsl  %ds:(%esi),(%dx)
 478:	6d                   	insl   (%dx),%es:(%edi)
 479:	69 74 2d 66 72 61 6d 	imul   $0x656d6172,0x66(%ebp,%ebp,1),%esi
 480:	65 
 481:	2d 70 6f 69 6e       	sub    $0x6e696f70,%eax
 486:	74 65                	je     4ed <.debug_str+0x4ed>
 488:	72 20                	jb     4aa <.debug_str+0x4aa>
 48a:	2d 66 73 68 6f       	sub    $0x6f687366,%eax
 48f:	72 74                	jb     505 <.debug_str+0x505>
 491:	2d 65 6e 75 6d       	sub    $0x6d756e65,%eax
 496:	73 00                	jae    498 <.debug_str+0x498>
 498:	6d                   	insl   (%dx),%es:(%edi)
 499:	61                   	popa   
 49a:	6c                   	insb   (%dx),%es:(%edi)
 49b:	6c                   	insb   (%dx),%es:(%edi)
 49c:	6f                   	outsl  %ds:(%esi),(%dx)
 49d:	63 5f 62             	arpl   %bx,0x62(%edi)
 4a0:	75 66                	jne    508 <.debug_str+0x508>
 4a2:	00 5f 5f             	add    %bl,0x5f(%edi)
 4a5:	63 6c 65 61          	arpl   %bp,0x61(%ebp,%eiz,2)
 4a9:	6e                   	outsb  %ds:(%esi),(%dx)
 4aa:	75 70                	jne    51c <.debug_str+0x51c>
 4ac:	00 5f 6d             	add    %bl,0x6d(%edi)
 4af:	62 73 74             	bound  %esi,0x74(%ebx)
 4b2:	61                   	popa   
 4b3:	74 65                	je     51a <.debug_str+0x51a>
 4b5:	5f                   	pop    %edi
 4b6:	74 00                	je     4b8 <.debug_str+0x4b8>
 4b8:	5f                   	pop    %edi
 4b9:	66 6e                	data16 outsb %ds:(%esi),(%dx)
 4bb:	61                   	popa   
 4bc:	72 67                	jb     525 <.debug_str+0x525>
 4be:	73 00                	jae    4c0 <.debug_str+0x4c0>
 4c0:	73 69                	jae    52b <.debug_str+0x52b>
 4c2:	7a 65                	jp     529 <.debug_str+0x529>
 4c4:	00 5f 5f             	add    %bl,0x5f(%edi)
 4c7:	74 6d                	je     536 <.debug_str+0x536>
 4c9:	5f                   	pop    %edi
 4ca:	69 73 64 73 74 00 6e 	imul   $0x6e007473,0x64(%ebx),%esi
 4d1:	64 69 67 69 74 73 00 	imul   $0x5f007374,%fs:0x69(%edi),%esp
 4d8:	5f 
 4d9:	68 5f 65 72 72       	push   $0x7272655f
 4de:	6e                   	outsb  %ds:(%esi),(%dx)
 4df:	6f                   	outsl  %ds:(%esi),(%dx)
 4e0:	00 5f 64             	add    %bl,0x64(%edi)
 4e3:	74 6f                	je     554 <.debug_str+0x554>
 4e5:	61                   	popa   
 4e6:	5f                   	pop    %edi
 4e7:	72 00                	jb     4e9 <.debug_str+0x4e9>
 4e9:	64 6f                	outsl  %fs:(%esi),(%dx)
 4eb:	6e                   	outsb  %ds:(%esi),(%dx)
 4ec:	65 00 64 61 74       	add    %ah,%gs:0x74(%ecx,%eiz,2)
 4f1:	61                   	popa   
 4f2:	00 5f 5f             	add    %bl,0x5f(%edi)
 4f5:	74 6d                	je     564 <.debug_str+0x564>
 4f7:	5f                   	pop    %edi
 4f8:	6d                   	insl   (%dx),%es:(%edi)
 4f9:	6f                   	outsl  %ds:(%esi),(%dx)
 4fa:	6e                   	outsb  %ds:(%esi),(%dx)
 4fb:	00 6c 6f 6e          	add    %ch,0x6e(%edi,%ebp,2)
 4ff:	67 20 64 6f          	and    %ah,0x6f(%si)
 503:	75 62                	jne    567 <.debug_str+0x567>
 505:	6c                   	insb   (%dx),%es:(%edi)
 506:	65 00 5f 5f          	add    %bl,%gs:0x5f(%edi)
 50a:	73 75                	jae    581 <.debug_str+0x581>
 50c:	69 6f 00 2e 2e 2f 2e 	imul   $0x2e2f2e2e,0x0(%edi),%ebp
 513:	2e 2f                	cs das 
 515:	2e 2e 2f             	cs cs das 
 518:	2e 2e 2f             	cs cs das 
 51b:	2e 2e 2f             	cs cs das 
 51e:	6e                   	outsb  %ds:(%esi),(%dx)
 51f:	65 77 6c             	gs ja  58e <.debug_str+0x58e>
 522:	69 62 2d 32 2e 31 2e 	imul   $0x2e312e32,0x2d(%edx),%esp
 529:	30 2f                	xor    %ch,(%edi)
 52b:	6e                   	outsb  %ds:(%esi),(%dx)
 52c:	65 77 6c             	gs ja  59b <.debug_str+0x59b>
 52f:	69 62 2f 6c 69 62 63 	imul   $0x6362696c,0x2f(%edx),%esp
 536:	2f                   	das    
 537:	73 74                	jae    5ad <.debug_str+0x5ad>
 539:	64 69 6f 2f 76 66 70 	imul   $0x72706676,%fs:0x2f(%edi),%ebp
 540:	72 
 541:	69 6e 74 66 2e 63 00 	imul   $0x632e66,0x74(%esi),%ebp
 548:	5f                   	pop    %edi
 549:	77 72                	ja     5bd <.debug_str+0x5bd>
 54b:	69 74 65 00 5f 5f 75 	imul   $0x69755f5f,0x0(%ebp,%eiz,2),%esi
 552:	69 
 553:	6e                   	outsb  %ds:(%esi),(%dx)
 554:	74 70                	je     5c6 <.debug_str+0x5c6>
 556:	74 72                	je     5ca <.debug_str+0x5ca>
 558:	5f                   	pop    %edi
 559:	74 00                	je     55b <.debug_str+0x55b>
 55b:	5f                   	pop    %edi
 55c:	61                   	popa   
 55d:	74 65                	je     5c4 <.debug_str+0x5c4>
 55f:	78 69                	js     5ca <.debug_str+0x5ca>
 561:	74 00                	je     563 <.debug_str+0x563>
 563:	5f                   	pop    %edi
 564:	6d                   	insl   (%dx),%es:(%edi)
 565:	62 73 74             	bound  %esi,0x74(%ebx)
 568:	61                   	popa   
 569:	74 65                	je     5d0 <.debug_str+0x5d0>
 56b:	00 64 70 72          	add    %ah,0x72(%eax,%esi,2)
 56f:	65 63 00             	arpl   %ax,%gs:(%eax)
 572:	64 6f                	outsl  %fs:(%esi),(%dx)
 574:	75 62                	jne    5d8 <.debug_str+0x5d8>
 576:	6c                   	insb   (%dx),%es:(%edi)
 577:	65 5f                	gs pop %edi
 579:	75 6e                	jne    5e9 <.debug_str+0x5e9>
 57b:	69 6f 6e 00 73 68 6f 	imul   $0x6f687300,0x6e(%edi),%ebp
 582:	72 74                	jb     5f8 <.debug_str+0x5f8>
 584:	20 69 6e             	and    %ch,0x6e(%ecx)
 587:	74 00                	je     589 <.debug_str+0x589>
 589:	5f                   	pop    %edi
 58a:	6c                   	insb   (%dx),%es:(%edi)
 58b:	6f                   	outsl  %ds:(%esi),(%dx)
 58c:	63 61 6c             	arpl   %sp,0x6c(%ecx)
 58f:	65 63 6f 6e          	arpl   %bp,%gs:0x6e(%edi)
 593:	76 5f                	jbe    5f4 <.debug_str+0x5f4>
 595:	72 00                	jb     597 <.debug_str+0x597>
 597:	69 6e 74 5f 63 75 72 	imul   $0x7275635f,0x74(%esi),%ebp
 59e:	72 5f                	jb     5ff <.debug_str+0x5ff>
 5a0:	73 79                	jae    61b <.debug_str+0x61b>
 5a2:	6d                   	insl   (%dx),%es:(%edi)
 5a3:	62 6f 6c             	bound  %ebp,0x6c(%edi)
 5a6:	00 6c 6f 6e          	add    %ch,0x6e(%edi,%ebp,2)
 5aa:	67 20 69 6e          	and    %ch,0x6e(%bx,%di)
 5ae:	74 00                	je     5b0 <.debug_str+0x5b0>
 5b0:	66 72 61             	data16 jb 614 <.debug_str+0x614>
 5b3:	63 5f 64             	arpl   %bx,0x64(%edi)
 5b6:	69 67 69 74 73 00 6c 	imul   $0x6c007374,0x69(%edi),%esp
 5bd:	65 6e                	outsb  %gs:(%esi),(%dx)
 5bf:	67 74 68             	addr16 je 62a <.debug_str+0x62a>
 5c2:	00 6e 5f             	add    %ch,0x5f(%esi)
 5c5:	73 69                	jae    630 <.debug_str+0x630>
 5c7:	67 6e                	outsb  %ds:(%si),(%dx)
 5c9:	5f                   	pop    %edi
 5ca:	70 6f                	jo     63b <.debug_str+0x63b>
 5cc:	73 6e                	jae    63c <.debug_str+0x63c>
 5ce:	00 5f 5f             	add    %bl,0x5f(%edi)
 5d1:	73 66                	jae    639 <.debug_str+0x639>
 5d3:	00 5f 73             	add    %bl,0x73(%edi)
 5d6:	69 67 6e 00 5f 63 75 	imul   $0x75635f00,0x6e(%edi),%esp
 5dd:	72 72                	jb     651 <.debug_str+0x651>
 5df:	65 6e                	outsb  %gs:(%esi),(%dx)
 5e1:	74 5f                	je     642 <.debug_str+0x642>
 5e3:	6c                   	insb   (%dx),%es:(%edi)
 5e4:	6f                   	outsl  %ds:(%esi),(%dx)
 5e5:	63 61 6c             	arpl   %sp,0x6c(%ecx)
 5e8:	65 00 5f 64          	add    %bl,%gs:0x64(%edi)
 5ec:	61                   	popa   
 5ed:	74 61                	je     650 <.debug_str+0x650>
 5ef:	00 7a 65             	add    %bh,0x65(%edx)
 5f2:	72 6f                	jb     663 <.debug_str+0x663>
 5f4:	65 73 00             	gs jae 5f7 <.debug_str+0x5f7>
 5f7:	5f                   	pop    %edi
 5f8:	5f                   	pop    %edi
 5f9:	77 63                	ja     65e <.debug_str+0x65e>
 5fb:	68 62 00 69 6e       	push   $0x6e690062
 600:	74 5f                	je     661 <.debug_str+0x661>
 602:	6e                   	outsb  %ds:(%esi),(%dx)
 603:	5f                   	pop    %edi
 604:	73 65                	jae    66b <.debug_str+0x66b>
 606:	70 5f                	jo     667 <.debug_str+0x667>
 608:	62 79 5f             	bound  %edi,0x5f(%ecx)
 60b:	73 70                	jae    67d <.debug_str+0x67d>
 60d:	61                   	popa   
 60e:	63 65 00             	arpl   %sp,0x0(%ebp)
 611:	5f                   	pop    %edi
 612:	5f                   	pop    %edi
 613:	74 6d                	je     682 <.debug_str+0x682>
 615:	5f                   	pop    %edi
 616:	79 65                	jns    67d <.debug_str+0x67d>
 618:	61                   	popa   
 619:	72 00                	jb     61b <.debug_str+0x61b>
 61b:	73 69                	jae    686 <.debug_str+0x686>
 61d:	67 6e                	outsb  %ds:(%si),(%dx)
 61f:	00 65 78             	add    %ah,0x78(%ebp)
 622:	70 73                	jo     697 <.debug_str+0x697>
 624:	74 72                	je     698 <.debug_str+0x698>
 626:	00 64 73 67          	add    %ah,0x67(%ebx,%esi,2)
 62a:	6e                   	outsb  %ds:(%esi),(%dx)
 62b:	00 5f 6c             	add    %bl,0x6c(%edi)
 62e:	6f                   	outsl  %ds:(%esi),(%dx)
 62f:	63 61 6c             	arpl   %sp,0x6c(%ecx)
 632:	74 69                	je     69d <.debug_str+0x69d>
 634:	6d                   	insl   (%dx),%es:(%edi)
 635:	65 5f                	gs pop %edi
 637:	62 75 66             	bound  %esi,0x66(%ebp)
 63a:	00 5f 75             	add    %bl,0x75(%edi)
 63d:	6e                   	outsb  %ds:(%esi),(%dx)
 63e:	75 73                	jne    6b3 <.debug_str+0x6b3>
 640:	65 64 00 72 65       	gs add %dh,%fs:0x65(%edx)
 645:	61                   	popa   
 646:	6c                   	insb   (%dx),%es:(%edi)
 647:	73 7a                	jae    6c3 <.debug_str+0x6c3>
 649:	00 5f 6e             	add    %bl,0x6e(%edi)
 64c:	65 77 00             	gs ja  64f <.debug_str+0x64f>
 64f:	6e                   	outsb  %ds:(%esi),(%dx)
 650:	75 6d                	jne    6bf <.debug_str+0x6bf>
 652:	62 65 72             	bound  %esp,0x72(%ebp)
 655:	00 69 6e             	add    %ch,0x6e(%ecx)
 658:	74 5f                	je     6b9 <.debug_str+0x6b9>
 65a:	70 5f                	jo     6bb <.debug_str+0x6bb>
 65c:	73 65                	jae    6c3 <.debug_str+0x6c3>
 65e:	70 5f                	jo     6bf <.debug_str+0x6bf>
 660:	62 79 5f             	bound  %edi,0x5f(%ecx)
 663:	73 70                	jae    6d5 <.debug_str+0x6d5>
 665:	61                   	popa   
 666:	63 65 00             	arpl   %sp,0x0(%ebp)
 669:	5f                   	pop    %edi
 66a:	63 76 74             	arpl   %si,0x74(%esi)
 66d:	6c                   	insb   (%dx),%es:(%edi)
 66e:	65 6e                	outsb  %gs:(%esi),(%dx)
 670:	00 5f 6d             	add    %bl,0x6d(%edi)
 673:	61                   	popa   
 674:	78 77                	js     6ed <.debug_str+0x6ed>
 676:	64 73 00             	fs jae 679 <.debug_str+0x679>
 679:	5f                   	pop    %edi
 67a:	6c                   	insb   (%dx),%es:(%edi)
 67b:	36 34 61             	ss xor $0x61,%al
 67e:	5f                   	pop    %edi
 67f:	62 75 66             	bound  %esi,0x66(%ebp)
 682:	00 5f 63             	add    %bl,0x63(%edi)
 685:	75 72                	jne    6f9 <.debug_str+0x6f9>
 687:	72 65                	jb     6ee <.debug_str+0x6ee>
 689:	6e                   	outsb  %ds:(%esi),(%dx)
 68a:	74 5f                	je     6eb <.debug_str+0x6eb>
 68c:	63 61 74             	arpl   %sp,0x74(%ecx)
 68f:	65 67 6f             	outsl  %gs:(%si),(%dx)
 692:	72 79                	jb     70d <.debug_str+0x70d>
 694:	00 5f 62             	add    %bl,0x62(%edi)
 697:	6c                   	insb   (%dx),%es:(%edi)
 698:	6b 73 69 7a          	imul   $0x7a,0x69(%ebx),%esi
 69c:	65 00 75 69          	add    %dh,%gs:0x69(%ebp)
 6a0:	6e                   	outsb  %ds:(%esi),(%dx)
 6a1:	74 70                	je     713 <.debug_str+0x713>
 6a3:	74 72                	je     717 <.debug_str+0x717>
 6a5:	5f                   	pop    %edi
 6a6:	74 00                	je     6a8 <.debug_str+0x6a8>
 6a8:	5f                   	pop    %edi
 6a9:	5f                   	pop    %edi
 6aa:	74 6d                	je     719 <.debug_str+0x719>
 6ac:	00 66 6d             	add    %ah,0x6d(%esi)
 6af:	74 63                	je     714 <.debug_str+0x714>
 6b1:	68 00 5f 6c 6f       	push   $0x6f6c5f00
 6b6:	63 6b 00             	arpl   %bp,0x0(%ebx)
 6b9:	75 5f                	jne    71a <.debug_str+0x71a>
 6bb:	73 68                	jae    725 <.debug_str+0x725>
 6bd:	6f                   	outsl  %ds:(%esi),(%dx)
 6be:	72 74                	jb     734 <.debug_str+0x734>
 6c0:	00 73 69             	add    %dh,0x69(%ebx)
 6c3:	7a 65                	jp     72a <.debug_str+0x72a>
 6c5:	74 79                	je     740 <.debug_str+0x740>
 6c7:	70 65                	jo     72e <.debug_str+0x72e>
 6c9:	00 6c 6f 6e          	add    %ch,0x6e(%edi,%ebp,2)
 6cd:	67 20 75 6e          	and    %dh,0x6e(%di)
 6d1:	73 69                	jae    73c <.debug_str+0x73c>
 6d3:	67 6e                	outsb  %ds:(%si),(%dx)
 6d5:	65 64 20 69 6e       	gs and %ch,%fs:0x6e(%ecx)
 6da:	74 00                	je     6dc <.debug_str+0x6dc>
 6dc:	5f                   	pop    %edi
 6dd:	6e                   	outsb  %ds:(%esi),(%dx)
 6de:	69 6f 62 73 00 77 69 	imul   $0x69770073,0x62(%edi),%ebp
 6e5:	6e                   	outsb  %ds:(%esi),(%dx)
 6e6:	74 5f                	je     747 <.debug_str+0x747>
 6e8:	74 00                	je     6ea <.debug_str+0x6ea>
 6ea:	5f                   	pop    %edi
 6eb:	5f                   	pop    %edi
 6ec:	66 70 63             	data16 jo 752 <.debug_str+0x752>
 6ef:	6c                   	insb   (%dx),%es:(%edi)
 6f0:	61                   	popa   
 6f1:	73 73                	jae    766 <.debug_str+0x766>
 6f3:	69 66 79 64 00 5f 64 	imul   $0x645f0064,0x79(%esi),%esp
 6fa:	73 6f                	jae    76b <.debug_str+0x76b>
 6fc:	5f                   	pop    %edi
 6fd:	68 61 6e 64 6c       	push   $0x6c646e61
 702:	65 00 6d 6f          	add    %ch,%gs:0x6f(%ebp)
 706:	6e                   	outsb  %ds:(%esi),(%dx)
 707:	5f                   	pop    %edi
 708:	74 68                	je     772 <.debug_str+0x772>
 70a:	6f                   	outsl  %ds:(%esi),(%dx)
 70b:	75 73                	jne    780 <.debug_str+0x780>
 70d:	61                   	popa   
 70e:	6e                   	outsb  %ds:(%esi),(%dx)
 70f:	64 73 5f             	fs jae 771 <.debug_str+0x771>
 712:	73 65                	jae    779 <.debug_str+0x779>
 714:	70 00                	jo     716 <.debug_str+0x716>
 716:	5f                   	pop    %edi
 717:	63 76 74             	arpl   %si,0x74(%esi)
 71a:	62 75 66             	bound  %esi,0x66(%ebp)
 71d:	00 75 6e             	add    %dh,0x6e(%ebp)
 720:	73 69                	jae    78b <.debug_str+0x78b>
 722:	67 6e                	outsb  %ds:(%si),(%dx)
 724:	65 64 20 63 68       	gs and %ah,%fs:0x68(%ebx)
 729:	61                   	popa   
 72a:	72 00                	jb     72c <.debug_str+0x72c>
 72c:	5f                   	pop    %edi
 72d:	5f                   	pop    %edi
 72e:	75 69                	jne    799 <.debug_str+0x799>
 730:	6e                   	outsb  %ds:(%esi),(%dx)
 731:	74 33                	je     766 <.debug_str+0x766>
 733:	32 5f 74             	xor    0x74(%edi),%bl
 736:	00 75 5f             	add    %dh,0x5f(%ebp)
 739:	6c                   	insb   (%dx),%es:(%edi)
 73a:	6f                   	outsl  %ds:(%esi),(%dx)
 73b:	6e                   	outsb  %ds:(%esi),(%dx)
 73c:	67 00 5f 67          	add    %bl,0x67(%bx)
 740:	65 74 64             	gs je  7a7 <.debug_str+0x7a7>
 743:	61                   	popa   
 744:	74 65                	je     7ab <.debug_str+0x7ab>
 746:	5f                   	pop    %edi
 747:	65 72 72             	gs jb  7bc <.debug_str+0x7bc>
 74a:	00 74 68 6f          	add    %dh,0x6f(%eax,%ebp,2)
 74e:	75 73                	jne    7c3 <.debug_str+0x7c3>
 750:	61                   	popa   
 751:	6e                   	outsb  %ds:(%esi),(%dx)
 752:	64 73 5f             	fs jae 7b4 <.debug_str+0x7b4>
 755:	73 65                	jae    7bc <.debug_str+0x7bc>
 757:	70 00                	jo     759 <.debug_str+0x759>
 759:	5f                   	pop    %edi
 75a:	61                   	popa   
 75b:	64 64 00 5f 5f       	fs add %bl,%fs:0x5f(%edi)
 760:	73 62                	jae    7c4 <.debug_str+0x7c4>
 762:	75 66                	jne    7ca <.debug_str+0x7ca>
 764:	00 2f                	add    %ch,(%edi)
 766:	68 6f 6d 65 2f       	push   $0x2f656d6f
 76b:	6a 79                	push   $0x79
 76d:	79 2f                	jns    79e <.debug_str+0x79e>
 76f:	44                   	inc    %esp
 770:	65 73 6b             	gs jae 7de <.debug_str+0x7de>
 773:	74 6f                	je     7e4 <.debug_str+0x7e4>
 775:	70 2f                	jo     7a6 <.debug_str+0x7a6>
 777:	62 75 69             	bound  %esi,0x69(%ebp)
 77a:	6c                   	insb   (%dx),%es:(%edi)
 77b:	64 2f                	fs das 
 77d:	69 33 38 36 2d 65    	imul   $0x652d3638,(%ebx),%esi
 783:	6c                   	insb   (%dx),%es:(%edi)
 784:	66 2f                	data16 das 
 786:	6e                   	outsb  %ds:(%esi),(%dx)
 787:	65 77 6c             	gs ja  7f6 <.debug_str+0x7f6>
 78a:	69 62 2f 6c 69 62 63 	imul   $0x6362696c,0x2f(%edx),%esp
 791:	2f                   	das    
 792:	73 74                	jae    808 <.debug_str+0x808>
 794:	64 69 6f 00 63 75 72 	imul   $0x72727563,%fs:0x0(%edi),%ebp
 79b:	72 
 79c:	65 6e                	outsb  %gs:(%esi),(%dx)
 79e:	63 79 5f             	arpl   %di,0x5f(%ecx)
 7a1:	73 79                	jae    81c <.debug_str+0x81c>
 7a3:	6d                   	insl   (%dx),%es:(%edi)
 7a4:	62 6f 6c             	bound  %ebp,0x6c(%edi)
 7a7:	00 5f 67             	add    %bl,0x67(%edi)
 7aa:	6c                   	insb   (%dx),%es:(%edi)
 7ab:	75 65                	jne    812 <.debug_str+0x812>
 7ad:	00 62 6c             	add    %ah,0x6c(%edx)
 7b0:	61                   	popa   
 7b1:	6e                   	outsb  %ds:(%esi),(%dx)
 7b2:	6b 73 00 5f          	imul   $0x5f,0x0(%ebx),%esi
 7b6:	5f                   	pop    %edi
 7b7:	73 67                	jae    820 <.debug_str+0x820>
 7b9:	6c                   	insb   (%dx),%es:(%edi)
 7ba:	75 65                	jne    821 <.debug_str+0x821>
 7bc:	00 5f 73             	add    %bl,0x73(%edi)
 7bf:	74 72                	je     833 <.debug_str+0x833>
 7c1:	74 6f                	je     832 <.debug_str+0x832>
 7c3:	6b 5f 6c 61          	imul   $0x61,0x6c(%edi),%ebx
 7c7:	73 74                	jae    83d <.debug_str+0x83d>
 7c9:	00 5f 6d             	add    %bl,0x6d(%edi)
 7cc:	62 74 6f 77          	bound  %esi,0x77(%edi,%ebp,2)
 7d0:	63 5f 73             	arpl   %bx,0x73(%edi)
 7d3:	74 61                	je     836 <.debug_str+0x836>
 7d5:	74 65                	je     83c <.debug_str+0x83c>
 7d7:	00 66 6d             	add    %ah,0x6d(%esi)
 7da:	74 5f                	je     83b <.debug_str+0x83b>
 7dc:	61                   	popa   
 7dd:	6e                   	outsb  %ds:(%esi),(%dx)
 7de:	63 68 6f             	arpl   %bp,0x6f(%eax)
 7e1:	72 00                	jb     7e3 <.debug_str+0x7e3>
 7e3:	6e                   	outsb  %ds:(%esi),(%dx)
 7e4:	64 69 67 00 5f 73 73 	imul   $0x6973735f,%fs:0x0(%edi),%esp
 7eb:	69 
 7ec:	7a 65                	jp     853 <.debug_str+0x853>
 7ee:	5f                   	pop    %edi
 7ef:	74 00                	je     7f1 <.debug_str+0x7f1>
 7f1:	73 69                	jae    85c <.debug_str+0x85c>
 7f3:	67 6e                	outsb  %ds:(%si),(%dx)
 7f5:	65 64 20 63 68       	gs and %ah,%fs:0x68(%ebx)
 7fa:	61                   	popa   
 7fb:	72 00                	jb     7fd <.debug_str+0x7fd>
 7fd:	5f                   	pop    %edi
 7fe:	72 65                	jb     865 <.debug_str+0x865>
 800:	65 6e                	outsb  %gs:(%esi),(%dx)
 802:	74 00                	je     804 <.debug_str+0x804>
 804:	73 68                	jae    86e <.debug_str+0x86e>
 806:	6f                   	outsl  %ds:(%esi),(%dx)
 807:	72 74                	jb     87d <.debug_str+0x87d>
 809:	20 75 6e             	and    %dh,0x6e(%ebp)
 80c:	73 69                	jae    877 <.debug_str+0x877>
 80e:	67 6e                	outsb  %ds:(%si),(%dx)
 810:	65 64 20 69 6e       	gs and %ch,%fs:0x6e(%ecx)
 815:	74 00                	je     817 <.debug_str+0x817>
 817:	6e                   	outsb  %ds:(%esi),(%dx)
 818:	5f                   	pop    %edi
 819:	63 73 5f             	arpl   %si,0x5f(%ebx)
 81c:	70 72                	jo     890 <.debug_str+0x890>
 81e:	65 63 65 64          	arpl   %sp,%gs:0x64(%ebp)
 822:	65 73 00             	gs jae 825 <.debug_str+0x825>
 825:	5f                   	pop    %edi
 826:	66 6e                	data16 outsb %ds:(%esi),(%dx)
 828:	74 79                	je     8a3 <.debug_str+0x8a3>
 82a:	70 65                	jo     891 <.debug_str+0x891>
 82c:	73 00                	jae    82e <.debug_str+0x82e>
 82e:	5f                   	pop    %edi
 82f:	73 69                	jae    89a <.debug_str+0x89a>
 831:	7a 65                	jp     898 <.debug_str+0x898>
 833:	00 64 6f 75          	add    %ah,0x75(%edi,%ebp,2)
 837:	62 6c 65 00          	bound  %ebp,0x0(%ebp,%eiz,2)
 83b:	5f                   	pop    %edi
 83c:	6f                   	outsl  %ds:(%esi),(%dx)
 83d:	66 66 5f             	data16 pop %di
 840:	74 00                	je     842 <.debug_str+0x842>
 842:	5f                   	pop    %edi
 843:	5f                   	pop    %edi
 844:	62 75 69             	bound  %esi,0x69(%ebp)
 847:	6c                   	insb   (%dx),%es:(%edi)
 848:	74 69                	je     8b3 <.debug_str+0x8b3>
 84a:	6e                   	outsb  %ds:(%esi),(%dx)
 84b:	5f                   	pop    %edi
 84c:	76 61                	jbe    8af <.debug_str+0x8af>
 84e:	5f                   	pop    %edi
 84f:	6c                   	insb   (%dx),%es:(%edi)
 850:	69 73 74 00 5f 6e 62 	imul   $0x626e5f00,0x74(%ebx),%esi
 857:	75 66                	jne    8bf <.debug_str+0x8bf>
 859:	00 5f 75             	add    %bl,0x75(%edi)
 85c:	6e                   	outsb  %ds:(%esi),(%dx)
 85d:	75 73                	jne    8d2 <.debug_str+0x8d2>
 85f:	65 64 5f             	gs fs pop %edi
 862:	72 61                	jb     8c5 <.debug_str+0x8c5>
 864:	6e                   	outsb  %ds:(%esi),(%dx)
 865:	64 00 75 69          	add    %dh,%fs:0x69(%ebp)
 869:	6f                   	outsl  %ds:(%esi),(%dx)
 86a:	5f                   	pop    %edi
 86b:	69 6f 76 63 6e 74 00 	imul   $0x746e63,0x76(%edi),%ebp
 872:	5f                   	pop    %edi
 873:	66 6c                	data16 insb (%dx),%es:(%edi)
 875:	61                   	popa   
 876:	67 73 32             	addr16 jae 8ab <.debug_str+0x8ab>
 879:	00 5f 69             	add    %bl,0x69(%edi)
 87c:	73 5f                	jae    8dd <blanks.3938+0x769>
 87e:	63 78 61             	arpl   %di,0x61(%eax)
 881:	00 5f 73             	add    %bl,0x73(%edi)
 884:	65 65 64 00 5f 72    	gs gs add %bl,%fs:0x72(%edi)
 88a:	61                   	popa   
 88b:	6e                   	outsb  %ds:(%esi),(%dx)
 88c:	64 5f                	fs pop %edi
 88e:	6e                   	outsb  %ds:(%esi),(%dx)
 88f:	65 78 74             	gs js  906 <blanks.3938+0x792>
 892:	00 69 6e             	add    %ch,0x6e(%ecx)
 895:	74 5f                	je     8f6 <blanks.3938+0x782>
 897:	70 5f                	jo     8f8 <blanks.3938+0x784>
 899:	73 69                	jae    904 <blanks.3938+0x790>
 89b:	67 6e                	outsb  %ds:(%si),(%dx)
 89d:	5f                   	pop    %edi
 89e:	70 6f                	jo     90f <blanks.3938+0x79b>
 8a0:	73 6e                	jae    910 <blanks.3938+0x79c>
 8a2:	00 5f 73             	add    %bl,0x73(%edi)
 8a5:	76 66                	jbe    90d <blanks.3938+0x799>
 8a7:	70 72                	jo     91b <blanks.3938+0x7a7>
 8a9:	69 6e 74 66 5f 72 00 	imul   $0x725f66,0x74(%esi),%ebp
 8b0:	5f                   	pop    %edi
 8b1:	73 65                	jae    918 <blanks.3938+0x7a4>
 8b3:	65 6b 00 70          	imul   $0x70,%gs:(%eax),%eax
 8b7:	5f                   	pop    %edi
 8b8:	63 73 5f             	arpl   %si,0x5f(%ebx)
 8bb:	70 72                	jo     92f <blanks.3938+0x7bb>
 8bd:	65 63 65 64          	arpl   %sp,%gs:0x64(%ebp)
 8c1:	65 73 00             	gs jae 8c4 <.debug_str+0x8c4>
 8c4:	5f                   	pop    %edi
 8c5:	73 74                	jae    93b <blanks.3938+0x7c7>
 8c7:	64 65 72 72          	fs gs jb 93d <blanks.3938+0x7c9>
 8cb:	00 5f 6e             	add    %bl,0x6e(%edi)
 8ce:	6d                   	insl   (%dx),%es:(%edi)
 8cf:	61                   	popa   
 8d0:	6c                   	insb   (%dx),%es:(%edi)
 8d1:	6c                   	insb   (%dx),%es:(%edi)
 8d2:	6f                   	outsl  %ds:(%esi),(%dx)
 8d3:	63 00                	arpl   %ax,(%eax)
 8d5:	5f                   	pop    %edi
 8d6:	75 62                	jne    93a <blanks.3938+0x7c6>
 8d8:	75 66                	jne    940 <blanks.3938+0x7cc>
	...

Disassembly of section .comment:

00000000 <.comment>:
   0:	00 47 43             	add    %al,0x43(%edi)
   3:	43                   	inc    %ebx
   4:	3a 20                	cmp    (%eax),%ah
   6:	28 55 62             	sub    %dl,0x62(%ebp)
   9:	75 6e                	jne    79 <_svfprintf_r+0x79>
   b:	74 75                	je     82 <_svfprintf_r+0x82>
   d:	20 34 2e             	and    %dh,(%esi,%ebp,1)
  10:	38 2e                	cmp    %ch,(%esi)
  12:	32 2d 31 39 75 62    	xor    0x62753931,%ch
  18:	75 6e                	jne    88 <_svfprintf_r+0x88>
  1a:	74 75                	je     91 <_svfprintf_r+0x91>
  1c:	31 29                	xor    %ebp,(%ecx)
  1e:	20 34 2e             	and    %dh,(%esi,%ebp,1)
  21:	38 2e                	cmp    %ch,(%esi)
  23:	32 00                	xor    (%eax),%al

Disassembly of section .eh_frame:

00000000 <.eh_frame>:
   0:	14 00                	adc    $0x0,%al
   2:	00 00                	add    %al,(%eax)
   4:	00 00                	add    %al,(%eax)
   6:	00 00                	add    %al,(%eax)
   8:	01 7a 52             	add    %edi,0x52(%edx)
   b:	00 01                	add    %al,(%ecx)
   d:	7c 08                	jl     17 <.eh_frame+0x17>
   f:	01 1b                	add    %ebx,(%ebx)
  11:	0c 04                	or     $0x4,%al
  13:	04 88                	add    $0x88,%al
  15:	01 00                	add    %eax,(%eax)
  17:	00 2c 00             	add    %ch,(%eax,%eax,1)
  1a:	00 00                	add    %al,(%eax)
  1c:	1c 00                	sbb    $0x0,%al
  1e:	00 00                	add    %al,(%eax)
  20:	00 00                	add    %al,(%eax)
  22:	00 00                	add    %al,(%eax)
  24:	f9                   	stc    
  25:	1e                   	push   %ds
  26:	00 00                	add    %al,(%eax)
  28:	00 41 0e             	add    %al,0xe(%ecx)
  2b:	08 85 02 42 0d 05    	or     %al,0x50d4202(%ebp)
  31:	49                   	dec    %ecx
  32:	87 03                	xchg   %eax,(%ebx)
  34:	86 04 83             	xchg   %al,(%ebx,%eax,4)
  37:	05 03 de 01 0a       	add    $0xa01de03,%eax
  3c:	c3                   	ret    
  3d:	41                   	inc    %ecx
  3e:	c6 41 c7 41          	movb   $0x41,-0x39(%ecx)
  42:	c5 0c 04             	lds    (%esp,%eax,1),%ecx
  45:	04 41                	add    $0x41,%al
  47:	0b                   	.byte 0xb
